
my.elf:     file format elf32-littleriscv


Disassembly of section .text.init:

00000000 <rvtest_entry_point>:
       0:	7d5c0837          	lui	a6,0x7d5c0
       4:	ddb80813          	addi	a6,a6,-549 # 7d5bfddb <absimm+0x382cd8ac>
       8:	00785893          	srli	a7,a6,0x7
       c:	01985793          	srli	a5,a6,0x19
      10:	00f8e8b3          	or	a7,a7,a5
      14:	0078d913          	srli	s2,a7,0x7
      18:	0198d793          	srli	a5,a7,0x19
      1c:	00f96933          	or	s2,s2,a5
      20:	00795993          	srli	s3,s2,0x7
      24:	01995793          	srli	a5,s2,0x19
      28:	00f9e9b3          	or	s3,s3,a5
      2c:	0079da13          	srli	s4,s3,0x7
      30:	0199d793          	srli	a5,s3,0x19
      34:	00fa6a33          	or	s4,s4,a5
      38:	007a5a93          	srli	s5,s4,0x7
      3c:	019a5793          	srli	a5,s4,0x19
      40:	00faeab3          	or	s5,s5,a5
      44:	007adb13          	srli	s6,s5,0x7
      48:	019ad793          	srli	a5,s5,0x19
      4c:	00fb6b33          	or	s6,s6,a5
      50:	007b5b93          	srli	s7,s6,0x7
      54:	019b5793          	srli	a5,s6,0x19
      58:	00fbebb3          	or	s7,s7,a5
      5c:	007bdc13          	srli	s8,s7,0x7
      60:	019bd793          	srli	a5,s7,0x19
      64:	00fc6c33          	or	s8,s8,a5
      68:	007c5c93          	srli	s9,s8,0x7
      6c:	019c5793          	srli	a5,s8,0x19
      70:	00fcecb3          	or	s9,s9,a5
      74:	007cdd13          	srli	s10,s9,0x7
      78:	019cd793          	srli	a5,s9,0x19
      7c:	00fd6d33          	or	s10,s10,a5
      80:	007d5d93          	srli	s11,s10,0x7
      84:	019d5793          	srli	a5,s10,0x19
      88:	00fdedb3          	or	s11,s11,a5
      8c:	007dde13          	srli	t3,s11,0x7
      90:	019dd793          	srli	a5,s11,0x19
      94:	00fe6e33          	or	t3,t3,a5
      98:	007e5e93          	srli	t4,t3,0x7
      9c:	019e5793          	srli	a5,t3,0x19
      a0:	00feeeb3          	or	t4,t4,a5
      a4:	007edf13          	srli	t5,t4,0x7
      a8:	019ed793          	srli	a5,t4,0x19
      ac:	00ff6f33          	or	t5,t5,a5
      b0:	feedc0b7          	lui	ra,0xfeedc
      b4:	ead08093          	addi	ra,ra,-339 # feedbead <immx+0x441ce3dd>
      b8:	0070d113          	srli	sp,ra,0x7
      bc:	0190d793          	srli	a5,ra,0x19
      c0:	00f16133          	or	sp,sp,a5
      c4:	00715193          	srli	gp,sp,0x7
      c8:	01915793          	srli	a5,sp,0x19
      cc:	00f1e1b3          	or	gp,gp,a5
      d0:	0071d213          	srli	tp,gp,0x7
      d4:	0191d793          	srli	a5,gp,0x19
      d8:	00f26233          	or	tp,tp,a5
      dc:	00725293          	srli	t0,tp,0x7
      e0:	01925793          	srli	a5,tp,0x19
      e4:	00f2e2b3          	or	t0,t0,a5
      e8:	0072d313          	srli	t1,t0,0x7
      ec:	0192d793          	srli	a5,t0,0x19
      f0:	00f36333          	or	t1,t1,a5
      f4:	00735393          	srli	t2,t1,0x7
      f8:	01935793          	srli	a5,t1,0x19
      fc:	00f3e3b3          	or	t2,t2,a5
     100:	0073d413          	srli	s0,t2,0x7
     104:	0193d793          	srli	a5,t2,0x19
     108:	00f46433          	or	s0,s0,a5
     10c:	00745493          	srli	s1,s0,0x7
     110:	01945793          	srli	a5,s0,0x19
     114:	00f4e4b3          	or	s1,s1,a5
     118:	0074d513          	srli	a0,s1,0x7
     11c:	0194d793          	srli	a5,s1,0x19
     120:	00f56533          	or	a0,a0,a5
     124:	00755593          	srli	a1,a0,0x7
     128:	01955793          	srli	a5,a0,0x19
     12c:	00f5e5b3          	or	a1,a1,a5
     130:	0075d613          	srli	a2,a1,0x7
     134:	0195d793          	srli	a5,a1,0x19
     138:	00f66633          	or	a2,a2,a5
     13c:	00765693          	srli	a3,a2,0x7
     140:	01965793          	srli	a5,a2,0x19
     144:	00f6e6b3          	or	a3,a3,a5

00000148 <rvtest_code_begin>:
     148:	00000013          	addi	zero,zero,0
     14c:	00000013          	addi	zero,zero,0
     150:	00000013          	addi	zero,zero,0
     154:	00000013          	addi	zero,zero,0
     158:	00000013          	addi	zero,zero,0
     15c:	00000013          	addi	zero,zero,0
     160:	00009397          	auipc	t2,0x9
     164:	fb438393          	addi	t2,t2,-76 # 9114 <signature_x7_0>
     168:	00000013          	addi	zero,zero,0
     16c:	00000013          	addi	zero,zero,0
     170:	00000013          	addi	zero,zero,0
     174:	00000013          	addi	zero,zero,0
     178:	00000013          	addi	zero,zero,0
     17c:	00000013          	addi	zero,zero,0

00000180 <inst_0>:
     180:	40000b93          	addi	s7,zero,1024
     184:	000bbe13          	sltiu	t3,s7,0
     188:	01c3a023          	sw	t3,0(t2)

0000018c <inst_1>:
     18c:	00001137          	lui	sp,0x1
     190:	80010113          	addi	sp,sp,-2048 # 800 <inst_120+0xc>
     194:	fff13113          	sltiu	sp,sp,-1
     198:	0023a223          	sw	sp,4(t2)

0000019c <inst_2>:
     19c:	00400193          	addi	gp,zero,4
     1a0:	0011bc93          	sltiu	s9,gp,1
     1a4:	0193a423          	sw	s9,8(t2)

000001a8 <inst_3>:
     1a8:	00000993          	addi	s3,zero,0
     1ac:	0069b593          	sltiu	a1,s3,6
     1b0:	00b3a623          	sw	a1,12(t2)

000001b4 <inst_4>:
     1b4:	fff00713          	addi	a4,zero,-1
     1b8:	02c73793          	sltiu	a5,a4,44
     1bc:	00f3a823          	sw	a5,16(t2)

000001c0 <inst_5>:
     1c0:	00100693          	addi	a3,zero,1
     1c4:	0006b213          	sltiu	tp,a3,0
     1c8:	0043aa23          	sw	tp,20(t2)

000001cc <inst_6>:
     1cc:	00d00d13          	addi	s10,zero,13
     1d0:	00dd3193          	sltiu	gp,s10,13
     1d4:	0033ac23          	sw	gp,24(t2)

000001d8 <inst_7>:
     1d8:	aaaaba37          	lui	s4,0xaaaab
     1dc:	aaaa0a13          	addi	s4,s4,-1366 # aaaaaaaa <absimm+0x657b857b>
     1e0:	002a3e93          	sltiu	t4,s4,2
     1e4:	01d3ae23          	sw	t4,28(t2)

000001e8 <inst_8>:
     1e8:	80000db7          	lui	s11,0x80000
     1ec:	fffd8d93          	addi	s11,s11,-1 # 7fffffff <absimm+0x3ad0dad0>
     1f0:	004db813          	sltiu	a6,s11,4
     1f4:	0303a023          	sw	a6,32(t2)

000001f8 <inst_9>:
     1f8:	ff0008b7          	lui	a7,0xff000
     1fc:	fff88893          	addi	a7,a7,-1 # feffffff <immx+0x442f252f>
     200:	0088ba13          	sltiu	s4,a7,8
     204:	0343a223          	sw	s4,36(t2)

00000208 <inst_10>:
     208:	00001fb7          	lui	t6,0x1
     20c:	800f8f93          	addi	t6,t6,-2048 # 800 <inst_120+0xc>
     210:	010fb413          	sltiu	s0,t6,16
     214:	0283a423          	sw	s0,40(t2)

00000218 <inst_11>:
     218:	00c00c13          	addi	s8,zero,12
     21c:	020c3b93          	sltiu	s7,s8,32
     220:	0373a623          	sw	s7,44(t2)

00000224 <inst_12>:
     224:	55555cb7          	lui	s9,0x55555
     228:	555c8c93          	addi	s9,s9,1365 # 55555555 <absimm+0x10263026>
     22c:	040cbd13          	sltiu	s10,s9,64
     230:	03a3a823          	sw	s10,48(t2)

00000234 <inst_13>:
     234:	00080b37          	lui	s6,0x80
     238:	080b3313          	sltiu	t1,s6,128
     23c:	0263aa23          	sw	t1,52(t2)

00000240 <inst_14>:
     240:	ff700613          	addi	a2,zero,-9
     244:	10063293          	sltiu	t0,a2,256
     248:	0253ac23          	sw	t0,56(t2)

0000024c <inst_15>:
     24c:	800004b7          	lui	s1,0x80000
     250:	2004b093          	sltiu	ra,s1,512
     254:	0213ae23          	sw	ra,60(t2)

00000258 <inst_16>:
     258:	fffc0e37          	lui	t3,0xfffc0
     25c:	fffe0e13          	addi	t3,t3,-1 # fffbffff <immx+0x452b252f>
     260:	400e3513          	sltiu	a0,t3,1024
     264:	04a3a023          	sw	a0,64(t2)

00000268 <inst_17>:
     268:	00000a93          	addi	s5,zero,0
     26c:	800abf93          	sltiu	t6,s5,-2048
     270:	05f3a223          	sw	t6,68(t2)
     274:	00000013          	addi	zero,zero,0
     278:	00000013          	addi	zero,zero,0
     27c:	00000013          	addi	zero,zero,0
     280:	00009117          	auipc	sp,0x9
     284:	edc10113          	addi	sp,sp,-292 # 915c <signature_x2_0>
     288:	00000013          	addi	zero,zero,0
     28c:	00000013          	addi	zero,zero,0
     290:	00000013          	addi	zero,zero,0
     294:	00000013          	addi	zero,zero,0
     298:	00000013          	addi	zero,zero,0
     29c:	00000013          	addi	zero,zero,0

000002a0 <inst_18>:
     2a0:	00000013          	addi	zero,zero,0
     2a4:	ffe03a93          	sltiu	s5,zero,-2
     2a8:	01512023          	sw	s5,0(sp)

000002ac <inst_19>:
     2ac:	01200593          	addi	a1,zero,18
     2b0:	ffd5b713          	sltiu	a4,a1,-3
     2b4:	00e12223          	sw	a4,4(sp)

000002b8 <inst_20>:
     2b8:	00600f13          	addi	t5,zero,6
     2bc:	ffbf3693          	sltiu	a3,t5,-5
     2c0:	00d12423          	sw	a3,8(sp)

000002c4 <inst_21>:
     2c4:	40000eb7          	lui	t4,0x40000
     2c8:	ff7eb893          	sltiu	a7,t4,-9
     2cc:	01112623          	sw	a7,12(sp)

000002d0 <inst_22>:
     2d0:	fbf00413          	addi	s0,zero,-65
     2d4:	fef43c13          	sltiu	s8,s0,-17
     2d8:	01812823          	sw	s8,16(sp)

000002dc <inst_23>:
     2dc:	00500093          	addi	ra,zero,5
     2e0:	fdf0bd93          	sltiu	s11,ra,-33
     2e4:	01b12a23          	sw	s11,20(sp)

000002e8 <inst_24>:
     2e8:	00300393          	addi	t2,zero,3
     2ec:	fbf3bf13          	sltiu	t5,t2,-65
     2f0:	01e12c23          	sw	t5,24(sp)

000002f4 <inst_25>:
     2f4:	000402b7          	lui	t0,0x40
     2f8:	f7f2bb13          	sltiu	s6,t0,-129
     2fc:	01612e23          	sw	s6,28(sp)

00000300 <inst_26>:
     300:	00e00793          	addi	a5,zero,14
     304:	eff7b013          	sltiu	zero,a5,-257
     308:	02012023          	sw	zero,32(sp)

0000030c <inst_27>:
     30c:	00300313          	addi	t1,zero,3
     310:	dff33393          	sltiu	t2,t1,-513
     314:	02712223          	sw	t2,36(sp)

00000318 <inst_28>:
     318:	80000937          	lui	s2,0x80000
     31c:	fff90913          	addi	s2,s2,-1 # 7fffffff <absimm+0x3ad0dad0>
     320:	bff93613          	sltiu	a2,s2,-1025
     324:	02c12423          	sw	a2,40(sp)

00000328 <inst_29>:
     328:	01000837          	lui	a6,0x1000
     32c:	7ff83913          	sltiu	s2,a6,2047
     330:	03212623          	sw	s2,44(sp)

00000334 <inst_30>:
     334:	fc000237          	lui	tp,0xfc000
     338:	fff20213          	addi	tp,tp,-1 # fbffffff <immx+0x412f252f>
     33c:	55523493          	sltiu	s1,tp,1365
     340:	02912823          	sw	s1,48(sp)

00000344 <inst_31>:
     344:	fffff537          	lui	a0,0xfffff
     348:	7ff50513          	addi	a0,a0,2047 # fffff7ff <immx+0x452f1d2f>
     34c:	aaa53993          	sltiu	s3,a0,-1366
     350:	03312a23          	sw	s3,52(sp)

00000354 <inst_32>:
     354:	00200513          	addi	a0,zero,2
     358:	02053593          	sltiu	a1,a0,32
     35c:	02b12c23          	sw	a1,56(sp)

00000360 <inst_33>:
     360:	00800513          	addi	a0,zero,8
     364:	08053593          	sltiu	a1,a0,128
     368:	02b12e23          	sw	a1,60(sp)

0000036c <inst_34>:
     36c:	02000513          	addi	a0,zero,32
     370:	80053593          	sltiu	a1,a0,-2048
     374:	04b12023          	sw	a1,64(sp)

00000378 <inst_35>:
     378:	04000513          	addi	a0,zero,64
     37c:	00253593          	sltiu	a1,a0,2
     380:	04b12223          	sw	a1,68(sp)

00000384 <inst_36>:
     384:	08000513          	addi	a0,zero,128
     388:	ff753593          	sltiu	a1,a0,-9
     38c:	04b12423          	sw	a1,72(sp)

00000390 <inst_37>:
     390:	10000513          	addi	a0,zero,256
     394:	fdf53593          	sltiu	a1,a0,-33
     398:	04b12623          	sw	a1,76(sp)

0000039c <inst_38>:
     39c:	20000513          	addi	a0,zero,512
     3a0:	ff753593          	sltiu	a1,a0,-9
     3a4:	04b12823          	sw	a1,80(sp)

000003a8 <inst_39>:
     3a8:	00001537          	lui	a0,0x1
     3ac:	02e53593          	sltiu	a1,a0,46
     3b0:	04b12a23          	sw	a1,84(sp)

000003b4 <inst_40>:
     3b4:	00002537          	lui	a0,0x2
     3b8:	02e53593          	sltiu	a1,a0,46
     3bc:	04b12c23          	sw	a1,88(sp)

000003c0 <inst_41>:
     3c0:	00004537          	lui	a0,0x4
     3c4:	00753593          	sltiu	a1,a0,7
     3c8:	04b12e23          	sw	a1,92(sp)

000003cc <inst_42>:
     3cc:	00008537          	lui	a0,0x8
     3d0:	00253593          	sltiu	a1,a0,2
     3d4:	06b12023          	sw	a1,96(sp)

000003d8 <inst_43>:
     3d8:	00010537          	lui	a0,0x10
     3dc:	00553593          	sltiu	a1,a0,5
     3e0:	06b12223          	sw	a1,100(sp)

000003e4 <inst_44>:
     3e4:	00020537          	lui	a0,0x20
     3e8:	02e53593          	sltiu	a1,a0,46
     3ec:	06b12423          	sw	a1,104(sp)

000003f0 <inst_45>:
     3f0:	00100537          	lui	a0,0x100
     3f4:	01053593          	sltiu	a1,a0,16
     3f8:	06b12623          	sw	a1,108(sp)

000003fc <inst_46>:
     3fc:	00200537          	lui	a0,0x200
     400:	00553593          	sltiu	a1,a0,5
     404:	06b12823          	sw	a1,112(sp)

00000408 <inst_47>:
     408:	00400537          	lui	a0,0x400
     40c:	fdf53593          	sltiu	a1,a0,-33
     410:	06b12a23          	sw	a1,116(sp)

00000414 <inst_48>:
     414:	00800537          	lui	a0,0x800
     418:	80053593          	sltiu	a1,a0,-2048
     41c:	06b12c23          	sw	a1,120(sp)

00000420 <inst_49>:
     420:	02000537          	lui	a0,0x2000
     424:	00853593          	sltiu	a1,a0,8
     428:	06b12e23          	sw	a1,124(sp)

0000042c <inst_50>:
     42c:	04000537          	lui	a0,0x4000
     430:	80053593          	sltiu	a1,a0,-2048
     434:	08b12023          	sw	a1,128(sp)

00000438 <inst_51>:
     438:	08000537          	lui	a0,0x8000
     43c:	00c53593          	sltiu	a1,a0,12
     440:	08b12223          	sw	a1,132(sp)

00000444 <inst_52>:
     444:	10000537          	lui	a0,0x10000
     448:	fbf53593          	sltiu	a1,a0,-65
     44c:	08b12423          	sw	a1,136(sp)

00000450 <inst_53>:
     450:	20000537          	lui	a0,0x20000
     454:	01053593          	sltiu	a1,a0,16
     458:	08b12623          	sw	a1,140(sp)

0000045c <inst_54>:
     45c:	ffe00513          	addi	a0,zero,-2
     460:	fef53593          	sltiu	a1,a0,-17
     464:	08b12823          	sw	a1,144(sp)

00000468 <inst_55>:
     468:	ffd00513          	addi	a0,zero,-3
     46c:	fff53593          	sltiu	a1,a0,-1
     470:	08b12a23          	sw	a1,148(sp)

00000474 <inst_56>:
     474:	ffb00513          	addi	a0,zero,-5
     478:	02053593          	sltiu	a1,a0,32
     47c:	08b12c23          	sw	a1,152(sp)

00000480 <inst_57>:
     480:	fef00513          	addi	a0,zero,-17
     484:	fff53593          	sltiu	a1,a0,-1
     488:	08b12e23          	sw	a1,156(sp)

0000048c <inst_58>:
     48c:	fdf00513          	addi	a0,zero,-33
     490:	eff53593          	sltiu	a1,a0,-257
     494:	0ab12023          	sw	a1,160(sp)

00000498 <inst_59>:
     498:	f7f00513          	addi	a0,zero,-129
     49c:	01053593          	sltiu	a1,a0,16
     4a0:	0ab12223          	sw	a1,164(sp)

000004a4 <inst_60>:
     4a4:	eff00513          	addi	a0,zero,-257
     4a8:	00453593          	sltiu	a1,a0,4
     4ac:	0ab12423          	sw	a1,168(sp)

000004b0 <inst_61>:
     4b0:	dff00513          	addi	a0,zero,-513
     4b4:	02d53593          	sltiu	a1,a0,45
     4b8:	0ab12623          	sw	a1,172(sp)

000004bc <inst_62>:
     4bc:	bff00513          	addi	a0,zero,-1025
     4c0:	00f53593          	sltiu	a1,a0,15
     4c4:	0ab12823          	sw	a1,176(sp)

000004c8 <inst_63>:
     4c8:	fffff537          	lui	a0,0xfffff
     4cc:	fff50513          	addi	a0,a0,-1 # ffffefff <immx+0x452f152f>
     4d0:	02e53593          	sltiu	a1,a0,46
     4d4:	0ab12a23          	sw	a1,180(sp)

000004d8 <inst_64>:
     4d8:	ffffe537          	lui	a0,0xffffe
     4dc:	fff50513          	addi	a0,a0,-1 # ffffdfff <immx+0x452f052f>
     4e0:	00d53593          	sltiu	a1,a0,13
     4e4:	0ab12c23          	sw	a1,184(sp)

000004e8 <inst_65>:
     4e8:	ffffc537          	lui	a0,0xffffc
     4ec:	fff50513          	addi	a0,a0,-1 # ffffbfff <immx+0x452ee52f>
     4f0:	33353593          	sltiu	a1,a0,819
     4f4:	0ab12e23          	sw	a1,188(sp)

000004f8 <inst_66>:
     4f8:	ffff8537          	lui	a0,0xffff8
     4fc:	fff50513          	addi	a0,a0,-1 # ffff7fff <immx+0x452ea52f>
     500:	00153593          	sltiu	a1,a0,1
     504:	0cb12023          	sw	a1,192(sp)

00000508 <inst_67>:
     508:	ffff0537          	lui	a0,0xffff0
     50c:	fff50513          	addi	a0,a0,-1 # fffeffff <immx+0x452e252f>
     510:	04053593          	sltiu	a1,a0,64
     514:	0cb12223          	sw	a1,196(sp)

00000518 <inst_68>:
     518:	fffe0537          	lui	a0,0xfffe0
     51c:	fff50513          	addi	a0,a0,-1 # fffdffff <immx+0x452d252f>
     520:	00553593          	sltiu	a1,a0,5
     524:	0cb12423          	sw	a1,200(sp)

00000528 <inst_69>:
     528:	fff80537          	lui	a0,0xfff80
     52c:	fff50513          	addi	a0,a0,-1 # fff7ffff <immx+0x4527252f>
     530:	00453593          	sltiu	a1,a0,4
     534:	0cb12623          	sw	a1,204(sp)

00000538 <inst_70>:
     538:	fff00537          	lui	a0,0xfff00
     53c:	fff50513          	addi	a0,a0,-1 # ffefffff <immx+0x451f252f>
     540:	55553593          	sltiu	a1,a0,1365
     544:	0cb12823          	sw	a1,208(sp)

00000548 <inst_71>:
     548:	ffe00537          	lui	a0,0xffe00
     54c:	fff50513          	addi	a0,a0,-1 # ffdfffff <immx+0x450f252f>
     550:	00253593          	sltiu	a1,a0,2
     554:	0cb12a23          	sw	a1,212(sp)

00000558 <inst_72>:
     558:	ffc00537          	lui	a0,0xffc00
     55c:	fff50513          	addi	a0,a0,-1 # ffbfffff <immx+0x44ef252f>
     560:	55653593          	sltiu	a1,a0,1366
     564:	0cb12c23          	sw	a1,216(sp)

00000568 <inst_73>:
     568:	ff800537          	lui	a0,0xff800
     56c:	fff50513          	addi	a0,a0,-1 # ff7fffff <immx+0x44af252f>
     570:	ffe53593          	sltiu	a1,a0,-2
     574:	0cb12e23          	sw	a1,220(sp)

00000578 <inst_74>:
     578:	fe000537          	lui	a0,0xfe000
     57c:	fff50513          	addi	a0,a0,-1 # fdffffff <immx+0x432f252f>
     580:	00d53593          	sltiu	a1,a0,13
     584:	0eb12023          	sw	a1,224(sp)

00000588 <inst_75>:
     588:	f8000537          	lui	a0,0xf8000
     58c:	fff50513          	addi	a0,a0,-1 # f7ffffff <immx+0x3d2f252f>
     590:	80053593          	sltiu	a1,a0,-2048
     594:	0eb12223          	sw	a1,228(sp)

00000598 <inst_76>:
     598:	f0000537          	lui	a0,0xf0000
     59c:	fff50513          	addi	a0,a0,-1 # efffffff <immx+0x352f252f>
     5a0:	00653593          	sltiu	a1,a0,6
     5a4:	0eb12423          	sw	a1,232(sp)

000005a8 <inst_77>:
     5a8:	e0000537          	lui	a0,0xe0000
     5ac:	fff50513          	addi	a0,a0,-1 # dfffffff <immx+0x252f252f>
     5b0:	04053593          	sltiu	a1,a0,64
     5b4:	0eb12623          	sw	a1,236(sp)

000005b8 <inst_78>:
     5b8:	c0000537          	lui	a0,0xc0000
     5bc:	fff50513          	addi	a0,a0,-1 # bfffffff <immx+0x52f252f>
     5c0:	00653593          	sltiu	a1,a0,6
     5c4:	0eb12823          	sw	a1,240(sp)

000005c8 <inst_79>:
     5c8:	00300513          	addi	a0,zero,3
     5cc:	00353593          	sltiu	a1,a0,3
     5d0:	0eb12a23          	sw	a1,244(sp)

000005d4 <inst_80>:
     5d4:	00300513          	addi	a0,zero,3
     5d8:	55553593          	sltiu	a1,a0,1365
     5dc:	0eb12c23          	sw	a1,248(sp)

000005e0 <inst_81>:
     5e0:	00300513          	addi	a0,zero,3
     5e4:	aaa53593          	sltiu	a1,a0,-1366
     5e8:	0eb12e23          	sw	a1,252(sp)

000005ec <inst_82>:
     5ec:	00300513          	addi	a0,zero,3
     5f0:	00553593          	sltiu	a1,a0,5
     5f4:	10b12023          	sw	a1,256(sp)

000005f8 <inst_83>:
     5f8:	00300513          	addi	a0,zero,3
     5fc:	33353593          	sltiu	a1,a0,819
     600:	10b12223          	sw	a1,260(sp)

00000604 <inst_84>:
     604:	00300513          	addi	a0,zero,3
     608:	66653593          	sltiu	a1,a0,1638
     60c:	10b12423          	sw	a1,264(sp)

00000610 <inst_85>:
     610:	00300513          	addi	a0,zero,3
     614:	02d53593          	sltiu	a1,a0,45
     618:	10b12623          	sw	a1,268(sp)

0000061c <inst_86>:
     61c:	00300513          	addi	a0,zero,3
     620:	00053593          	sltiu	a1,a0,0
     624:	10b12823          	sw	a1,272(sp)

00000628 <inst_87>:
     628:	00300513          	addi	a0,zero,3
     62c:	03f53593          	sltiu	a1,a0,63
     630:	10b12a23          	sw	a1,276(sp)

00000634 <inst_88>:
     634:	00300513          	addi	a0,zero,3
     638:	00253593          	sltiu	a1,a0,2
     63c:	10b12c23          	sw	a1,280(sp)

00000640 <inst_89>:
     640:	00300513          	addi	a0,zero,3
     644:	55453593          	sltiu	a1,a0,1364
     648:	10b12e23          	sw	a1,284(sp)

0000064c <inst_90>:
     64c:	00300513          	addi	a0,zero,3
     650:	aa953593          	sltiu	a1,a0,-1367
     654:	12b12023          	sw	a1,288(sp)

00000658 <inst_91>:
     658:	00300513          	addi	a0,zero,3
     65c:	00453593          	sltiu	a1,a0,4
     660:	12b12223          	sw	a1,292(sp)

00000664 <inst_92>:
     664:	00300513          	addi	a0,zero,3
     668:	33253593          	sltiu	a1,a0,818
     66c:	12b12423          	sw	a1,296(sp)

00000670 <inst_93>:
     670:	00300513          	addi	a0,zero,3
     674:	66553593          	sltiu	a1,a0,1637
     678:	12b12623          	sw	a1,300(sp)

0000067c <inst_94>:
     67c:	00300513          	addi	a0,zero,3
     680:	02c53593          	sltiu	a1,a0,44
     684:	12b12823          	sw	a1,304(sp)

00000688 <inst_95>:
     688:	00300513          	addi	a0,zero,3
     68c:	03e53593          	sltiu	a1,a0,62
     690:	12b12a23          	sw	a1,308(sp)

00000694 <inst_96>:
     694:	00300513          	addi	a0,zero,3
     698:	55653593          	sltiu	a1,a0,1366
     69c:	12b12c23          	sw	a1,312(sp)

000006a0 <inst_97>:
     6a0:	00300513          	addi	a0,zero,3
     6a4:	aab53593          	sltiu	a1,a0,-1365
     6a8:	12b12e23          	sw	a1,316(sp)

000006ac <inst_98>:
     6ac:	00300513          	addi	a0,zero,3
     6b0:	00653593          	sltiu	a1,a0,6
     6b4:	14b12023          	sw	a1,320(sp)

000006b8 <inst_99>:
     6b8:	00300513          	addi	a0,zero,3
     6bc:	33453593          	sltiu	a1,a0,820
     6c0:	14b12223          	sw	a1,324(sp)

000006c4 <inst_100>:
     6c4:	00300513          	addi	a0,zero,3
     6c8:	66753593          	sltiu	a1,a0,1639
     6cc:	14b12423          	sw	a1,328(sp)

000006d0 <inst_101>:
     6d0:	00300513          	addi	a0,zero,3
     6d4:	02e53593          	sltiu	a1,a0,46
     6d8:	14b12623          	sw	a1,332(sp)

000006dc <inst_102>:
     6dc:	00300513          	addi	a0,zero,3
     6e0:	00153593          	sltiu	a1,a0,1
     6e4:	14b12823          	sw	a1,336(sp)

000006e8 <inst_103>:
     6e8:	00300513          	addi	a0,zero,3
     6ec:	04053593          	sltiu	a1,a0,64
     6f0:	14b12a23          	sw	a1,340(sp)

000006f4 <inst_104>:
     6f4:	55555537          	lui	a0,0x55555
     6f8:	55550513          	addi	a0,a0,1365 # 55555555 <absimm+0x10263026>
     6fc:	00353593          	sltiu	a1,a0,3
     700:	14b12c23          	sw	a1,344(sp)

00000704 <inst_105>:
     704:	55555537          	lui	a0,0x55555
     708:	55550513          	addi	a0,a0,1365 # 55555555 <absimm+0x10263026>
     70c:	55553593          	sltiu	a1,a0,1365
     710:	14b12e23          	sw	a1,348(sp)

00000714 <inst_106>:
     714:	55555537          	lui	a0,0x55555
     718:	55550513          	addi	a0,a0,1365 # 55555555 <absimm+0x10263026>
     71c:	aaa53593          	sltiu	a1,a0,-1366
     720:	16b12023          	sw	a1,352(sp)

00000724 <inst_107>:
     724:	55555537          	lui	a0,0x55555
     728:	55550513          	addi	a0,a0,1365 # 55555555 <absimm+0x10263026>
     72c:	00553593          	sltiu	a1,a0,5
     730:	16b12223          	sw	a1,356(sp)

00000734 <inst_108>:
     734:	55555537          	lui	a0,0x55555
     738:	55550513          	addi	a0,a0,1365 # 55555555 <absimm+0x10263026>
     73c:	33353593          	sltiu	a1,a0,819
     740:	16b12423          	sw	a1,360(sp)

00000744 <inst_109>:
     744:	55555537          	lui	a0,0x55555
     748:	55550513          	addi	a0,a0,1365 # 55555555 <absimm+0x10263026>
     74c:	66653593          	sltiu	a1,a0,1638
     750:	16b12623          	sw	a1,364(sp)

00000754 <inst_110>:
     754:	55555537          	lui	a0,0x55555
     758:	55550513          	addi	a0,a0,1365 # 55555555 <absimm+0x10263026>
     75c:	02d53593          	sltiu	a1,a0,45
     760:	16b12823          	sw	a1,368(sp)

00000764 <inst_111>:
     764:	55555537          	lui	a0,0x55555
     768:	55550513          	addi	a0,a0,1365 # 55555555 <absimm+0x10263026>
     76c:	00053593          	sltiu	a1,a0,0
     770:	16b12a23          	sw	a1,372(sp)

00000774 <inst_112>:
     774:	55555537          	lui	a0,0x55555
     778:	55550513          	addi	a0,a0,1365 # 55555555 <absimm+0x10263026>
     77c:	03f53593          	sltiu	a1,a0,63
     780:	16b12c23          	sw	a1,376(sp)

00000784 <inst_113>:
     784:	55555537          	lui	a0,0x55555
     788:	55550513          	addi	a0,a0,1365 # 55555555 <absimm+0x10263026>
     78c:	00253593          	sltiu	a1,a0,2
     790:	16b12e23          	sw	a1,380(sp)

00000794 <inst_114>:
     794:	55555537          	lui	a0,0x55555
     798:	55550513          	addi	a0,a0,1365 # 55555555 <absimm+0x10263026>
     79c:	55453593          	sltiu	a1,a0,1364
     7a0:	18b12023          	sw	a1,384(sp)

000007a4 <inst_115>:
     7a4:	55555537          	lui	a0,0x55555
     7a8:	55550513          	addi	a0,a0,1365 # 55555555 <absimm+0x10263026>
     7ac:	aa953593          	sltiu	a1,a0,-1367
     7b0:	18b12223          	sw	a1,388(sp)

000007b4 <inst_116>:
     7b4:	55555537          	lui	a0,0x55555
     7b8:	55550513          	addi	a0,a0,1365 # 55555555 <absimm+0x10263026>
     7bc:	00453593          	sltiu	a1,a0,4
     7c0:	18b12423          	sw	a1,392(sp)

000007c4 <inst_117>:
     7c4:	55555537          	lui	a0,0x55555
     7c8:	55550513          	addi	a0,a0,1365 # 55555555 <absimm+0x10263026>
     7cc:	33253593          	sltiu	a1,a0,818
     7d0:	18b12623          	sw	a1,396(sp)

000007d4 <inst_118>:
     7d4:	55555537          	lui	a0,0x55555
     7d8:	55550513          	addi	a0,a0,1365 # 55555555 <absimm+0x10263026>
     7dc:	66553593          	sltiu	a1,a0,1637
     7e0:	18b12823          	sw	a1,400(sp)

000007e4 <inst_119>:
     7e4:	55555537          	lui	a0,0x55555
     7e8:	55550513          	addi	a0,a0,1365 # 55555555 <absimm+0x10263026>
     7ec:	02c53593          	sltiu	a1,a0,44
     7f0:	18b12a23          	sw	a1,404(sp)

000007f4 <inst_120>:
     7f4:	55555537          	lui	a0,0x55555
     7f8:	55550513          	addi	a0,a0,1365 # 55555555 <absimm+0x10263026>
     7fc:	03e53593          	sltiu	a1,a0,62
     800:	18b12c23          	sw	a1,408(sp)

00000804 <inst_121>:
     804:	55555537          	lui	a0,0x55555
     808:	55550513          	addi	a0,a0,1365 # 55555555 <absimm+0x10263026>
     80c:	55653593          	sltiu	a1,a0,1366
     810:	18b12e23          	sw	a1,412(sp)

00000814 <inst_122>:
     814:	55555537          	lui	a0,0x55555
     818:	55550513          	addi	a0,a0,1365 # 55555555 <absimm+0x10263026>
     81c:	aab53593          	sltiu	a1,a0,-1365
     820:	1ab12023          	sw	a1,416(sp)

00000824 <inst_123>:
     824:	55555537          	lui	a0,0x55555
     828:	55550513          	addi	a0,a0,1365 # 55555555 <absimm+0x10263026>
     82c:	00653593          	sltiu	a1,a0,6
     830:	1ab12223          	sw	a1,420(sp)

00000834 <inst_124>:
     834:	55555537          	lui	a0,0x55555
     838:	55550513          	addi	a0,a0,1365 # 55555555 <absimm+0x10263026>
     83c:	33453593          	sltiu	a1,a0,820
     840:	1ab12423          	sw	a1,424(sp)

00000844 <inst_125>:
     844:	55555537          	lui	a0,0x55555
     848:	55550513          	addi	a0,a0,1365 # 55555555 <absimm+0x10263026>
     84c:	66753593          	sltiu	a1,a0,1639
     850:	1ab12623          	sw	a1,428(sp)

00000854 <inst_126>:
     854:	55555537          	lui	a0,0x55555
     858:	55550513          	addi	a0,a0,1365 # 55555555 <absimm+0x10263026>
     85c:	02e53593          	sltiu	a1,a0,46
     860:	1ab12823          	sw	a1,432(sp)

00000864 <inst_127>:
     864:	55555537          	lui	a0,0x55555
     868:	55550513          	addi	a0,a0,1365 # 55555555 <absimm+0x10263026>
     86c:	00153593          	sltiu	a1,a0,1
     870:	1ab12a23          	sw	a1,436(sp)

00000874 <inst_128>:
     874:	aaaab537          	lui	a0,0xaaaab
     878:	aaa50513          	addi	a0,a0,-1366 # aaaaaaaa <absimm+0x657b857b>
     87c:	00353593          	sltiu	a1,a0,3
     880:	1ab12c23          	sw	a1,440(sp)

00000884 <inst_129>:
     884:	aaaab537          	lui	a0,0xaaaab
     888:	aaa50513          	addi	a0,a0,-1366 # aaaaaaaa <absimm+0x657b857b>
     88c:	55553593          	sltiu	a1,a0,1365
     890:	1ab12e23          	sw	a1,444(sp)

00000894 <inst_130>:
     894:	aaaab537          	lui	a0,0xaaaab
     898:	aaa50513          	addi	a0,a0,-1366 # aaaaaaaa <absimm+0x657b857b>
     89c:	aaa53593          	sltiu	a1,a0,-1366
     8a0:	1cb12023          	sw	a1,448(sp)

000008a4 <inst_131>:
     8a4:	aaaab537          	lui	a0,0xaaaab
     8a8:	aaa50513          	addi	a0,a0,-1366 # aaaaaaaa <absimm+0x657b857b>
     8ac:	00553593          	sltiu	a1,a0,5
     8b0:	1cb12223          	sw	a1,452(sp)

000008b4 <inst_132>:
     8b4:	aaaab537          	lui	a0,0xaaaab
     8b8:	aaa50513          	addi	a0,a0,-1366 # aaaaaaaa <absimm+0x657b857b>
     8bc:	33353593          	sltiu	a1,a0,819
     8c0:	1cb12423          	sw	a1,456(sp)

000008c4 <inst_133>:
     8c4:	aaaab537          	lui	a0,0xaaaab
     8c8:	aaa50513          	addi	a0,a0,-1366 # aaaaaaaa <absimm+0x657b857b>
     8cc:	66653593          	sltiu	a1,a0,1638
     8d0:	1cb12623          	sw	a1,460(sp)

000008d4 <inst_134>:
     8d4:	aaaab537          	lui	a0,0xaaaab
     8d8:	aaa50513          	addi	a0,a0,-1366 # aaaaaaaa <absimm+0x657b857b>
     8dc:	02d53593          	sltiu	a1,a0,45
     8e0:	1cb12823          	sw	a1,464(sp)

000008e4 <inst_135>:
     8e4:	aaaab537          	lui	a0,0xaaaab
     8e8:	aaa50513          	addi	a0,a0,-1366 # aaaaaaaa <absimm+0x657b857b>
     8ec:	00053593          	sltiu	a1,a0,0
     8f0:	1cb12a23          	sw	a1,468(sp)

000008f4 <inst_136>:
     8f4:	aaaab537          	lui	a0,0xaaaab
     8f8:	aaa50513          	addi	a0,a0,-1366 # aaaaaaaa <absimm+0x657b857b>
     8fc:	03f53593          	sltiu	a1,a0,63
     900:	1cb12c23          	sw	a1,472(sp)

00000904 <inst_137>:
     904:	aaaab537          	lui	a0,0xaaaab
     908:	aaa50513          	addi	a0,a0,-1366 # aaaaaaaa <absimm+0x657b857b>
     90c:	55453593          	sltiu	a1,a0,1364
     910:	1cb12e23          	sw	a1,476(sp)

00000914 <inst_138>:
     914:	aaaab537          	lui	a0,0xaaaab
     918:	aaa50513          	addi	a0,a0,-1366 # aaaaaaaa <absimm+0x657b857b>
     91c:	aa953593          	sltiu	a1,a0,-1367
     920:	1eb12023          	sw	a1,480(sp)

00000924 <inst_139>:
     924:	aaaab537          	lui	a0,0xaaaab
     928:	aaa50513          	addi	a0,a0,-1366 # aaaaaaaa <absimm+0x657b857b>
     92c:	00453593          	sltiu	a1,a0,4
     930:	1eb12223          	sw	a1,484(sp)

00000934 <inst_140>:
     934:	aaaab537          	lui	a0,0xaaaab
     938:	aaa50513          	addi	a0,a0,-1366 # aaaaaaaa <absimm+0x657b857b>
     93c:	33253593          	sltiu	a1,a0,818
     940:	1eb12423          	sw	a1,488(sp)

00000944 <inst_141>:
     944:	aaaab537          	lui	a0,0xaaaab
     948:	aaa50513          	addi	a0,a0,-1366 # aaaaaaaa <absimm+0x657b857b>
     94c:	66553593          	sltiu	a1,a0,1637
     950:	1eb12623          	sw	a1,492(sp)

00000954 <inst_142>:
     954:	aaaab537          	lui	a0,0xaaaab
     958:	aaa50513          	addi	a0,a0,-1366 # aaaaaaaa <absimm+0x657b857b>
     95c:	02c53593          	sltiu	a1,a0,44
     960:	1eb12823          	sw	a1,496(sp)

00000964 <inst_143>:
     964:	aaaab537          	lui	a0,0xaaaab
     968:	aaa50513          	addi	a0,a0,-1366 # aaaaaaaa <absimm+0x657b857b>
     96c:	03e53593          	sltiu	a1,a0,62
     970:	1eb12a23          	sw	a1,500(sp)

00000974 <inst_144>:
     974:	aaaab537          	lui	a0,0xaaaab
     978:	aaa50513          	addi	a0,a0,-1366 # aaaaaaaa <absimm+0x657b857b>
     97c:	55653593          	sltiu	a1,a0,1366
     980:	1eb12c23          	sw	a1,504(sp)

00000984 <inst_145>:
     984:	aaaab537          	lui	a0,0xaaaab
     988:	aaa50513          	addi	a0,a0,-1366 # aaaaaaaa <absimm+0x657b857b>
     98c:	aab53593          	sltiu	a1,a0,-1365
     990:	1eb12e23          	sw	a1,508(sp)

00000994 <inst_146>:
     994:	aaaab537          	lui	a0,0xaaaab
     998:	aaa50513          	addi	a0,a0,-1366 # aaaaaaaa <absimm+0x657b857b>
     99c:	00653593          	sltiu	a1,a0,6
     9a0:	20b12023          	sw	a1,512(sp)

000009a4 <inst_147>:
     9a4:	aaaab537          	lui	a0,0xaaaab
     9a8:	aaa50513          	addi	a0,a0,-1366 # aaaaaaaa <absimm+0x657b857b>
     9ac:	33453593          	sltiu	a1,a0,820
     9b0:	20b12223          	sw	a1,516(sp)

000009b4 <inst_148>:
     9b4:	aaaab537          	lui	a0,0xaaaab
     9b8:	aaa50513          	addi	a0,a0,-1366 # aaaaaaaa <absimm+0x657b857b>
     9bc:	66753593          	sltiu	a1,a0,1639
     9c0:	20b12423          	sw	a1,520(sp)

000009c4 <inst_149>:
     9c4:	aaaab537          	lui	a0,0xaaaab
     9c8:	aaa50513          	addi	a0,a0,-1366 # aaaaaaaa <absimm+0x657b857b>
     9cc:	02e53593          	sltiu	a1,a0,46
     9d0:	20b12623          	sw	a1,524(sp)

000009d4 <inst_150>:
     9d4:	aaaab537          	lui	a0,0xaaaab
     9d8:	aaa50513          	addi	a0,a0,-1366 # aaaaaaaa <absimm+0x657b857b>
     9dc:	00153593          	sltiu	a1,a0,1
     9e0:	20b12823          	sw	a1,528(sp)

000009e4 <inst_151>:
     9e4:	aaaab537          	lui	a0,0xaaaab
     9e8:	aaa50513          	addi	a0,a0,-1366 # aaaaaaaa <absimm+0x657b857b>
     9ec:	04053593          	sltiu	a1,a0,64
     9f0:	20b12a23          	sw	a1,532(sp)

000009f4 <inst_152>:
     9f4:	00500513          	addi	a0,zero,5
     9f8:	00353593          	sltiu	a1,a0,3
     9fc:	20b12c23          	sw	a1,536(sp)

00000a00 <inst_153>:
     a00:	00500513          	addi	a0,zero,5
     a04:	55553593          	sltiu	a1,a0,1365
     a08:	20b12e23          	sw	a1,540(sp)

00000a0c <inst_154>:
     a0c:	00500513          	addi	a0,zero,5
     a10:	aaa53593          	sltiu	a1,a0,-1366
     a14:	22b12023          	sw	a1,544(sp)

00000a18 <inst_155>:
     a18:	00500513          	addi	a0,zero,5
     a1c:	00553593          	sltiu	a1,a0,5
     a20:	22b12223          	sw	a1,548(sp)

00000a24 <inst_156>:
     a24:	00500513          	addi	a0,zero,5
     a28:	33353593          	sltiu	a1,a0,819
     a2c:	22b12423          	sw	a1,552(sp)

00000a30 <inst_157>:
     a30:	00500513          	addi	a0,zero,5
     a34:	66653593          	sltiu	a1,a0,1638
     a38:	22b12623          	sw	a1,556(sp)

00000a3c <inst_158>:
     a3c:	00500513          	addi	a0,zero,5
     a40:	02d53593          	sltiu	a1,a0,45
     a44:	22b12823          	sw	a1,560(sp)

00000a48 <inst_159>:
     a48:	00500513          	addi	a0,zero,5
     a4c:	00053593          	sltiu	a1,a0,0
     a50:	22b12a23          	sw	a1,564(sp)

00000a54 <inst_160>:
     a54:	00500513          	addi	a0,zero,5
     a58:	03f53593          	sltiu	a1,a0,63
     a5c:	22b12c23          	sw	a1,568(sp)

00000a60 <inst_161>:
     a60:	00500513          	addi	a0,zero,5
     a64:	00253593          	sltiu	a1,a0,2
     a68:	22b12e23          	sw	a1,572(sp)

00000a6c <inst_162>:
     a6c:	00500513          	addi	a0,zero,5
     a70:	55453593          	sltiu	a1,a0,1364
     a74:	24b12023          	sw	a1,576(sp)

00000a78 <inst_163>:
     a78:	00500513          	addi	a0,zero,5
     a7c:	aa953593          	sltiu	a1,a0,-1367
     a80:	24b12223          	sw	a1,580(sp)

00000a84 <inst_164>:
     a84:	00500513          	addi	a0,zero,5
     a88:	00453593          	sltiu	a1,a0,4
     a8c:	24b12423          	sw	a1,584(sp)

00000a90 <inst_165>:
     a90:	00500513          	addi	a0,zero,5
     a94:	33253593          	sltiu	a1,a0,818
     a98:	24b12623          	sw	a1,588(sp)

00000a9c <inst_166>:
     a9c:	00500513          	addi	a0,zero,5
     aa0:	66553593          	sltiu	a1,a0,1637
     aa4:	24b12823          	sw	a1,592(sp)

00000aa8 <inst_167>:
     aa8:	00500513          	addi	a0,zero,5
     aac:	02c53593          	sltiu	a1,a0,44
     ab0:	24b12a23          	sw	a1,596(sp)

00000ab4 <inst_168>:
     ab4:	00500513          	addi	a0,zero,5
     ab8:	03e53593          	sltiu	a1,a0,62
     abc:	24b12c23          	sw	a1,600(sp)

00000ac0 <inst_169>:
     ac0:	00500513          	addi	a0,zero,5
     ac4:	55653593          	sltiu	a1,a0,1366
     ac8:	24b12e23          	sw	a1,604(sp)

00000acc <inst_170>:
     acc:	00500513          	addi	a0,zero,5
     ad0:	aab53593          	sltiu	a1,a0,-1365
     ad4:	26b12023          	sw	a1,608(sp)

00000ad8 <inst_171>:
     ad8:	00500513          	addi	a0,zero,5
     adc:	00653593          	sltiu	a1,a0,6
     ae0:	26b12223          	sw	a1,612(sp)

00000ae4 <inst_172>:
     ae4:	00500513          	addi	a0,zero,5
     ae8:	33453593          	sltiu	a1,a0,820
     aec:	26b12423          	sw	a1,616(sp)

00000af0 <inst_173>:
     af0:	00500513          	addi	a0,zero,5
     af4:	66753593          	sltiu	a1,a0,1639
     af8:	26b12623          	sw	a1,620(sp)

00000afc <inst_174>:
     afc:	00500513          	addi	a0,zero,5
     b00:	02e53593          	sltiu	a1,a0,46
     b04:	26b12823          	sw	a1,624(sp)

00000b08 <inst_175>:
     b08:	00500513          	addi	a0,zero,5
     b0c:	00153593          	sltiu	a1,a0,1
     b10:	26b12a23          	sw	a1,628(sp)

00000b14 <inst_176>:
     b14:	00500513          	addi	a0,zero,5
     b18:	04053593          	sltiu	a1,a0,64
     b1c:	26b12c23          	sw	a1,632(sp)

00000b20 <inst_177>:
     b20:	33333537          	lui	a0,0x33333
     b24:	33350513          	addi	a0,a0,819 # 33333333 <_end+0x3332952b>
     b28:	00353593          	sltiu	a1,a0,3
     b2c:	26b12e23          	sw	a1,636(sp)

00000b30 <inst_178>:
     b30:	33333537          	lui	a0,0x33333
     b34:	33350513          	addi	a0,a0,819 # 33333333 <_end+0x3332952b>
     b38:	55553593          	sltiu	a1,a0,1365
     b3c:	28b12023          	sw	a1,640(sp)

00000b40 <inst_179>:
     b40:	33333537          	lui	a0,0x33333
     b44:	33350513          	addi	a0,a0,819 # 33333333 <_end+0x3332952b>
     b48:	aaa53593          	sltiu	a1,a0,-1366
     b4c:	28b12223          	sw	a1,644(sp)

00000b50 <inst_180>:
     b50:	33333537          	lui	a0,0x33333
     b54:	33350513          	addi	a0,a0,819 # 33333333 <_end+0x3332952b>
     b58:	00553593          	sltiu	a1,a0,5
     b5c:	28b12423          	sw	a1,648(sp)

00000b60 <inst_181>:
     b60:	33333537          	lui	a0,0x33333
     b64:	33350513          	addi	a0,a0,819 # 33333333 <_end+0x3332952b>
     b68:	33353593          	sltiu	a1,a0,819
     b6c:	28b12623          	sw	a1,652(sp)

00000b70 <inst_182>:
     b70:	33333537          	lui	a0,0x33333
     b74:	33350513          	addi	a0,a0,819 # 33333333 <_end+0x3332952b>
     b78:	66653593          	sltiu	a1,a0,1638
     b7c:	28b12823          	sw	a1,656(sp)

00000b80 <inst_183>:
     b80:	33333537          	lui	a0,0x33333
     b84:	33350513          	addi	a0,a0,819 # 33333333 <_end+0x3332952b>
     b88:	02d53593          	sltiu	a1,a0,45
     b8c:	28b12a23          	sw	a1,660(sp)

00000b90 <inst_184>:
     b90:	33333537          	lui	a0,0x33333
     b94:	33350513          	addi	a0,a0,819 # 33333333 <_end+0x3332952b>
     b98:	00053593          	sltiu	a1,a0,0
     b9c:	28b12c23          	sw	a1,664(sp)

00000ba0 <inst_185>:
     ba0:	33333537          	lui	a0,0x33333
     ba4:	33350513          	addi	a0,a0,819 # 33333333 <_end+0x3332952b>
     ba8:	03f53593          	sltiu	a1,a0,63
     bac:	28b12e23          	sw	a1,668(sp)

00000bb0 <inst_186>:
     bb0:	33333537          	lui	a0,0x33333
     bb4:	33350513          	addi	a0,a0,819 # 33333333 <_end+0x3332952b>
     bb8:	00253593          	sltiu	a1,a0,2
     bbc:	2ab12023          	sw	a1,672(sp)

00000bc0 <inst_187>:
     bc0:	33333537          	lui	a0,0x33333
     bc4:	33350513          	addi	a0,a0,819 # 33333333 <_end+0x3332952b>
     bc8:	55453593          	sltiu	a1,a0,1364
     bcc:	2ab12223          	sw	a1,676(sp)

00000bd0 <inst_188>:
     bd0:	33333537          	lui	a0,0x33333
     bd4:	33350513          	addi	a0,a0,819 # 33333333 <_end+0x3332952b>
     bd8:	aa953593          	sltiu	a1,a0,-1367
     bdc:	2ab12423          	sw	a1,680(sp)

00000be0 <inst_189>:
     be0:	33333537          	lui	a0,0x33333
     be4:	33350513          	addi	a0,a0,819 # 33333333 <_end+0x3332952b>
     be8:	00453593          	sltiu	a1,a0,4
     bec:	2ab12623          	sw	a1,684(sp)

00000bf0 <inst_190>:
     bf0:	33333537          	lui	a0,0x33333
     bf4:	33350513          	addi	a0,a0,819 # 33333333 <_end+0x3332952b>
     bf8:	33253593          	sltiu	a1,a0,818
     bfc:	2ab12823          	sw	a1,688(sp)

00000c00 <inst_191>:
     c00:	33333537          	lui	a0,0x33333
     c04:	33350513          	addi	a0,a0,819 # 33333333 <_end+0x3332952b>
     c08:	66553593          	sltiu	a1,a0,1637
     c0c:	2ab12a23          	sw	a1,692(sp)

00000c10 <inst_192>:
     c10:	33333537          	lui	a0,0x33333
     c14:	33350513          	addi	a0,a0,819 # 33333333 <_end+0x3332952b>
     c18:	02c53593          	sltiu	a1,a0,44
     c1c:	2ab12c23          	sw	a1,696(sp)

00000c20 <inst_193>:
     c20:	33333537          	lui	a0,0x33333
     c24:	33350513          	addi	a0,a0,819 # 33333333 <_end+0x3332952b>
     c28:	03e53593          	sltiu	a1,a0,62
     c2c:	2ab12e23          	sw	a1,700(sp)

00000c30 <inst_194>:
     c30:	33333537          	lui	a0,0x33333
     c34:	33350513          	addi	a0,a0,819 # 33333333 <_end+0x3332952b>
     c38:	55653593          	sltiu	a1,a0,1366
     c3c:	2cb12023          	sw	a1,704(sp)

00000c40 <inst_195>:
     c40:	33333537          	lui	a0,0x33333
     c44:	33350513          	addi	a0,a0,819 # 33333333 <_end+0x3332952b>
     c48:	aab53593          	sltiu	a1,a0,-1365
     c4c:	2cb12223          	sw	a1,708(sp)

00000c50 <inst_196>:
     c50:	33333537          	lui	a0,0x33333
     c54:	33350513          	addi	a0,a0,819 # 33333333 <_end+0x3332952b>
     c58:	00653593          	sltiu	a1,a0,6
     c5c:	2cb12423          	sw	a1,712(sp)

00000c60 <inst_197>:
     c60:	33333537          	lui	a0,0x33333
     c64:	33350513          	addi	a0,a0,819 # 33333333 <_end+0x3332952b>
     c68:	33453593          	sltiu	a1,a0,820
     c6c:	2cb12623          	sw	a1,716(sp)

00000c70 <inst_198>:
     c70:	33333537          	lui	a0,0x33333
     c74:	33350513          	addi	a0,a0,819 # 33333333 <_end+0x3332952b>
     c78:	66753593          	sltiu	a1,a0,1639
     c7c:	2cb12823          	sw	a1,720(sp)

00000c80 <inst_199>:
     c80:	33333537          	lui	a0,0x33333
     c84:	33350513          	addi	a0,a0,819 # 33333333 <_end+0x3332952b>
     c88:	02e53593          	sltiu	a1,a0,46
     c8c:	2cb12a23          	sw	a1,724(sp)

00000c90 <inst_200>:
     c90:	33333537          	lui	a0,0x33333
     c94:	33350513          	addi	a0,a0,819 # 33333333 <_end+0x3332952b>
     c98:	00153593          	sltiu	a1,a0,1
     c9c:	2cb12c23          	sw	a1,728(sp)

00000ca0 <inst_201>:
     ca0:	33333537          	lui	a0,0x33333
     ca4:	33350513          	addi	a0,a0,819 # 33333333 <_end+0x3332952b>
     ca8:	04053593          	sltiu	a1,a0,64
     cac:	2cb12e23          	sw	a1,732(sp)

00000cb0 <inst_202>:
     cb0:	66666537          	lui	a0,0x66666
     cb4:	66650513          	addi	a0,a0,1638 # 66666666 <absimm+0x21374137>
     cb8:	00353593          	sltiu	a1,a0,3
     cbc:	2eb12023          	sw	a1,736(sp)

00000cc0 <inst_203>:
     cc0:	66666537          	lui	a0,0x66666
     cc4:	66650513          	addi	a0,a0,1638 # 66666666 <absimm+0x21374137>
     cc8:	55553593          	sltiu	a1,a0,1365
     ccc:	2eb12223          	sw	a1,740(sp)

00000cd0 <inst_204>:
     cd0:	66666537          	lui	a0,0x66666
     cd4:	66650513          	addi	a0,a0,1638 # 66666666 <absimm+0x21374137>
     cd8:	aaa53593          	sltiu	a1,a0,-1366
     cdc:	2eb12423          	sw	a1,744(sp)

00000ce0 <inst_205>:
     ce0:	66666537          	lui	a0,0x66666
     ce4:	66650513          	addi	a0,a0,1638 # 66666666 <absimm+0x21374137>
     ce8:	00553593          	sltiu	a1,a0,5
     cec:	2eb12623          	sw	a1,748(sp)

00000cf0 <inst_206>:
     cf0:	66666537          	lui	a0,0x66666
     cf4:	66650513          	addi	a0,a0,1638 # 66666666 <absimm+0x21374137>
     cf8:	33353593          	sltiu	a1,a0,819
     cfc:	2eb12823          	sw	a1,752(sp)

00000d00 <inst_207>:
     d00:	66666537          	lui	a0,0x66666
     d04:	66650513          	addi	a0,a0,1638 # 66666666 <absimm+0x21374137>
     d08:	66653593          	sltiu	a1,a0,1638
     d0c:	2eb12a23          	sw	a1,756(sp)

00000d10 <inst_208>:
     d10:	66666537          	lui	a0,0x66666
     d14:	66650513          	addi	a0,a0,1638 # 66666666 <absimm+0x21374137>
     d18:	02d53593          	sltiu	a1,a0,45
     d1c:	2eb12c23          	sw	a1,760(sp)

00000d20 <inst_209>:
     d20:	66666537          	lui	a0,0x66666
     d24:	66650513          	addi	a0,a0,1638 # 66666666 <absimm+0x21374137>
     d28:	00053593          	sltiu	a1,a0,0
     d2c:	2eb12e23          	sw	a1,764(sp)

00000d30 <inst_210>:
     d30:	66666537          	lui	a0,0x66666
     d34:	66650513          	addi	a0,a0,1638 # 66666666 <absimm+0x21374137>
     d38:	03f53593          	sltiu	a1,a0,63
     d3c:	30b12023          	sw	a1,768(sp)

00000d40 <inst_211>:
     d40:	66666537          	lui	a0,0x66666
     d44:	66650513          	addi	a0,a0,1638 # 66666666 <absimm+0x21374137>
     d48:	00253593          	sltiu	a1,a0,2
     d4c:	30b12223          	sw	a1,772(sp)

00000d50 <inst_212>:
     d50:	66666537          	lui	a0,0x66666
     d54:	66650513          	addi	a0,a0,1638 # 66666666 <absimm+0x21374137>
     d58:	55453593          	sltiu	a1,a0,1364
     d5c:	30b12423          	sw	a1,776(sp)

00000d60 <inst_213>:
     d60:	66666537          	lui	a0,0x66666
     d64:	66650513          	addi	a0,a0,1638 # 66666666 <absimm+0x21374137>
     d68:	aa953593          	sltiu	a1,a0,-1367
     d6c:	30b12623          	sw	a1,780(sp)

00000d70 <inst_214>:
     d70:	66666537          	lui	a0,0x66666
     d74:	66650513          	addi	a0,a0,1638 # 66666666 <absimm+0x21374137>
     d78:	00453593          	sltiu	a1,a0,4
     d7c:	30b12823          	sw	a1,784(sp)

00000d80 <inst_215>:
     d80:	66666537          	lui	a0,0x66666
     d84:	66650513          	addi	a0,a0,1638 # 66666666 <absimm+0x21374137>
     d88:	33253593          	sltiu	a1,a0,818
     d8c:	30b12a23          	sw	a1,788(sp)

00000d90 <inst_216>:
     d90:	66666537          	lui	a0,0x66666
     d94:	66650513          	addi	a0,a0,1638 # 66666666 <absimm+0x21374137>
     d98:	66553593          	sltiu	a1,a0,1637
     d9c:	30b12c23          	sw	a1,792(sp)

00000da0 <inst_217>:
     da0:	66666537          	lui	a0,0x66666
     da4:	66650513          	addi	a0,a0,1638 # 66666666 <absimm+0x21374137>
     da8:	02c53593          	sltiu	a1,a0,44
     dac:	30b12e23          	sw	a1,796(sp)

00000db0 <inst_218>:
     db0:	66666537          	lui	a0,0x66666
     db4:	66650513          	addi	a0,a0,1638 # 66666666 <absimm+0x21374137>
     db8:	03e53593          	sltiu	a1,a0,62
     dbc:	32b12023          	sw	a1,800(sp)

00000dc0 <inst_219>:
     dc0:	66666537          	lui	a0,0x66666
     dc4:	66650513          	addi	a0,a0,1638 # 66666666 <absimm+0x21374137>
     dc8:	55653593          	sltiu	a1,a0,1366
     dcc:	32b12223          	sw	a1,804(sp)

00000dd0 <inst_220>:
     dd0:	66666537          	lui	a0,0x66666
     dd4:	66650513          	addi	a0,a0,1638 # 66666666 <absimm+0x21374137>
     dd8:	aab53593          	sltiu	a1,a0,-1365
     ddc:	32b12423          	sw	a1,808(sp)

00000de0 <inst_221>:
     de0:	66666537          	lui	a0,0x66666
     de4:	66650513          	addi	a0,a0,1638 # 66666666 <absimm+0x21374137>
     de8:	00653593          	sltiu	a1,a0,6
     dec:	32b12623          	sw	a1,812(sp)

00000df0 <inst_222>:
     df0:	66666537          	lui	a0,0x66666
     df4:	66650513          	addi	a0,a0,1638 # 66666666 <absimm+0x21374137>
     df8:	33453593          	sltiu	a1,a0,820
     dfc:	32b12823          	sw	a1,816(sp)

00000e00 <inst_223>:
     e00:	66666537          	lui	a0,0x66666
     e04:	66650513          	addi	a0,a0,1638 # 66666666 <absimm+0x21374137>
     e08:	66753593          	sltiu	a1,a0,1639
     e0c:	32b12a23          	sw	a1,820(sp)

00000e10 <inst_224>:
     e10:	66666537          	lui	a0,0x66666
     e14:	66650513          	addi	a0,a0,1638 # 66666666 <absimm+0x21374137>
     e18:	02e53593          	sltiu	a1,a0,46
     e1c:	32b12c23          	sw	a1,824(sp)

00000e20 <inst_225>:
     e20:	66666537          	lui	a0,0x66666
     e24:	66650513          	addi	a0,a0,1638 # 66666666 <absimm+0x21374137>
     e28:	00153593          	sltiu	a1,a0,1
     e2c:	32b12e23          	sw	a1,828(sp)

00000e30 <inst_226>:
     e30:	66666537          	lui	a0,0x66666
     e34:	66650513          	addi	a0,a0,1638 # 66666666 <absimm+0x21374137>
     e38:	04053593          	sltiu	a1,a0,64
     e3c:	34b12023          	sw	a1,832(sp)

00000e40 <inst_227>:
     e40:	0000b537          	lui	a0,0xb
     e44:	50450513          	addi	a0,a0,1284 # b504 <_end+0x16fc>
     e48:	00353593          	sltiu	a1,a0,3
     e4c:	34b12223          	sw	a1,836(sp)

00000e50 <inst_228>:
     e50:	0000b537          	lui	a0,0xb
     e54:	50450513          	addi	a0,a0,1284 # b504 <_end+0x16fc>
     e58:	55553593          	sltiu	a1,a0,1365
     e5c:	34b12423          	sw	a1,840(sp)

00000e60 <inst_229>:
     e60:	0000b537          	lui	a0,0xb
     e64:	50450513          	addi	a0,a0,1284 # b504 <_end+0x16fc>
     e68:	aaa53593          	sltiu	a1,a0,-1366
     e6c:	34b12623          	sw	a1,844(sp)

00000e70 <inst_230>:
     e70:	0000b537          	lui	a0,0xb
     e74:	50450513          	addi	a0,a0,1284 # b504 <_end+0x16fc>
     e78:	00553593          	sltiu	a1,a0,5
     e7c:	34b12823          	sw	a1,848(sp)

00000e80 <inst_231>:
     e80:	0000b537          	lui	a0,0xb
     e84:	50450513          	addi	a0,a0,1284 # b504 <_end+0x16fc>
     e88:	33353593          	sltiu	a1,a0,819
     e8c:	34b12a23          	sw	a1,852(sp)

00000e90 <inst_232>:
     e90:	0000b537          	lui	a0,0xb
     e94:	50450513          	addi	a0,a0,1284 # b504 <_end+0x16fc>
     e98:	66653593          	sltiu	a1,a0,1638
     e9c:	34b12c23          	sw	a1,856(sp)

00000ea0 <inst_233>:
     ea0:	0000b537          	lui	a0,0xb
     ea4:	50450513          	addi	a0,a0,1284 # b504 <_end+0x16fc>
     ea8:	02d53593          	sltiu	a1,a0,45
     eac:	34b12e23          	sw	a1,860(sp)

00000eb0 <inst_234>:
     eb0:	0000b537          	lui	a0,0xb
     eb4:	50450513          	addi	a0,a0,1284 # b504 <_end+0x16fc>
     eb8:	00053593          	sltiu	a1,a0,0
     ebc:	36b12023          	sw	a1,864(sp)

00000ec0 <inst_235>:
     ec0:	0000b537          	lui	a0,0xb
     ec4:	50450513          	addi	a0,a0,1284 # b504 <_end+0x16fc>
     ec8:	03f53593          	sltiu	a1,a0,63
     ecc:	36b12223          	sw	a1,868(sp)

00000ed0 <inst_236>:
     ed0:	0000b537          	lui	a0,0xb
     ed4:	50450513          	addi	a0,a0,1284 # b504 <_end+0x16fc>
     ed8:	00253593          	sltiu	a1,a0,2
     edc:	36b12423          	sw	a1,872(sp)

00000ee0 <inst_237>:
     ee0:	0000b537          	lui	a0,0xb
     ee4:	50450513          	addi	a0,a0,1284 # b504 <_end+0x16fc>
     ee8:	55453593          	sltiu	a1,a0,1364
     eec:	36b12623          	sw	a1,876(sp)

00000ef0 <inst_238>:
     ef0:	0000b537          	lui	a0,0xb
     ef4:	50450513          	addi	a0,a0,1284 # b504 <_end+0x16fc>
     ef8:	aa953593          	sltiu	a1,a0,-1367
     efc:	36b12823          	sw	a1,880(sp)

00000f00 <inst_239>:
     f00:	0000b537          	lui	a0,0xb
     f04:	50450513          	addi	a0,a0,1284 # b504 <_end+0x16fc>
     f08:	00453593          	sltiu	a1,a0,4
     f0c:	36b12a23          	sw	a1,884(sp)

00000f10 <inst_240>:
     f10:	0000b537          	lui	a0,0xb
     f14:	50450513          	addi	a0,a0,1284 # b504 <_end+0x16fc>
     f18:	33253593          	sltiu	a1,a0,818
     f1c:	36b12c23          	sw	a1,888(sp)

00000f20 <inst_241>:
     f20:	0000b537          	lui	a0,0xb
     f24:	50450513          	addi	a0,a0,1284 # b504 <_end+0x16fc>
     f28:	66553593          	sltiu	a1,a0,1637
     f2c:	36b12e23          	sw	a1,892(sp)

00000f30 <inst_242>:
     f30:	0000b537          	lui	a0,0xb
     f34:	50450513          	addi	a0,a0,1284 # b504 <_end+0x16fc>
     f38:	02c53593          	sltiu	a1,a0,44
     f3c:	38b12023          	sw	a1,896(sp)

00000f40 <inst_243>:
     f40:	0000b537          	lui	a0,0xb
     f44:	50450513          	addi	a0,a0,1284 # b504 <_end+0x16fc>
     f48:	03e53593          	sltiu	a1,a0,62
     f4c:	38b12223          	sw	a1,900(sp)

00000f50 <inst_244>:
     f50:	0000b537          	lui	a0,0xb
     f54:	50450513          	addi	a0,a0,1284 # b504 <_end+0x16fc>
     f58:	55653593          	sltiu	a1,a0,1366
     f5c:	38b12423          	sw	a1,904(sp)

00000f60 <inst_245>:
     f60:	0000b537          	lui	a0,0xb
     f64:	50450513          	addi	a0,a0,1284 # b504 <_end+0x16fc>
     f68:	aab53593          	sltiu	a1,a0,-1365
     f6c:	38b12623          	sw	a1,908(sp)

00000f70 <inst_246>:
     f70:	0000b537          	lui	a0,0xb
     f74:	50450513          	addi	a0,a0,1284 # b504 <_end+0x16fc>
     f78:	00653593          	sltiu	a1,a0,6
     f7c:	38b12823          	sw	a1,912(sp)

00000f80 <inst_247>:
     f80:	0000b537          	lui	a0,0xb
     f84:	50450513          	addi	a0,a0,1284 # b504 <_end+0x16fc>
     f88:	33453593          	sltiu	a1,a0,820
     f8c:	38b12a23          	sw	a1,916(sp)

00000f90 <inst_248>:
     f90:	0000b537          	lui	a0,0xb
     f94:	50450513          	addi	a0,a0,1284 # b504 <_end+0x16fc>
     f98:	66753593          	sltiu	a1,a0,1639
     f9c:	38b12c23          	sw	a1,920(sp)

00000fa0 <inst_249>:
     fa0:	0000b537          	lui	a0,0xb
     fa4:	50450513          	addi	a0,a0,1284 # b504 <_end+0x16fc>
     fa8:	02e53593          	sltiu	a1,a0,46
     fac:	38b12e23          	sw	a1,924(sp)

00000fb0 <inst_250>:
     fb0:	0000b537          	lui	a0,0xb
     fb4:	50450513          	addi	a0,a0,1284 # b504 <_end+0x16fc>
     fb8:	00153593          	sltiu	a1,a0,1
     fbc:	3ab12023          	sw	a1,928(sp)

00000fc0 <inst_251>:
     fc0:	0000b537          	lui	a0,0xb
     fc4:	50450513          	addi	a0,a0,1284 # b504 <_end+0x16fc>
     fc8:	04053593          	sltiu	a1,a0,64
     fcc:	3ab12223          	sw	a1,932(sp)

00000fd0 <inst_252>:
     fd0:	00000513          	addi	a0,zero,0
     fd4:	00353593          	sltiu	a1,a0,3
     fd8:	3ab12423          	sw	a1,936(sp)

00000fdc <inst_253>:
     fdc:	00000513          	addi	a0,zero,0
     fe0:	55553593          	sltiu	a1,a0,1365
     fe4:	3ab12623          	sw	a1,940(sp)

00000fe8 <inst_254>:
     fe8:	00000513          	addi	a0,zero,0
     fec:	aaa53593          	sltiu	a1,a0,-1366
     ff0:	3ab12823          	sw	a1,944(sp)

00000ff4 <inst_255>:
     ff4:	00000513          	addi	a0,zero,0
     ff8:	00553593          	sltiu	a1,a0,5
     ffc:	3ab12a23          	sw	a1,948(sp)

00001000 <inst_256>:
    1000:	00000513          	addi	a0,zero,0
    1004:	33353593          	sltiu	a1,a0,819
    1008:	3ab12c23          	sw	a1,952(sp)

0000100c <inst_257>:
    100c:	00000513          	addi	a0,zero,0
    1010:	66653593          	sltiu	a1,a0,1638
    1014:	3ab12e23          	sw	a1,956(sp)

00001018 <inst_258>:
    1018:	00000513          	addi	a0,zero,0
    101c:	02d53593          	sltiu	a1,a0,45
    1020:	3cb12023          	sw	a1,960(sp)

00001024 <inst_259>:
    1024:	00000513          	addi	a0,zero,0
    1028:	00053593          	sltiu	a1,a0,0
    102c:	3cb12223          	sw	a1,964(sp)

00001030 <inst_260>:
    1030:	00000513          	addi	a0,zero,0
    1034:	03f53593          	sltiu	a1,a0,63
    1038:	3cb12423          	sw	a1,968(sp)

0000103c <inst_261>:
    103c:	00000513          	addi	a0,zero,0
    1040:	00253593          	sltiu	a1,a0,2
    1044:	3cb12623          	sw	a1,972(sp)

00001048 <inst_262>:
    1048:	00000513          	addi	a0,zero,0
    104c:	55453593          	sltiu	a1,a0,1364
    1050:	3cb12823          	sw	a1,976(sp)

00001054 <inst_263>:
    1054:	00000513          	addi	a0,zero,0
    1058:	aa953593          	sltiu	a1,a0,-1367
    105c:	3cb12a23          	sw	a1,980(sp)

00001060 <inst_264>:
    1060:	00000513          	addi	a0,zero,0
    1064:	00453593          	sltiu	a1,a0,4
    1068:	3cb12c23          	sw	a1,984(sp)

0000106c <inst_265>:
    106c:	00000513          	addi	a0,zero,0
    1070:	33253593          	sltiu	a1,a0,818
    1074:	3cb12e23          	sw	a1,988(sp)

00001078 <inst_266>:
    1078:	00000513          	addi	a0,zero,0
    107c:	66553593          	sltiu	a1,a0,1637
    1080:	3eb12023          	sw	a1,992(sp)

00001084 <inst_267>:
    1084:	00000513          	addi	a0,zero,0
    1088:	02c53593          	sltiu	a1,a0,44
    108c:	3eb12223          	sw	a1,996(sp)

00001090 <inst_268>:
    1090:	00000513          	addi	a0,zero,0
    1094:	03e53593          	sltiu	a1,a0,62
    1098:	3eb12423          	sw	a1,1000(sp)

0000109c <inst_269>:
    109c:	00000513          	addi	a0,zero,0
    10a0:	55653593          	sltiu	a1,a0,1366
    10a4:	3eb12623          	sw	a1,1004(sp)

000010a8 <inst_270>:
    10a8:	00000513          	addi	a0,zero,0
    10ac:	aab53593          	sltiu	a1,a0,-1365
    10b0:	3eb12823          	sw	a1,1008(sp)

000010b4 <inst_271>:
    10b4:	00000513          	addi	a0,zero,0
    10b8:	33453593          	sltiu	a1,a0,820
    10bc:	3eb12a23          	sw	a1,1012(sp)

000010c0 <inst_272>:
    10c0:	00000513          	addi	a0,zero,0
    10c4:	66753593          	sltiu	a1,a0,1639
    10c8:	3eb12c23          	sw	a1,1016(sp)

000010cc <inst_273>:
    10cc:	00000513          	addi	a0,zero,0
    10d0:	02e53593          	sltiu	a1,a0,46
    10d4:	3eb12e23          	sw	a1,1020(sp)

000010d8 <inst_274>:
    10d8:	00000513          	addi	a0,zero,0
    10dc:	00153593          	sltiu	a1,a0,1
    10e0:	40b12023          	sw	a1,1024(sp)

000010e4 <inst_275>:
    10e4:	00000513          	addi	a0,zero,0
    10e8:	04053593          	sltiu	a1,a0,64
    10ec:	40b12223          	sw	a1,1028(sp)

000010f0 <inst_276>:
    10f0:	00010537          	lui	a0,0x10
    10f4:	fff50513          	addi	a0,a0,-1 # ffff <_end+0x61f7>
    10f8:	00353593          	sltiu	a1,a0,3
    10fc:	40b12423          	sw	a1,1032(sp)

00001100 <inst_277>:
    1100:	00010537          	lui	a0,0x10
    1104:	fff50513          	addi	a0,a0,-1 # ffff <_end+0x61f7>
    1108:	55553593          	sltiu	a1,a0,1365
    110c:	40b12623          	sw	a1,1036(sp)

00001110 <inst_278>:
    1110:	00010537          	lui	a0,0x10
    1114:	fff50513          	addi	a0,a0,-1 # ffff <_end+0x61f7>
    1118:	aaa53593          	sltiu	a1,a0,-1366
    111c:	40b12823          	sw	a1,1040(sp)

00001120 <inst_279>:
    1120:	00010537          	lui	a0,0x10
    1124:	fff50513          	addi	a0,a0,-1 # ffff <_end+0x61f7>
    1128:	00553593          	sltiu	a1,a0,5
    112c:	40b12a23          	sw	a1,1044(sp)

00001130 <inst_280>:
    1130:	00010537          	lui	a0,0x10
    1134:	fff50513          	addi	a0,a0,-1 # ffff <_end+0x61f7>
    1138:	33353593          	sltiu	a1,a0,819
    113c:	40b12c23          	sw	a1,1048(sp)

00001140 <inst_281>:
    1140:	00010537          	lui	a0,0x10
    1144:	fff50513          	addi	a0,a0,-1 # ffff <_end+0x61f7>
    1148:	66653593          	sltiu	a1,a0,1638
    114c:	40b12e23          	sw	a1,1052(sp)

00001150 <inst_282>:
    1150:	00010537          	lui	a0,0x10
    1154:	fff50513          	addi	a0,a0,-1 # ffff <_end+0x61f7>
    1158:	02d53593          	sltiu	a1,a0,45
    115c:	42b12023          	sw	a1,1056(sp)

00001160 <inst_283>:
    1160:	00010537          	lui	a0,0x10
    1164:	fff50513          	addi	a0,a0,-1 # ffff <_end+0x61f7>
    1168:	00053593          	sltiu	a1,a0,0
    116c:	42b12223          	sw	a1,1060(sp)

00001170 <inst_284>:
    1170:	00010537          	lui	a0,0x10
    1174:	fff50513          	addi	a0,a0,-1 # ffff <_end+0x61f7>
    1178:	03f53593          	sltiu	a1,a0,63
    117c:	42b12423          	sw	a1,1064(sp)

00001180 <inst_285>:
    1180:	00010537          	lui	a0,0x10
    1184:	fff50513          	addi	a0,a0,-1 # ffff <_end+0x61f7>
    1188:	00253593          	sltiu	a1,a0,2
    118c:	42b12623          	sw	a1,1068(sp)

00001190 <inst_286>:
    1190:	00010537          	lui	a0,0x10
    1194:	fff50513          	addi	a0,a0,-1 # ffff <_end+0x61f7>
    1198:	55453593          	sltiu	a1,a0,1364
    119c:	42b12823          	sw	a1,1072(sp)

000011a0 <inst_287>:
    11a0:	00010537          	lui	a0,0x10
    11a4:	fff50513          	addi	a0,a0,-1 # ffff <_end+0x61f7>
    11a8:	aa953593          	sltiu	a1,a0,-1367
    11ac:	42b12a23          	sw	a1,1076(sp)

000011b0 <inst_288>:
    11b0:	00010537          	lui	a0,0x10
    11b4:	fff50513          	addi	a0,a0,-1 # ffff <_end+0x61f7>
    11b8:	00453593          	sltiu	a1,a0,4
    11bc:	42b12c23          	sw	a1,1080(sp)

000011c0 <inst_289>:
    11c0:	00010537          	lui	a0,0x10
    11c4:	fff50513          	addi	a0,a0,-1 # ffff <_end+0x61f7>
    11c8:	33253593          	sltiu	a1,a0,818
    11cc:	42b12e23          	sw	a1,1084(sp)

000011d0 <inst_290>:
    11d0:	00010537          	lui	a0,0x10
    11d4:	fff50513          	addi	a0,a0,-1 # ffff <_end+0x61f7>
    11d8:	66553593          	sltiu	a1,a0,1637
    11dc:	44b12023          	sw	a1,1088(sp)

000011e0 <inst_291>:
    11e0:	00010537          	lui	a0,0x10
    11e4:	fff50513          	addi	a0,a0,-1 # ffff <_end+0x61f7>
    11e8:	02c53593          	sltiu	a1,a0,44
    11ec:	44b12223          	sw	a1,1092(sp)

000011f0 <inst_292>:
    11f0:	00010537          	lui	a0,0x10
    11f4:	fff50513          	addi	a0,a0,-1 # ffff <_end+0x61f7>
    11f8:	03e53593          	sltiu	a1,a0,62
    11fc:	44b12423          	sw	a1,1096(sp)

00001200 <inst_293>:
    1200:	00010537          	lui	a0,0x10
    1204:	fff50513          	addi	a0,a0,-1 # ffff <_end+0x61f7>
    1208:	55653593          	sltiu	a1,a0,1366
    120c:	44b12623          	sw	a1,1100(sp)

00001210 <inst_294>:
    1210:	00010537          	lui	a0,0x10
    1214:	fff50513          	addi	a0,a0,-1 # ffff <_end+0x61f7>
    1218:	aab53593          	sltiu	a1,a0,-1365
    121c:	44b12823          	sw	a1,1104(sp)

00001220 <inst_295>:
    1220:	00010537          	lui	a0,0x10
    1224:	fff50513          	addi	a0,a0,-1 # ffff <_end+0x61f7>
    1228:	00653593          	sltiu	a1,a0,6
    122c:	44b12a23          	sw	a1,1108(sp)

00001230 <inst_296>:
    1230:	00010537          	lui	a0,0x10
    1234:	fff50513          	addi	a0,a0,-1 # ffff <_end+0x61f7>
    1238:	33453593          	sltiu	a1,a0,820
    123c:	44b12c23          	sw	a1,1112(sp)

00001240 <inst_297>:
    1240:	00010537          	lui	a0,0x10
    1244:	fff50513          	addi	a0,a0,-1 # ffff <_end+0x61f7>
    1248:	66753593          	sltiu	a1,a0,1639
    124c:	44b12e23          	sw	a1,1116(sp)

00001250 <inst_298>:
    1250:	00010537          	lui	a0,0x10
    1254:	fff50513          	addi	a0,a0,-1 # ffff <_end+0x61f7>
    1258:	02e53593          	sltiu	a1,a0,46
    125c:	46b12023          	sw	a1,1120(sp)

00001260 <inst_299>:
    1260:	00010537          	lui	a0,0x10
    1264:	fff50513          	addi	a0,a0,-1 # ffff <_end+0x61f7>
    1268:	00153593          	sltiu	a1,a0,1
    126c:	46b12223          	sw	a1,1124(sp)

00001270 <inst_300>:
    1270:	00010537          	lui	a0,0x10
    1274:	fff50513          	addi	a0,a0,-1 # ffff <_end+0x61f7>
    1278:	04053593          	sltiu	a1,a0,64
    127c:	46b12423          	sw	a1,1128(sp)

00001280 <inst_301>:
    1280:	00200513          	addi	a0,zero,2
    1284:	00353593          	sltiu	a1,a0,3
    1288:	46b12623          	sw	a1,1132(sp)

0000128c <inst_302>:
    128c:	00200513          	addi	a0,zero,2
    1290:	55553593          	sltiu	a1,a0,1365
    1294:	46b12823          	sw	a1,1136(sp)

00001298 <inst_303>:
    1298:	00200513          	addi	a0,zero,2
    129c:	aaa53593          	sltiu	a1,a0,-1366
    12a0:	46b12a23          	sw	a1,1140(sp)

000012a4 <inst_304>:
    12a4:	00200513          	addi	a0,zero,2
    12a8:	00553593          	sltiu	a1,a0,5
    12ac:	46b12c23          	sw	a1,1144(sp)

000012b0 <inst_305>:
    12b0:	00200513          	addi	a0,zero,2
    12b4:	33353593          	sltiu	a1,a0,819
    12b8:	46b12e23          	sw	a1,1148(sp)

000012bc <inst_306>:
    12bc:	00200513          	addi	a0,zero,2
    12c0:	66653593          	sltiu	a1,a0,1638
    12c4:	48b12023          	sw	a1,1152(sp)

000012c8 <inst_307>:
    12c8:	00200513          	addi	a0,zero,2
    12cc:	02d53593          	sltiu	a1,a0,45
    12d0:	48b12223          	sw	a1,1156(sp)

000012d4 <inst_308>:
    12d4:	00200513          	addi	a0,zero,2
    12d8:	00053593          	sltiu	a1,a0,0
    12dc:	48b12423          	sw	a1,1160(sp)

000012e0 <inst_309>:
    12e0:	00200513          	addi	a0,zero,2
    12e4:	03f53593          	sltiu	a1,a0,63
    12e8:	48b12623          	sw	a1,1164(sp)

000012ec <inst_310>:
    12ec:	00200513          	addi	a0,zero,2
    12f0:	00253593          	sltiu	a1,a0,2
    12f4:	48b12823          	sw	a1,1168(sp)

000012f8 <inst_311>:
    12f8:	00200513          	addi	a0,zero,2
    12fc:	55453593          	sltiu	a1,a0,1364
    1300:	48b12a23          	sw	a1,1172(sp)

00001304 <inst_312>:
    1304:	00200513          	addi	a0,zero,2
    1308:	aa953593          	sltiu	a1,a0,-1367
    130c:	48b12c23          	sw	a1,1176(sp)

00001310 <inst_313>:
    1310:	00200513          	addi	a0,zero,2
    1314:	00453593          	sltiu	a1,a0,4
    1318:	48b12e23          	sw	a1,1180(sp)

0000131c <inst_314>:
    131c:	00200513          	addi	a0,zero,2
    1320:	33253593          	sltiu	a1,a0,818
    1324:	4ab12023          	sw	a1,1184(sp)

00001328 <inst_315>:
    1328:	00200513          	addi	a0,zero,2
    132c:	66553593          	sltiu	a1,a0,1637
    1330:	4ab12223          	sw	a1,1188(sp)

00001334 <inst_316>:
    1334:	00200513          	addi	a0,zero,2
    1338:	02c53593          	sltiu	a1,a0,44
    133c:	4ab12423          	sw	a1,1192(sp)

00001340 <inst_317>:
    1340:	00200513          	addi	a0,zero,2
    1344:	03e53593          	sltiu	a1,a0,62
    1348:	4ab12623          	sw	a1,1196(sp)

0000134c <inst_318>:
    134c:	00200513          	addi	a0,zero,2
    1350:	55653593          	sltiu	a1,a0,1366
    1354:	4ab12823          	sw	a1,1200(sp)

00001358 <inst_319>:
    1358:	00200513          	addi	a0,zero,2
    135c:	aab53593          	sltiu	a1,a0,-1365
    1360:	4ab12a23          	sw	a1,1204(sp)

00001364 <inst_320>:
    1364:	00200513          	addi	a0,zero,2
    1368:	00653593          	sltiu	a1,a0,6
    136c:	4ab12c23          	sw	a1,1208(sp)

00001370 <inst_321>:
    1370:	00200513          	addi	a0,zero,2
    1374:	33453593          	sltiu	a1,a0,820
    1378:	4ab12e23          	sw	a1,1212(sp)

0000137c <inst_322>:
    137c:	00200513          	addi	a0,zero,2
    1380:	66753593          	sltiu	a1,a0,1639
    1384:	4cb12023          	sw	a1,1216(sp)

00001388 <inst_323>:
    1388:	00200513          	addi	a0,zero,2
    138c:	02e53593          	sltiu	a1,a0,46
    1390:	4cb12223          	sw	a1,1220(sp)

00001394 <inst_324>:
    1394:	00200513          	addi	a0,zero,2
    1398:	00153593          	sltiu	a1,a0,1
    139c:	4cb12423          	sw	a1,1224(sp)

000013a0 <inst_325>:
    13a0:	00200513          	addi	a0,zero,2
    13a4:	04053593          	sltiu	a1,a0,64
    13a8:	4cb12623          	sw	a1,1228(sp)

000013ac <inst_326>:
    13ac:	55555537          	lui	a0,0x55555
    13b0:	55450513          	addi	a0,a0,1364 # 55555554 <absimm+0x10263025>
    13b4:	00353593          	sltiu	a1,a0,3
    13b8:	4cb12823          	sw	a1,1232(sp)

000013bc <inst_327>:
    13bc:	55555537          	lui	a0,0x55555
    13c0:	55450513          	addi	a0,a0,1364 # 55555554 <absimm+0x10263025>
    13c4:	55553593          	sltiu	a1,a0,1365
    13c8:	4cb12a23          	sw	a1,1236(sp)

000013cc <inst_328>:
    13cc:	55555537          	lui	a0,0x55555
    13d0:	55450513          	addi	a0,a0,1364 # 55555554 <absimm+0x10263025>
    13d4:	aaa53593          	sltiu	a1,a0,-1366
    13d8:	4cb12c23          	sw	a1,1240(sp)

000013dc <inst_329>:
    13dc:	55555537          	lui	a0,0x55555
    13e0:	55450513          	addi	a0,a0,1364 # 55555554 <absimm+0x10263025>
    13e4:	00553593          	sltiu	a1,a0,5
    13e8:	4cb12e23          	sw	a1,1244(sp)

000013ec <inst_330>:
    13ec:	55555537          	lui	a0,0x55555
    13f0:	55450513          	addi	a0,a0,1364 # 55555554 <absimm+0x10263025>
    13f4:	33353593          	sltiu	a1,a0,819
    13f8:	4eb12023          	sw	a1,1248(sp)

000013fc <inst_331>:
    13fc:	55555537          	lui	a0,0x55555
    1400:	55450513          	addi	a0,a0,1364 # 55555554 <absimm+0x10263025>
    1404:	66653593          	sltiu	a1,a0,1638
    1408:	4eb12223          	sw	a1,1252(sp)

0000140c <inst_332>:
    140c:	55555537          	lui	a0,0x55555
    1410:	55450513          	addi	a0,a0,1364 # 55555554 <absimm+0x10263025>
    1414:	02d53593          	sltiu	a1,a0,45
    1418:	4eb12423          	sw	a1,1256(sp)

0000141c <inst_333>:
    141c:	55555537          	lui	a0,0x55555
    1420:	55450513          	addi	a0,a0,1364 # 55555554 <absimm+0x10263025>
    1424:	00053593          	sltiu	a1,a0,0
    1428:	4eb12623          	sw	a1,1260(sp)

0000142c <inst_334>:
    142c:	55555537          	lui	a0,0x55555
    1430:	55450513          	addi	a0,a0,1364 # 55555554 <absimm+0x10263025>
    1434:	03f53593          	sltiu	a1,a0,63
    1438:	4eb12823          	sw	a1,1264(sp)

0000143c <inst_335>:
    143c:	55555537          	lui	a0,0x55555
    1440:	55450513          	addi	a0,a0,1364 # 55555554 <absimm+0x10263025>
    1444:	00253593          	sltiu	a1,a0,2
    1448:	4eb12a23          	sw	a1,1268(sp)

0000144c <inst_336>:
    144c:	55555537          	lui	a0,0x55555
    1450:	55450513          	addi	a0,a0,1364 # 55555554 <absimm+0x10263025>
    1454:	55453593          	sltiu	a1,a0,1364
    1458:	4eb12c23          	sw	a1,1272(sp)

0000145c <inst_337>:
    145c:	55555537          	lui	a0,0x55555
    1460:	55450513          	addi	a0,a0,1364 # 55555554 <absimm+0x10263025>
    1464:	aa953593          	sltiu	a1,a0,-1367
    1468:	4eb12e23          	sw	a1,1276(sp)

0000146c <inst_338>:
    146c:	55555537          	lui	a0,0x55555
    1470:	55450513          	addi	a0,a0,1364 # 55555554 <absimm+0x10263025>
    1474:	00453593          	sltiu	a1,a0,4
    1478:	50b12023          	sw	a1,1280(sp)

0000147c <inst_339>:
    147c:	55555537          	lui	a0,0x55555
    1480:	55450513          	addi	a0,a0,1364 # 55555554 <absimm+0x10263025>
    1484:	33253593          	sltiu	a1,a0,818
    1488:	50b12223          	sw	a1,1284(sp)

0000148c <inst_340>:
    148c:	55555537          	lui	a0,0x55555
    1490:	55450513          	addi	a0,a0,1364 # 55555554 <absimm+0x10263025>
    1494:	66553593          	sltiu	a1,a0,1637
    1498:	50b12423          	sw	a1,1288(sp)

0000149c <inst_341>:
    149c:	55555537          	lui	a0,0x55555
    14a0:	55450513          	addi	a0,a0,1364 # 55555554 <absimm+0x10263025>
    14a4:	02c53593          	sltiu	a1,a0,44
    14a8:	50b12623          	sw	a1,1292(sp)

000014ac <inst_342>:
    14ac:	55555537          	lui	a0,0x55555
    14b0:	55450513          	addi	a0,a0,1364 # 55555554 <absimm+0x10263025>
    14b4:	03e53593          	sltiu	a1,a0,62
    14b8:	50b12823          	sw	a1,1296(sp)

000014bc <inst_343>:
    14bc:	55555537          	lui	a0,0x55555
    14c0:	55450513          	addi	a0,a0,1364 # 55555554 <absimm+0x10263025>
    14c4:	55653593          	sltiu	a1,a0,1366
    14c8:	50b12a23          	sw	a1,1300(sp)

000014cc <inst_344>:
    14cc:	55555537          	lui	a0,0x55555
    14d0:	55450513          	addi	a0,a0,1364 # 55555554 <absimm+0x10263025>
    14d4:	aab53593          	sltiu	a1,a0,-1365
    14d8:	50b12c23          	sw	a1,1304(sp)

000014dc <inst_345>:
    14dc:	55555537          	lui	a0,0x55555
    14e0:	55450513          	addi	a0,a0,1364 # 55555554 <absimm+0x10263025>
    14e4:	00653593          	sltiu	a1,a0,6
    14e8:	50b12e23          	sw	a1,1308(sp)

000014ec <inst_346>:
    14ec:	55555537          	lui	a0,0x55555
    14f0:	55450513          	addi	a0,a0,1364 # 55555554 <absimm+0x10263025>
    14f4:	33453593          	sltiu	a1,a0,820
    14f8:	52b12023          	sw	a1,1312(sp)

000014fc <inst_347>:
    14fc:	55555537          	lui	a0,0x55555
    1500:	55450513          	addi	a0,a0,1364 # 55555554 <absimm+0x10263025>
    1504:	66753593          	sltiu	a1,a0,1639
    1508:	52b12223          	sw	a1,1316(sp)

0000150c <inst_348>:
    150c:	55555537          	lui	a0,0x55555
    1510:	55450513          	addi	a0,a0,1364 # 55555554 <absimm+0x10263025>
    1514:	02e53593          	sltiu	a1,a0,46
    1518:	52b12423          	sw	a1,1320(sp)

0000151c <inst_349>:
    151c:	55555537          	lui	a0,0x55555
    1520:	55450513          	addi	a0,a0,1364 # 55555554 <absimm+0x10263025>
    1524:	00153593          	sltiu	a1,a0,1
    1528:	52b12623          	sw	a1,1324(sp)

0000152c <inst_350>:
    152c:	55555537          	lui	a0,0x55555
    1530:	55450513          	addi	a0,a0,1364 # 55555554 <absimm+0x10263025>
    1534:	04053593          	sltiu	a1,a0,64
    1538:	52b12823          	sw	a1,1328(sp)

0000153c <inst_351>:
    153c:	aaaab537          	lui	a0,0xaaaab
    1540:	aa950513          	addi	a0,a0,-1367 # aaaaaaa9 <absimm+0x657b857a>
    1544:	00353593          	sltiu	a1,a0,3
    1548:	52b12a23          	sw	a1,1332(sp)

0000154c <inst_352>:
    154c:	aaaab537          	lui	a0,0xaaaab
    1550:	aa950513          	addi	a0,a0,-1367 # aaaaaaa9 <absimm+0x657b857a>
    1554:	55553593          	sltiu	a1,a0,1365
    1558:	52b12c23          	sw	a1,1336(sp)

0000155c <inst_353>:
    155c:	aaaab537          	lui	a0,0xaaaab
    1560:	aa950513          	addi	a0,a0,-1367 # aaaaaaa9 <absimm+0x657b857a>
    1564:	aaa53593          	sltiu	a1,a0,-1366
    1568:	52b12e23          	sw	a1,1340(sp)

0000156c <inst_354>:
    156c:	aaaab537          	lui	a0,0xaaaab
    1570:	aa950513          	addi	a0,a0,-1367 # aaaaaaa9 <absimm+0x657b857a>
    1574:	00553593          	sltiu	a1,a0,5
    1578:	54b12023          	sw	a1,1344(sp)

0000157c <inst_355>:
    157c:	aaaab537          	lui	a0,0xaaaab
    1580:	aa950513          	addi	a0,a0,-1367 # aaaaaaa9 <absimm+0x657b857a>
    1584:	33353593          	sltiu	a1,a0,819
    1588:	54b12223          	sw	a1,1348(sp)

0000158c <inst_356>:
    158c:	aaaab537          	lui	a0,0xaaaab
    1590:	aa950513          	addi	a0,a0,-1367 # aaaaaaa9 <absimm+0x657b857a>
    1594:	66653593          	sltiu	a1,a0,1638
    1598:	54b12423          	sw	a1,1352(sp)

0000159c <inst_357>:
    159c:	aaaab537          	lui	a0,0xaaaab
    15a0:	aa950513          	addi	a0,a0,-1367 # aaaaaaa9 <absimm+0x657b857a>
    15a4:	02d53593          	sltiu	a1,a0,45
    15a8:	54b12623          	sw	a1,1356(sp)

000015ac <inst_358>:
    15ac:	aaaab537          	lui	a0,0xaaaab
    15b0:	aa950513          	addi	a0,a0,-1367 # aaaaaaa9 <absimm+0x657b857a>
    15b4:	00053593          	sltiu	a1,a0,0
    15b8:	54b12823          	sw	a1,1360(sp)

000015bc <inst_359>:
    15bc:	aaaab537          	lui	a0,0xaaaab
    15c0:	aa950513          	addi	a0,a0,-1367 # aaaaaaa9 <absimm+0x657b857a>
    15c4:	03f53593          	sltiu	a1,a0,63
    15c8:	54b12a23          	sw	a1,1364(sp)

000015cc <inst_360>:
    15cc:	aaaab537          	lui	a0,0xaaaab
    15d0:	aa950513          	addi	a0,a0,-1367 # aaaaaaa9 <absimm+0x657b857a>
    15d4:	00253593          	sltiu	a1,a0,2
    15d8:	54b12c23          	sw	a1,1368(sp)

000015dc <inst_361>:
    15dc:	aaaab537          	lui	a0,0xaaaab
    15e0:	aa950513          	addi	a0,a0,-1367 # aaaaaaa9 <absimm+0x657b857a>
    15e4:	55453593          	sltiu	a1,a0,1364
    15e8:	54b12e23          	sw	a1,1372(sp)

000015ec <inst_362>:
    15ec:	aaaab537          	lui	a0,0xaaaab
    15f0:	aa950513          	addi	a0,a0,-1367 # aaaaaaa9 <absimm+0x657b857a>
    15f4:	aa953593          	sltiu	a1,a0,-1367
    15f8:	56b12023          	sw	a1,1376(sp)

000015fc <inst_363>:
    15fc:	aaaab537          	lui	a0,0xaaaab
    1600:	aa950513          	addi	a0,a0,-1367 # aaaaaaa9 <absimm+0x657b857a>
    1604:	00453593          	sltiu	a1,a0,4
    1608:	56b12223          	sw	a1,1380(sp)

0000160c <inst_364>:
    160c:	aaaab537          	lui	a0,0xaaaab
    1610:	aa950513          	addi	a0,a0,-1367 # aaaaaaa9 <absimm+0x657b857a>
    1614:	33253593          	sltiu	a1,a0,818
    1618:	56b12423          	sw	a1,1384(sp)

0000161c <inst_365>:
    161c:	aaaab537          	lui	a0,0xaaaab
    1620:	aa950513          	addi	a0,a0,-1367 # aaaaaaa9 <absimm+0x657b857a>
    1624:	66553593          	sltiu	a1,a0,1637
    1628:	56b12623          	sw	a1,1388(sp)

0000162c <inst_366>:
    162c:	aaaab537          	lui	a0,0xaaaab
    1630:	aa950513          	addi	a0,a0,-1367 # aaaaaaa9 <absimm+0x657b857a>
    1634:	02c53593          	sltiu	a1,a0,44
    1638:	56b12823          	sw	a1,1392(sp)

0000163c <inst_367>:
    163c:	aaaab537          	lui	a0,0xaaaab
    1640:	aa950513          	addi	a0,a0,-1367 # aaaaaaa9 <absimm+0x657b857a>
    1644:	03e53593          	sltiu	a1,a0,62
    1648:	56b12a23          	sw	a1,1396(sp)

0000164c <inst_368>:
    164c:	aaaab537          	lui	a0,0xaaaab
    1650:	aa950513          	addi	a0,a0,-1367 # aaaaaaa9 <absimm+0x657b857a>
    1654:	55653593          	sltiu	a1,a0,1366
    1658:	56b12c23          	sw	a1,1400(sp)

0000165c <inst_369>:
    165c:	aaaab537          	lui	a0,0xaaaab
    1660:	aa950513          	addi	a0,a0,-1367 # aaaaaaa9 <absimm+0x657b857a>
    1664:	aab53593          	sltiu	a1,a0,-1365
    1668:	56b12e23          	sw	a1,1404(sp)

0000166c <inst_370>:
    166c:	aaaab537          	lui	a0,0xaaaab
    1670:	aa950513          	addi	a0,a0,-1367 # aaaaaaa9 <absimm+0x657b857a>
    1674:	00653593          	sltiu	a1,a0,6
    1678:	58b12023          	sw	a1,1408(sp)

0000167c <inst_371>:
    167c:	aaaab537          	lui	a0,0xaaaab
    1680:	aa950513          	addi	a0,a0,-1367 # aaaaaaa9 <absimm+0x657b857a>
    1684:	33453593          	sltiu	a1,a0,820
    1688:	58b12223          	sw	a1,1412(sp)

0000168c <inst_372>:
    168c:	aaaab537          	lui	a0,0xaaaab
    1690:	aa950513          	addi	a0,a0,-1367 # aaaaaaa9 <absimm+0x657b857a>
    1694:	66753593          	sltiu	a1,a0,1639
    1698:	58b12423          	sw	a1,1416(sp)

0000169c <inst_373>:
    169c:	aaaab537          	lui	a0,0xaaaab
    16a0:	aa950513          	addi	a0,a0,-1367 # aaaaaaa9 <absimm+0x657b857a>
    16a4:	02e53593          	sltiu	a1,a0,46
    16a8:	58b12623          	sw	a1,1420(sp)

000016ac <inst_374>:
    16ac:	aaaab537          	lui	a0,0xaaaab
    16b0:	aa950513          	addi	a0,a0,-1367 # aaaaaaa9 <absimm+0x657b857a>
    16b4:	00153593          	sltiu	a1,a0,1
    16b8:	58b12823          	sw	a1,1424(sp)

000016bc <inst_375>:
    16bc:	aaaab537          	lui	a0,0xaaaab
    16c0:	aa950513          	addi	a0,a0,-1367 # aaaaaaa9 <absimm+0x657b857a>
    16c4:	04053593          	sltiu	a1,a0,64
    16c8:	58b12a23          	sw	a1,1428(sp)

000016cc <inst_376>:
    16cc:	00400513          	addi	a0,zero,4
    16d0:	00353593          	sltiu	a1,a0,3
    16d4:	58b12c23          	sw	a1,1432(sp)

000016d8 <inst_377>:
    16d8:	00400513          	addi	a0,zero,4
    16dc:	55553593          	sltiu	a1,a0,1365
    16e0:	58b12e23          	sw	a1,1436(sp)

000016e4 <inst_378>:
    16e4:	00400513          	addi	a0,zero,4
    16e8:	aaa53593          	sltiu	a1,a0,-1366
    16ec:	5ab12023          	sw	a1,1440(sp)

000016f0 <inst_379>:
    16f0:	00400513          	addi	a0,zero,4
    16f4:	00553593          	sltiu	a1,a0,5
    16f8:	5ab12223          	sw	a1,1444(sp)

000016fc <inst_380>:
    16fc:	00400513          	addi	a0,zero,4
    1700:	33353593          	sltiu	a1,a0,819
    1704:	5ab12423          	sw	a1,1448(sp)

00001708 <inst_381>:
    1708:	00400513          	addi	a0,zero,4
    170c:	66653593          	sltiu	a1,a0,1638
    1710:	5ab12623          	sw	a1,1452(sp)

00001714 <inst_382>:
    1714:	00400513          	addi	a0,zero,4
    1718:	02d53593          	sltiu	a1,a0,45
    171c:	5ab12823          	sw	a1,1456(sp)

00001720 <inst_383>:
    1720:	00400513          	addi	a0,zero,4
    1724:	00053593          	sltiu	a1,a0,0
    1728:	5ab12a23          	sw	a1,1460(sp)

0000172c <inst_384>:
    172c:	00400513          	addi	a0,zero,4
    1730:	03f53593          	sltiu	a1,a0,63
    1734:	5ab12c23          	sw	a1,1464(sp)

00001738 <inst_385>:
    1738:	00400513          	addi	a0,zero,4
    173c:	00253593          	sltiu	a1,a0,2
    1740:	5ab12e23          	sw	a1,1468(sp)

00001744 <inst_386>:
    1744:	00400513          	addi	a0,zero,4
    1748:	55453593          	sltiu	a1,a0,1364
    174c:	5cb12023          	sw	a1,1472(sp)

00001750 <inst_387>:
    1750:	00400513          	addi	a0,zero,4
    1754:	aa953593          	sltiu	a1,a0,-1367
    1758:	5cb12223          	sw	a1,1476(sp)

0000175c <inst_388>:
    175c:	00400513          	addi	a0,zero,4
    1760:	00453593          	sltiu	a1,a0,4
    1764:	5cb12423          	sw	a1,1480(sp)

00001768 <inst_389>:
    1768:	00400513          	addi	a0,zero,4
    176c:	33253593          	sltiu	a1,a0,818
    1770:	5cb12623          	sw	a1,1484(sp)

00001774 <inst_390>:
    1774:	00400513          	addi	a0,zero,4
    1778:	66553593          	sltiu	a1,a0,1637
    177c:	5cb12823          	sw	a1,1488(sp)

00001780 <inst_391>:
    1780:	00400513          	addi	a0,zero,4
    1784:	02c53593          	sltiu	a1,a0,44
    1788:	5cb12a23          	sw	a1,1492(sp)

0000178c <inst_392>:
    178c:	00400513          	addi	a0,zero,4
    1790:	03e53593          	sltiu	a1,a0,62
    1794:	5cb12c23          	sw	a1,1496(sp)

00001798 <inst_393>:
    1798:	00400513          	addi	a0,zero,4
    179c:	55653593          	sltiu	a1,a0,1366
    17a0:	5cb12e23          	sw	a1,1500(sp)

000017a4 <inst_394>:
    17a4:	00400513          	addi	a0,zero,4
    17a8:	aab53593          	sltiu	a1,a0,-1365
    17ac:	5eb12023          	sw	a1,1504(sp)

000017b0 <inst_395>:
    17b0:	00400513          	addi	a0,zero,4
    17b4:	00653593          	sltiu	a1,a0,6
    17b8:	5eb12223          	sw	a1,1508(sp)

000017bc <inst_396>:
    17bc:	00400513          	addi	a0,zero,4
    17c0:	33453593          	sltiu	a1,a0,820
    17c4:	5eb12423          	sw	a1,1512(sp)

000017c8 <inst_397>:
    17c8:	00400513          	addi	a0,zero,4
    17cc:	66753593          	sltiu	a1,a0,1639
    17d0:	5eb12623          	sw	a1,1516(sp)

000017d4 <inst_398>:
    17d4:	00400513          	addi	a0,zero,4
    17d8:	02e53593          	sltiu	a1,a0,46
    17dc:	5eb12823          	sw	a1,1520(sp)

000017e0 <inst_399>:
    17e0:	00400513          	addi	a0,zero,4
    17e4:	04053593          	sltiu	a1,a0,64
    17e8:	5eb12a23          	sw	a1,1524(sp)

000017ec <inst_400>:
    17ec:	33333537          	lui	a0,0x33333
    17f0:	33250513          	addi	a0,a0,818 # 33333332 <_end+0x3332952a>
    17f4:	00353593          	sltiu	a1,a0,3
    17f8:	5eb12c23          	sw	a1,1528(sp)

000017fc <inst_401>:
    17fc:	33333537          	lui	a0,0x33333
    1800:	33250513          	addi	a0,a0,818 # 33333332 <_end+0x3332952a>
    1804:	55553593          	sltiu	a1,a0,1365
    1808:	5eb12e23          	sw	a1,1532(sp)

0000180c <inst_402>:
    180c:	33333537          	lui	a0,0x33333
    1810:	33250513          	addi	a0,a0,818 # 33333332 <_end+0x3332952a>
    1814:	aaa53593          	sltiu	a1,a0,-1366
    1818:	60b12023          	sw	a1,1536(sp)

0000181c <inst_403>:
    181c:	33333537          	lui	a0,0x33333
    1820:	33250513          	addi	a0,a0,818 # 33333332 <_end+0x3332952a>
    1824:	00553593          	sltiu	a1,a0,5
    1828:	60b12223          	sw	a1,1540(sp)

0000182c <inst_404>:
    182c:	33333537          	lui	a0,0x33333
    1830:	33250513          	addi	a0,a0,818 # 33333332 <_end+0x3332952a>
    1834:	33353593          	sltiu	a1,a0,819
    1838:	60b12423          	sw	a1,1544(sp)

0000183c <inst_405>:
    183c:	33333537          	lui	a0,0x33333
    1840:	33250513          	addi	a0,a0,818 # 33333332 <_end+0x3332952a>
    1844:	66653593          	sltiu	a1,a0,1638
    1848:	60b12623          	sw	a1,1548(sp)

0000184c <inst_406>:
    184c:	33333537          	lui	a0,0x33333
    1850:	33250513          	addi	a0,a0,818 # 33333332 <_end+0x3332952a>
    1854:	02d53593          	sltiu	a1,a0,45
    1858:	60b12823          	sw	a1,1552(sp)

0000185c <inst_407>:
    185c:	33333537          	lui	a0,0x33333
    1860:	33250513          	addi	a0,a0,818 # 33333332 <_end+0x3332952a>
    1864:	00053593          	sltiu	a1,a0,0
    1868:	60b12a23          	sw	a1,1556(sp)

0000186c <inst_408>:
    186c:	33333537          	lui	a0,0x33333
    1870:	33250513          	addi	a0,a0,818 # 33333332 <_end+0x3332952a>
    1874:	03f53593          	sltiu	a1,a0,63
    1878:	60b12c23          	sw	a1,1560(sp)

0000187c <inst_409>:
    187c:	33333537          	lui	a0,0x33333
    1880:	33250513          	addi	a0,a0,818 # 33333332 <_end+0x3332952a>
    1884:	00253593          	sltiu	a1,a0,2
    1888:	60b12e23          	sw	a1,1564(sp)

0000188c <inst_410>:
    188c:	33333537          	lui	a0,0x33333
    1890:	33250513          	addi	a0,a0,818 # 33333332 <_end+0x3332952a>
    1894:	55453593          	sltiu	a1,a0,1364
    1898:	62b12023          	sw	a1,1568(sp)

0000189c <inst_411>:
    189c:	33333537          	lui	a0,0x33333
    18a0:	33250513          	addi	a0,a0,818 # 33333332 <_end+0x3332952a>
    18a4:	aa953593          	sltiu	a1,a0,-1367
    18a8:	62b12223          	sw	a1,1572(sp)

000018ac <inst_412>:
    18ac:	33333537          	lui	a0,0x33333
    18b0:	33250513          	addi	a0,a0,818 # 33333332 <_end+0x3332952a>
    18b4:	00453593          	sltiu	a1,a0,4
    18b8:	62b12423          	sw	a1,1576(sp)

000018bc <inst_413>:
    18bc:	33333537          	lui	a0,0x33333
    18c0:	33250513          	addi	a0,a0,818 # 33333332 <_end+0x3332952a>
    18c4:	33253593          	sltiu	a1,a0,818
    18c8:	62b12623          	sw	a1,1580(sp)

000018cc <inst_414>:
    18cc:	33333537          	lui	a0,0x33333
    18d0:	33250513          	addi	a0,a0,818 # 33333332 <_end+0x3332952a>
    18d4:	66553593          	sltiu	a1,a0,1637
    18d8:	62b12823          	sw	a1,1584(sp)

000018dc <inst_415>:
    18dc:	33333537          	lui	a0,0x33333
    18e0:	33250513          	addi	a0,a0,818 # 33333332 <_end+0x3332952a>
    18e4:	02c53593          	sltiu	a1,a0,44
    18e8:	62b12a23          	sw	a1,1588(sp)

000018ec <inst_416>:
    18ec:	33333537          	lui	a0,0x33333
    18f0:	33250513          	addi	a0,a0,818 # 33333332 <_end+0x3332952a>
    18f4:	03e53593          	sltiu	a1,a0,62
    18f8:	62b12c23          	sw	a1,1592(sp)

000018fc <inst_417>:
    18fc:	33333537          	lui	a0,0x33333
    1900:	33250513          	addi	a0,a0,818 # 33333332 <_end+0x3332952a>
    1904:	55653593          	sltiu	a1,a0,1366
    1908:	62b12e23          	sw	a1,1596(sp)

0000190c <inst_418>:
    190c:	33333537          	lui	a0,0x33333
    1910:	33250513          	addi	a0,a0,818 # 33333332 <_end+0x3332952a>
    1914:	aab53593          	sltiu	a1,a0,-1365
    1918:	64b12023          	sw	a1,1600(sp)

0000191c <inst_419>:
    191c:	33333537          	lui	a0,0x33333
    1920:	33250513          	addi	a0,a0,818 # 33333332 <_end+0x3332952a>
    1924:	00653593          	sltiu	a1,a0,6
    1928:	64b12223          	sw	a1,1604(sp)

0000192c <inst_420>:
    192c:	33333537          	lui	a0,0x33333
    1930:	33250513          	addi	a0,a0,818 # 33333332 <_end+0x3332952a>
    1934:	33453593          	sltiu	a1,a0,820
    1938:	64b12423          	sw	a1,1608(sp)

0000193c <inst_421>:
    193c:	33333537          	lui	a0,0x33333
    1940:	33250513          	addi	a0,a0,818 # 33333332 <_end+0x3332952a>
    1944:	66753593          	sltiu	a1,a0,1639
    1948:	64b12623          	sw	a1,1612(sp)

0000194c <inst_422>:
    194c:	33333537          	lui	a0,0x33333
    1950:	33250513          	addi	a0,a0,818 # 33333332 <_end+0x3332952a>
    1954:	02e53593          	sltiu	a1,a0,46
    1958:	64b12823          	sw	a1,1616(sp)

0000195c <inst_423>:
    195c:	33333537          	lui	a0,0x33333
    1960:	33250513          	addi	a0,a0,818 # 33333332 <_end+0x3332952a>
    1964:	00153593          	sltiu	a1,a0,1
    1968:	64b12a23          	sw	a1,1620(sp)

0000196c <inst_424>:
    196c:	33333537          	lui	a0,0x33333
    1970:	33250513          	addi	a0,a0,818 # 33333332 <_end+0x3332952a>
    1974:	04053593          	sltiu	a1,a0,64
    1978:	64b12c23          	sw	a1,1624(sp)

0000197c <inst_425>:
    197c:	66666537          	lui	a0,0x66666
    1980:	66550513          	addi	a0,a0,1637 # 66666665 <absimm+0x21374136>
    1984:	00353593          	sltiu	a1,a0,3
    1988:	64b12e23          	sw	a1,1628(sp)

0000198c <inst_426>:
    198c:	66666537          	lui	a0,0x66666
    1990:	66550513          	addi	a0,a0,1637 # 66666665 <absimm+0x21374136>
    1994:	55553593          	sltiu	a1,a0,1365
    1998:	66b12023          	sw	a1,1632(sp)

0000199c <inst_427>:
    199c:	66666537          	lui	a0,0x66666
    19a0:	66550513          	addi	a0,a0,1637 # 66666665 <absimm+0x21374136>
    19a4:	aaa53593          	sltiu	a1,a0,-1366
    19a8:	66b12223          	sw	a1,1636(sp)

000019ac <inst_428>:
    19ac:	66666537          	lui	a0,0x66666
    19b0:	66550513          	addi	a0,a0,1637 # 66666665 <absimm+0x21374136>
    19b4:	00553593          	sltiu	a1,a0,5
    19b8:	66b12423          	sw	a1,1640(sp)

000019bc <inst_429>:
    19bc:	66666537          	lui	a0,0x66666
    19c0:	66550513          	addi	a0,a0,1637 # 66666665 <absimm+0x21374136>
    19c4:	33353593          	sltiu	a1,a0,819
    19c8:	66b12623          	sw	a1,1644(sp)

000019cc <inst_430>:
    19cc:	66666537          	lui	a0,0x66666
    19d0:	66550513          	addi	a0,a0,1637 # 66666665 <absimm+0x21374136>
    19d4:	66653593          	sltiu	a1,a0,1638
    19d8:	66b12823          	sw	a1,1648(sp)

000019dc <inst_431>:
    19dc:	66666537          	lui	a0,0x66666
    19e0:	66550513          	addi	a0,a0,1637 # 66666665 <absimm+0x21374136>
    19e4:	02d53593          	sltiu	a1,a0,45
    19e8:	66b12a23          	sw	a1,1652(sp)

000019ec <inst_432>:
    19ec:	66666537          	lui	a0,0x66666
    19f0:	66550513          	addi	a0,a0,1637 # 66666665 <absimm+0x21374136>
    19f4:	00053593          	sltiu	a1,a0,0
    19f8:	66b12c23          	sw	a1,1656(sp)

000019fc <inst_433>:
    19fc:	66666537          	lui	a0,0x66666
    1a00:	66550513          	addi	a0,a0,1637 # 66666665 <absimm+0x21374136>
    1a04:	03f53593          	sltiu	a1,a0,63
    1a08:	66b12e23          	sw	a1,1660(sp)

00001a0c <inst_434>:
    1a0c:	66666537          	lui	a0,0x66666
    1a10:	66550513          	addi	a0,a0,1637 # 66666665 <absimm+0x21374136>
    1a14:	00253593          	sltiu	a1,a0,2
    1a18:	68b12023          	sw	a1,1664(sp)

00001a1c <inst_435>:
    1a1c:	66666537          	lui	a0,0x66666
    1a20:	66550513          	addi	a0,a0,1637 # 66666665 <absimm+0x21374136>
    1a24:	55453593          	sltiu	a1,a0,1364
    1a28:	68b12223          	sw	a1,1668(sp)

00001a2c <inst_436>:
    1a2c:	66666537          	lui	a0,0x66666
    1a30:	66550513          	addi	a0,a0,1637 # 66666665 <absimm+0x21374136>
    1a34:	aa953593          	sltiu	a1,a0,-1367
    1a38:	68b12423          	sw	a1,1672(sp)

00001a3c <inst_437>:
    1a3c:	66666537          	lui	a0,0x66666
    1a40:	66550513          	addi	a0,a0,1637 # 66666665 <absimm+0x21374136>
    1a44:	00453593          	sltiu	a1,a0,4
    1a48:	68b12623          	sw	a1,1676(sp)

00001a4c <inst_438>:
    1a4c:	66666537          	lui	a0,0x66666
    1a50:	66550513          	addi	a0,a0,1637 # 66666665 <absimm+0x21374136>
    1a54:	33253593          	sltiu	a1,a0,818
    1a58:	68b12823          	sw	a1,1680(sp)

00001a5c <inst_439>:
    1a5c:	66666537          	lui	a0,0x66666
    1a60:	66550513          	addi	a0,a0,1637 # 66666665 <absimm+0x21374136>
    1a64:	66553593          	sltiu	a1,a0,1637
    1a68:	68b12a23          	sw	a1,1684(sp)

00001a6c <inst_440>:
    1a6c:	66666537          	lui	a0,0x66666
    1a70:	66550513          	addi	a0,a0,1637 # 66666665 <absimm+0x21374136>
    1a74:	02c53593          	sltiu	a1,a0,44
    1a78:	68b12c23          	sw	a1,1688(sp)

00001a7c <inst_441>:
    1a7c:	66666537          	lui	a0,0x66666
    1a80:	66550513          	addi	a0,a0,1637 # 66666665 <absimm+0x21374136>
    1a84:	03e53593          	sltiu	a1,a0,62
    1a88:	68b12e23          	sw	a1,1692(sp)

00001a8c <inst_442>:
    1a8c:	66666537          	lui	a0,0x66666
    1a90:	66550513          	addi	a0,a0,1637 # 66666665 <absimm+0x21374136>
    1a94:	55653593          	sltiu	a1,a0,1366
    1a98:	6ab12023          	sw	a1,1696(sp)

00001a9c <inst_443>:
    1a9c:	00010537          	lui	a0,0x10
    1aa0:	ffe50513          	addi	a0,a0,-2 # fffe <_end+0x61f6>
    1aa4:	66553593          	sltiu	a1,a0,1637
    1aa8:	6ab12223          	sw	a1,1700(sp)

00001aac <inst_444>:
    1aac:	00010537          	lui	a0,0x10
    1ab0:	ffe50513          	addi	a0,a0,-2 # fffe <_end+0x61f6>
    1ab4:	02c53593          	sltiu	a1,a0,44
    1ab8:	6ab12423          	sw	a1,1704(sp)

00001abc <inst_445>:
    1abc:	00010537          	lui	a0,0x10
    1ac0:	ffe50513          	addi	a0,a0,-2 # fffe <_end+0x61f6>
    1ac4:	03e53593          	sltiu	a1,a0,62
    1ac8:	6ab12623          	sw	a1,1708(sp)

00001acc <inst_446>:
    1acc:	00010537          	lui	a0,0x10
    1ad0:	ffe50513          	addi	a0,a0,-2 # fffe <_end+0x61f6>
    1ad4:	55653593          	sltiu	a1,a0,1366
    1ad8:	6ab12823          	sw	a1,1712(sp)

00001adc <inst_447>:
    1adc:	00010537          	lui	a0,0x10
    1ae0:	ffe50513          	addi	a0,a0,-2 # fffe <_end+0x61f6>
    1ae4:	aab53593          	sltiu	a1,a0,-1365
    1ae8:	6ab12a23          	sw	a1,1716(sp)

00001aec <inst_448>:
    1aec:	00010537          	lui	a0,0x10
    1af0:	ffe50513          	addi	a0,a0,-2 # fffe <_end+0x61f6>
    1af4:	00653593          	sltiu	a1,a0,6
    1af8:	6ab12c23          	sw	a1,1720(sp)

00001afc <inst_449>:
    1afc:	00010537          	lui	a0,0x10
    1b00:	ffe50513          	addi	a0,a0,-2 # fffe <_end+0x61f6>
    1b04:	33453593          	sltiu	a1,a0,820
    1b08:	6ab12e23          	sw	a1,1724(sp)

00001b0c <inst_450>:
    1b0c:	00010537          	lui	a0,0x10
    1b10:	ffe50513          	addi	a0,a0,-2 # fffe <_end+0x61f6>
    1b14:	66753593          	sltiu	a1,a0,1639
    1b18:	6cb12023          	sw	a1,1728(sp)

00001b1c <inst_451>:
    1b1c:	00010537          	lui	a0,0x10
    1b20:	ffe50513          	addi	a0,a0,-2 # fffe <_end+0x61f6>
    1b24:	02e53593          	sltiu	a1,a0,46
    1b28:	6cb12223          	sw	a1,1732(sp)

00001b2c <inst_452>:
    1b2c:	00010537          	lui	a0,0x10
    1b30:	ffe50513          	addi	a0,a0,-2 # fffe <_end+0x61f6>
    1b34:	00153593          	sltiu	a1,a0,1
    1b38:	6cb12423          	sw	a1,1736(sp)

00001b3c <inst_453>:
    1b3c:	00010537          	lui	a0,0x10
    1b40:	ffe50513          	addi	a0,a0,-2 # fffe <_end+0x61f6>
    1b44:	04053593          	sltiu	a1,a0,64
    1b48:	6cb12623          	sw	a1,1740(sp)

00001b4c <inst_454>:
    1b4c:	55555537          	lui	a0,0x55555
    1b50:	55650513          	addi	a0,a0,1366 # 55555556 <absimm+0x10263027>
    1b54:	00353593          	sltiu	a1,a0,3
    1b58:	6cb12823          	sw	a1,1744(sp)

00001b5c <inst_455>:
    1b5c:	55555537          	lui	a0,0x55555
    1b60:	55650513          	addi	a0,a0,1366 # 55555556 <absimm+0x10263027>
    1b64:	55553593          	sltiu	a1,a0,1365
    1b68:	6cb12a23          	sw	a1,1748(sp)

00001b6c <inst_456>:
    1b6c:	55555537          	lui	a0,0x55555
    1b70:	55650513          	addi	a0,a0,1366 # 55555556 <absimm+0x10263027>
    1b74:	aaa53593          	sltiu	a1,a0,-1366
    1b78:	6cb12c23          	sw	a1,1752(sp)

00001b7c <inst_457>:
    1b7c:	55555537          	lui	a0,0x55555
    1b80:	55650513          	addi	a0,a0,1366 # 55555556 <absimm+0x10263027>
    1b84:	00553593          	sltiu	a1,a0,5
    1b88:	6cb12e23          	sw	a1,1756(sp)

00001b8c <inst_458>:
    1b8c:	55555537          	lui	a0,0x55555
    1b90:	55650513          	addi	a0,a0,1366 # 55555556 <absimm+0x10263027>
    1b94:	33353593          	sltiu	a1,a0,819
    1b98:	6eb12023          	sw	a1,1760(sp)

00001b9c <inst_459>:
    1b9c:	55555537          	lui	a0,0x55555
    1ba0:	55650513          	addi	a0,a0,1366 # 55555556 <absimm+0x10263027>
    1ba4:	66653593          	sltiu	a1,a0,1638
    1ba8:	6eb12223          	sw	a1,1764(sp)

00001bac <inst_460>:
    1bac:	55555537          	lui	a0,0x55555
    1bb0:	55650513          	addi	a0,a0,1366 # 55555556 <absimm+0x10263027>
    1bb4:	02d53593          	sltiu	a1,a0,45
    1bb8:	6eb12423          	sw	a1,1768(sp)

00001bbc <inst_461>:
    1bbc:	55555537          	lui	a0,0x55555
    1bc0:	55650513          	addi	a0,a0,1366 # 55555556 <absimm+0x10263027>
    1bc4:	00053593          	sltiu	a1,a0,0
    1bc8:	6eb12623          	sw	a1,1772(sp)

00001bcc <inst_462>:
    1bcc:	55555537          	lui	a0,0x55555
    1bd0:	55650513          	addi	a0,a0,1366 # 55555556 <absimm+0x10263027>
    1bd4:	03f53593          	sltiu	a1,a0,63
    1bd8:	6eb12823          	sw	a1,1776(sp)

00001bdc <inst_463>:
    1bdc:	55555537          	lui	a0,0x55555
    1be0:	55650513          	addi	a0,a0,1366 # 55555556 <absimm+0x10263027>
    1be4:	00253593          	sltiu	a1,a0,2
    1be8:	6eb12a23          	sw	a1,1780(sp)

00001bec <inst_464>:
    1bec:	55555537          	lui	a0,0x55555
    1bf0:	55650513          	addi	a0,a0,1366 # 55555556 <absimm+0x10263027>
    1bf4:	55453593          	sltiu	a1,a0,1364
    1bf8:	6eb12c23          	sw	a1,1784(sp)

00001bfc <inst_465>:
    1bfc:	55555537          	lui	a0,0x55555
    1c00:	55650513          	addi	a0,a0,1366 # 55555556 <absimm+0x10263027>
    1c04:	aa953593          	sltiu	a1,a0,-1367
    1c08:	6eb12e23          	sw	a1,1788(sp)

00001c0c <inst_466>:
    1c0c:	55555537          	lui	a0,0x55555
    1c10:	55650513          	addi	a0,a0,1366 # 55555556 <absimm+0x10263027>
    1c14:	00453593          	sltiu	a1,a0,4
    1c18:	70b12023          	sw	a1,1792(sp)

00001c1c <inst_467>:
    1c1c:	55555537          	lui	a0,0x55555
    1c20:	55650513          	addi	a0,a0,1366 # 55555556 <absimm+0x10263027>
    1c24:	33253593          	sltiu	a1,a0,818
    1c28:	70b12223          	sw	a1,1796(sp)

00001c2c <inst_468>:
    1c2c:	55555537          	lui	a0,0x55555
    1c30:	55650513          	addi	a0,a0,1366 # 55555556 <absimm+0x10263027>
    1c34:	66553593          	sltiu	a1,a0,1637
    1c38:	70b12423          	sw	a1,1800(sp)

00001c3c <inst_469>:
    1c3c:	55555537          	lui	a0,0x55555
    1c40:	55650513          	addi	a0,a0,1366 # 55555556 <absimm+0x10263027>
    1c44:	02c53593          	sltiu	a1,a0,44
    1c48:	70b12623          	sw	a1,1804(sp)

00001c4c <inst_470>:
    1c4c:	55555537          	lui	a0,0x55555
    1c50:	55650513          	addi	a0,a0,1366 # 55555556 <absimm+0x10263027>
    1c54:	03e53593          	sltiu	a1,a0,62
    1c58:	70b12823          	sw	a1,1808(sp)

00001c5c <inst_471>:
    1c5c:	55555537          	lui	a0,0x55555
    1c60:	55650513          	addi	a0,a0,1366 # 55555556 <absimm+0x10263027>
    1c64:	55653593          	sltiu	a1,a0,1366
    1c68:	70b12a23          	sw	a1,1812(sp)

00001c6c <inst_472>:
    1c6c:	55555537          	lui	a0,0x55555
    1c70:	55650513          	addi	a0,a0,1366 # 55555556 <absimm+0x10263027>
    1c74:	aab53593          	sltiu	a1,a0,-1365
    1c78:	70b12c23          	sw	a1,1816(sp)

00001c7c <inst_473>:
    1c7c:	55555537          	lui	a0,0x55555
    1c80:	55650513          	addi	a0,a0,1366 # 55555556 <absimm+0x10263027>
    1c84:	00653593          	sltiu	a1,a0,6
    1c88:	70b12e23          	sw	a1,1820(sp)

00001c8c <inst_474>:
    1c8c:	55555537          	lui	a0,0x55555
    1c90:	55650513          	addi	a0,a0,1366 # 55555556 <absimm+0x10263027>
    1c94:	33453593          	sltiu	a1,a0,820
    1c98:	72b12023          	sw	a1,1824(sp)

00001c9c <inst_475>:
    1c9c:	55555537          	lui	a0,0x55555
    1ca0:	55650513          	addi	a0,a0,1366 # 55555556 <absimm+0x10263027>
    1ca4:	66753593          	sltiu	a1,a0,1639
    1ca8:	72b12223          	sw	a1,1828(sp)

00001cac <inst_476>:
    1cac:	55555537          	lui	a0,0x55555
    1cb0:	55650513          	addi	a0,a0,1366 # 55555556 <absimm+0x10263027>
    1cb4:	02e53593          	sltiu	a1,a0,46
    1cb8:	72b12423          	sw	a1,1832(sp)

00001cbc <inst_477>:
    1cbc:	55555537          	lui	a0,0x55555
    1cc0:	55650513          	addi	a0,a0,1366 # 55555556 <absimm+0x10263027>
    1cc4:	00153593          	sltiu	a1,a0,1
    1cc8:	72b12623          	sw	a1,1836(sp)

00001ccc <inst_478>:
    1ccc:	55555537          	lui	a0,0x55555
    1cd0:	55650513          	addi	a0,a0,1366 # 55555556 <absimm+0x10263027>
    1cd4:	04053593          	sltiu	a1,a0,64
    1cd8:	72b12823          	sw	a1,1840(sp)

00001cdc <inst_479>:
    1cdc:	aaaab537          	lui	a0,0xaaaab
    1ce0:	aab50513          	addi	a0,a0,-1365 # aaaaaaab <absimm+0x657b857c>
    1ce4:	00353593          	sltiu	a1,a0,3
    1ce8:	72b12a23          	sw	a1,1844(sp)

00001cec <inst_480>:
    1cec:	aaaab537          	lui	a0,0xaaaab
    1cf0:	aab50513          	addi	a0,a0,-1365 # aaaaaaab <absimm+0x657b857c>
    1cf4:	55553593          	sltiu	a1,a0,1365
    1cf8:	72b12c23          	sw	a1,1848(sp)

00001cfc <inst_481>:
    1cfc:	aaaab537          	lui	a0,0xaaaab
    1d00:	aab50513          	addi	a0,a0,-1365 # aaaaaaab <absimm+0x657b857c>
    1d04:	aaa53593          	sltiu	a1,a0,-1366
    1d08:	72b12e23          	sw	a1,1852(sp)

00001d0c <inst_482>:
    1d0c:	aaaab537          	lui	a0,0xaaaab
    1d10:	aab50513          	addi	a0,a0,-1365 # aaaaaaab <absimm+0x657b857c>
    1d14:	00553593          	sltiu	a1,a0,5
    1d18:	74b12023          	sw	a1,1856(sp)

00001d1c <inst_483>:
    1d1c:	aaaab537          	lui	a0,0xaaaab
    1d20:	aab50513          	addi	a0,a0,-1365 # aaaaaaab <absimm+0x657b857c>
    1d24:	33353593          	sltiu	a1,a0,819
    1d28:	74b12223          	sw	a1,1860(sp)

00001d2c <inst_484>:
    1d2c:	aaaab537          	lui	a0,0xaaaab
    1d30:	aab50513          	addi	a0,a0,-1365 # aaaaaaab <absimm+0x657b857c>
    1d34:	66653593          	sltiu	a1,a0,1638
    1d38:	74b12423          	sw	a1,1864(sp)

00001d3c <inst_485>:
    1d3c:	aaaab537          	lui	a0,0xaaaab
    1d40:	aab50513          	addi	a0,a0,-1365 # aaaaaaab <absimm+0x657b857c>
    1d44:	02d53593          	sltiu	a1,a0,45
    1d48:	74b12623          	sw	a1,1868(sp)

00001d4c <inst_486>:
    1d4c:	aaaab537          	lui	a0,0xaaaab
    1d50:	aab50513          	addi	a0,a0,-1365 # aaaaaaab <absimm+0x657b857c>
    1d54:	00053593          	sltiu	a1,a0,0
    1d58:	74b12823          	sw	a1,1872(sp)

00001d5c <inst_487>:
    1d5c:	aaaab537          	lui	a0,0xaaaab
    1d60:	aab50513          	addi	a0,a0,-1365 # aaaaaaab <absimm+0x657b857c>
    1d64:	03f53593          	sltiu	a1,a0,63
    1d68:	74b12a23          	sw	a1,1876(sp)

00001d6c <inst_488>:
    1d6c:	aaaab537          	lui	a0,0xaaaab
    1d70:	aab50513          	addi	a0,a0,-1365 # aaaaaaab <absimm+0x657b857c>
    1d74:	00253593          	sltiu	a1,a0,2
    1d78:	74b12c23          	sw	a1,1880(sp)

00001d7c <inst_489>:
    1d7c:	aaaab537          	lui	a0,0xaaaab
    1d80:	aab50513          	addi	a0,a0,-1365 # aaaaaaab <absimm+0x657b857c>
    1d84:	55453593          	sltiu	a1,a0,1364
    1d88:	74b12e23          	sw	a1,1884(sp)

00001d8c <inst_490>:
    1d8c:	aaaab537          	lui	a0,0xaaaab
    1d90:	aab50513          	addi	a0,a0,-1365 # aaaaaaab <absimm+0x657b857c>
    1d94:	aa953593          	sltiu	a1,a0,-1367
    1d98:	76b12023          	sw	a1,1888(sp)

00001d9c <inst_491>:
    1d9c:	aaaab537          	lui	a0,0xaaaab
    1da0:	aab50513          	addi	a0,a0,-1365 # aaaaaaab <absimm+0x657b857c>
    1da4:	00453593          	sltiu	a1,a0,4
    1da8:	76b12223          	sw	a1,1892(sp)

00001dac <inst_492>:
    1dac:	aaaab537          	lui	a0,0xaaaab
    1db0:	aab50513          	addi	a0,a0,-1365 # aaaaaaab <absimm+0x657b857c>
    1db4:	33253593          	sltiu	a1,a0,818
    1db8:	76b12423          	sw	a1,1896(sp)

00001dbc <inst_493>:
    1dbc:	aaaab537          	lui	a0,0xaaaab
    1dc0:	aab50513          	addi	a0,a0,-1365 # aaaaaaab <absimm+0x657b857c>
    1dc4:	66553593          	sltiu	a1,a0,1637
    1dc8:	76b12623          	sw	a1,1900(sp)

00001dcc <inst_494>:
    1dcc:	aaaab537          	lui	a0,0xaaaab
    1dd0:	aab50513          	addi	a0,a0,-1365 # aaaaaaab <absimm+0x657b857c>
    1dd4:	02c53593          	sltiu	a1,a0,44
    1dd8:	76b12823          	sw	a1,1904(sp)

00001ddc <inst_495>:
    1ddc:	aaaab537          	lui	a0,0xaaaab
    1de0:	aab50513          	addi	a0,a0,-1365 # aaaaaaab <absimm+0x657b857c>
    1de4:	03e53593          	sltiu	a1,a0,62
    1de8:	76b12a23          	sw	a1,1908(sp)

00001dec <inst_496>:
    1dec:	aaaab537          	lui	a0,0xaaaab
    1df0:	aab50513          	addi	a0,a0,-1365 # aaaaaaab <absimm+0x657b857c>
    1df4:	55653593          	sltiu	a1,a0,1366
    1df8:	76b12c23          	sw	a1,1912(sp)

00001dfc <inst_497>:
    1dfc:	aaaab537          	lui	a0,0xaaaab
    1e00:	aab50513          	addi	a0,a0,-1365 # aaaaaaab <absimm+0x657b857c>
    1e04:	aab53593          	sltiu	a1,a0,-1365
    1e08:	76b12e23          	sw	a1,1916(sp)

00001e0c <inst_498>:
    1e0c:	aaaab537          	lui	a0,0xaaaab
    1e10:	aab50513          	addi	a0,a0,-1365 # aaaaaaab <absimm+0x657b857c>
    1e14:	00653593          	sltiu	a1,a0,6
    1e18:	78b12023          	sw	a1,1920(sp)

00001e1c <inst_499>:
    1e1c:	aaaab537          	lui	a0,0xaaaab
    1e20:	aab50513          	addi	a0,a0,-1365 # aaaaaaab <absimm+0x657b857c>
    1e24:	33453593          	sltiu	a1,a0,820
    1e28:	78b12223          	sw	a1,1924(sp)

00001e2c <inst_500>:
    1e2c:	aaaab537          	lui	a0,0xaaaab
    1e30:	aab50513          	addi	a0,a0,-1365 # aaaaaaab <absimm+0x657b857c>
    1e34:	66753593          	sltiu	a1,a0,1639
    1e38:	78b12423          	sw	a1,1928(sp)

00001e3c <inst_501>:
    1e3c:	aaaab537          	lui	a0,0xaaaab
    1e40:	aab50513          	addi	a0,a0,-1365 # aaaaaaab <absimm+0x657b857c>
    1e44:	02e53593          	sltiu	a1,a0,46
    1e48:	78b12623          	sw	a1,1932(sp)

00001e4c <inst_502>:
    1e4c:	aaaab537          	lui	a0,0xaaaab
    1e50:	aab50513          	addi	a0,a0,-1365 # aaaaaaab <absimm+0x657b857c>
    1e54:	00153593          	sltiu	a1,a0,1
    1e58:	78b12823          	sw	a1,1936(sp)

00001e5c <inst_503>:
    1e5c:	aaaab537          	lui	a0,0xaaaab
    1e60:	aab50513          	addi	a0,a0,-1365 # aaaaaaab <absimm+0x657b857c>
    1e64:	04053593          	sltiu	a1,a0,64
    1e68:	78b12a23          	sw	a1,1940(sp)

00001e6c <inst_504>:
    1e6c:	00600513          	addi	a0,zero,6
    1e70:	00353593          	sltiu	a1,a0,3
    1e74:	78b12c23          	sw	a1,1944(sp)

00001e78 <inst_505>:
    1e78:	00600513          	addi	a0,zero,6
    1e7c:	55553593          	sltiu	a1,a0,1365
    1e80:	78b12e23          	sw	a1,1948(sp)

00001e84 <inst_506>:
    1e84:	00600513          	addi	a0,zero,6
    1e88:	aaa53593          	sltiu	a1,a0,-1366
    1e8c:	7ab12023          	sw	a1,1952(sp)

00001e90 <inst_507>:
    1e90:	00600513          	addi	a0,zero,6
    1e94:	00553593          	sltiu	a1,a0,5
    1e98:	7ab12223          	sw	a1,1956(sp)

00001e9c <inst_508>:
    1e9c:	00600513          	addi	a0,zero,6
    1ea0:	33353593          	sltiu	a1,a0,819
    1ea4:	7ab12423          	sw	a1,1960(sp)

00001ea8 <inst_509>:
    1ea8:	00600513          	addi	a0,zero,6
    1eac:	66653593          	sltiu	a1,a0,1638
    1eb0:	7ab12623          	sw	a1,1964(sp)

00001eb4 <inst_510>:
    1eb4:	00600513          	addi	a0,zero,6
    1eb8:	02d53593          	sltiu	a1,a0,45
    1ebc:	7ab12823          	sw	a1,1968(sp)

00001ec0 <inst_511>:
    1ec0:	00600513          	addi	a0,zero,6
    1ec4:	00053593          	sltiu	a1,a0,0
    1ec8:	7ab12a23          	sw	a1,1972(sp)

00001ecc <inst_512>:
    1ecc:	00600513          	addi	a0,zero,6
    1ed0:	03f53593          	sltiu	a1,a0,63
    1ed4:	7ab12c23          	sw	a1,1976(sp)

00001ed8 <inst_513>:
    1ed8:	00600513          	addi	a0,zero,6
    1edc:	00253593          	sltiu	a1,a0,2
    1ee0:	7ab12e23          	sw	a1,1980(sp)

00001ee4 <inst_514>:
    1ee4:	00600513          	addi	a0,zero,6
    1ee8:	55453593          	sltiu	a1,a0,1364
    1eec:	7cb12023          	sw	a1,1984(sp)

00001ef0 <inst_515>:
    1ef0:	00600513          	addi	a0,zero,6
    1ef4:	aa953593          	sltiu	a1,a0,-1367
    1ef8:	7cb12223          	sw	a1,1988(sp)

00001efc <inst_516>:
    1efc:	00600513          	addi	a0,zero,6
    1f00:	00453593          	sltiu	a1,a0,4
    1f04:	7cb12423          	sw	a1,1992(sp)

00001f08 <inst_517>:
    1f08:	00600513          	addi	a0,zero,6
    1f0c:	33253593          	sltiu	a1,a0,818
    1f10:	7cb12623          	sw	a1,1996(sp)

00001f14 <inst_518>:
    1f14:	00600513          	addi	a0,zero,6
    1f18:	66553593          	sltiu	a1,a0,1637
    1f1c:	7cb12823          	sw	a1,2000(sp)

00001f20 <inst_519>:
    1f20:	00600513          	addi	a0,zero,6
    1f24:	02c53593          	sltiu	a1,a0,44
    1f28:	7cb12a23          	sw	a1,2004(sp)

00001f2c <inst_520>:
    1f2c:	00600513          	addi	a0,zero,6
    1f30:	03e53593          	sltiu	a1,a0,62
    1f34:	7cb12c23          	sw	a1,2008(sp)

00001f38 <inst_521>:
    1f38:	00600513          	addi	a0,zero,6
    1f3c:	55653593          	sltiu	a1,a0,1366
    1f40:	7cb12e23          	sw	a1,2012(sp)

00001f44 <inst_522>:
    1f44:	00600513          	addi	a0,zero,6
    1f48:	aab53593          	sltiu	a1,a0,-1365
    1f4c:	7eb12023          	sw	a1,2016(sp)

00001f50 <inst_523>:
    1f50:	00600513          	addi	a0,zero,6
    1f54:	00653593          	sltiu	a1,a0,6
    1f58:	7eb12223          	sw	a1,2020(sp)

00001f5c <inst_524>:
    1f5c:	00600513          	addi	a0,zero,6
    1f60:	33453593          	sltiu	a1,a0,820
    1f64:	7eb12423          	sw	a1,2024(sp)

00001f68 <inst_525>:
    1f68:	00600513          	addi	a0,zero,6
    1f6c:	66753593          	sltiu	a1,a0,1639
    1f70:	7eb12623          	sw	a1,2028(sp)

00001f74 <inst_526>:
    1f74:	00600513          	addi	a0,zero,6
    1f78:	02e53593          	sltiu	a1,a0,46
    1f7c:	7eb12823          	sw	a1,2032(sp)

00001f80 <inst_527>:
    1f80:	00600513          	addi	a0,zero,6
    1f84:	00153593          	sltiu	a1,a0,1
    1f88:	7eb12a23          	sw	a1,2036(sp)

00001f8c <inst_528>:
    1f8c:	00600513          	addi	a0,zero,6
    1f90:	04053593          	sltiu	a1,a0,64
    1f94:	7eb12c23          	sw	a1,2040(sp)

00001f98 <inst_529>:
    1f98:	33333537          	lui	a0,0x33333
    1f9c:	33450513          	addi	a0,a0,820 # 33333334 <_end+0x3332952c>
    1fa0:	00353593          	sltiu	a1,a0,3
    1fa4:	7eb12e23          	sw	a1,2044(sp)
    1fa8:	00000013          	addi	zero,zero,0
    1fac:	00000013          	addi	zero,zero,0
    1fb0:	00000013          	addi	zero,zero,0
    1fb4:	00000013          	addi	zero,zero,0
    1fb8:	00000013          	addi	zero,zero,0
    1fbc:	00000013          	addi	zero,zero,0
    1fc0:	00008117          	auipc	sp,0x8
    1fc4:	99c10113          	addi	sp,sp,-1636 # 995c <signature_x2_1>
    1fc8:	00000013          	addi	zero,zero,0
    1fcc:	00000013          	addi	zero,zero,0
    1fd0:	00000013          	addi	zero,zero,0
    1fd4:	00000013          	addi	zero,zero,0
    1fd8:	00000013          	addi	zero,zero,0
    1fdc:	00000013          	addi	zero,zero,0

00001fe0 <inst_530>:
    1fe0:	33333537          	lui	a0,0x33333
    1fe4:	33450513          	addi	a0,a0,820 # 33333334 <_end+0x3332952c>
    1fe8:	55553593          	sltiu	a1,a0,1365
    1fec:	00b12023          	sw	a1,0(sp)

00001ff0 <inst_531>:
    1ff0:	33333537          	lui	a0,0x33333
    1ff4:	33450513          	addi	a0,a0,820 # 33333334 <_end+0x3332952c>
    1ff8:	aaa53593          	sltiu	a1,a0,-1366
    1ffc:	00b12223          	sw	a1,4(sp)

00002000 <inst_532>:
    2000:	33333537          	lui	a0,0x33333
    2004:	33450513          	addi	a0,a0,820 # 33333334 <_end+0x3332952c>
    2008:	00553593          	sltiu	a1,a0,5
    200c:	00b12423          	sw	a1,8(sp)

00002010 <inst_533>:
    2010:	33333537          	lui	a0,0x33333
    2014:	33450513          	addi	a0,a0,820 # 33333334 <_end+0x3332952c>
    2018:	33353593          	sltiu	a1,a0,819
    201c:	00b12623          	sw	a1,12(sp)

00002020 <inst_534>:
    2020:	33333537          	lui	a0,0x33333
    2024:	33450513          	addi	a0,a0,820 # 33333334 <_end+0x3332952c>
    2028:	66653593          	sltiu	a1,a0,1638
    202c:	00b12823          	sw	a1,16(sp)

00002030 <inst_535>:
    2030:	33333537          	lui	a0,0x33333
    2034:	33450513          	addi	a0,a0,820 # 33333334 <_end+0x3332952c>
    2038:	02d53593          	sltiu	a1,a0,45
    203c:	00b12a23          	sw	a1,20(sp)

00002040 <inst_536>:
    2040:	33333537          	lui	a0,0x33333
    2044:	33450513          	addi	a0,a0,820 # 33333334 <_end+0x3332952c>
    2048:	00053593          	sltiu	a1,a0,0
    204c:	00b12c23          	sw	a1,24(sp)

00002050 <inst_537>:
    2050:	33333537          	lui	a0,0x33333
    2054:	33450513          	addi	a0,a0,820 # 33333334 <_end+0x3332952c>
    2058:	03f53593          	sltiu	a1,a0,63
    205c:	00b12e23          	sw	a1,28(sp)

00002060 <inst_538>:
    2060:	33333537          	lui	a0,0x33333
    2064:	33450513          	addi	a0,a0,820 # 33333334 <_end+0x3332952c>
    2068:	00253593          	sltiu	a1,a0,2
    206c:	02b12023          	sw	a1,32(sp)

00002070 <inst_539>:
    2070:	33333537          	lui	a0,0x33333
    2074:	33450513          	addi	a0,a0,820 # 33333334 <_end+0x3332952c>
    2078:	55453593          	sltiu	a1,a0,1364
    207c:	02b12223          	sw	a1,36(sp)

00002080 <inst_540>:
    2080:	33333537          	lui	a0,0x33333
    2084:	33450513          	addi	a0,a0,820 # 33333334 <_end+0x3332952c>
    2088:	aa953593          	sltiu	a1,a0,-1367
    208c:	02b12423          	sw	a1,40(sp)

00002090 <inst_541>:
    2090:	33333537          	lui	a0,0x33333
    2094:	33450513          	addi	a0,a0,820 # 33333334 <_end+0x3332952c>
    2098:	00453593          	sltiu	a1,a0,4
    209c:	02b12623          	sw	a1,44(sp)

000020a0 <inst_542>:
    20a0:	33333537          	lui	a0,0x33333
    20a4:	33450513          	addi	a0,a0,820 # 33333334 <_end+0x3332952c>
    20a8:	33253593          	sltiu	a1,a0,818
    20ac:	02b12823          	sw	a1,48(sp)

000020b0 <inst_543>:
    20b0:	33333537          	lui	a0,0x33333
    20b4:	33450513          	addi	a0,a0,820 # 33333334 <_end+0x3332952c>
    20b8:	66553593          	sltiu	a1,a0,1637
    20bc:	02b12a23          	sw	a1,52(sp)

000020c0 <inst_544>:
    20c0:	33333537          	lui	a0,0x33333
    20c4:	33450513          	addi	a0,a0,820 # 33333334 <_end+0x3332952c>
    20c8:	02c53593          	sltiu	a1,a0,44
    20cc:	02b12c23          	sw	a1,56(sp)

000020d0 <inst_545>:
    20d0:	33333537          	lui	a0,0x33333
    20d4:	33450513          	addi	a0,a0,820 # 33333334 <_end+0x3332952c>
    20d8:	03e53593          	sltiu	a1,a0,62
    20dc:	02b12e23          	sw	a1,60(sp)

000020e0 <inst_546>:
    20e0:	33333537          	lui	a0,0x33333
    20e4:	33450513          	addi	a0,a0,820 # 33333334 <_end+0x3332952c>
    20e8:	55653593          	sltiu	a1,a0,1366
    20ec:	04b12023          	sw	a1,64(sp)

000020f0 <inst_547>:
    20f0:	33333537          	lui	a0,0x33333
    20f4:	33450513          	addi	a0,a0,820 # 33333334 <_end+0x3332952c>
    20f8:	aab53593          	sltiu	a1,a0,-1365
    20fc:	04b12223          	sw	a1,68(sp)

00002100 <inst_548>:
    2100:	33333537          	lui	a0,0x33333
    2104:	33450513          	addi	a0,a0,820 # 33333334 <_end+0x3332952c>
    2108:	00653593          	sltiu	a1,a0,6
    210c:	04b12423          	sw	a1,72(sp)

00002110 <inst_549>:
    2110:	33333537          	lui	a0,0x33333
    2114:	33450513          	addi	a0,a0,820 # 33333334 <_end+0x3332952c>
    2118:	33453593          	sltiu	a1,a0,820
    211c:	04b12623          	sw	a1,76(sp)

00002120 <inst_550>:
    2120:	33333537          	lui	a0,0x33333
    2124:	33450513          	addi	a0,a0,820 # 33333334 <_end+0x3332952c>
    2128:	66753593          	sltiu	a1,a0,1639
    212c:	04b12823          	sw	a1,80(sp)

00002130 <inst_551>:
    2130:	33333537          	lui	a0,0x33333
    2134:	33450513          	addi	a0,a0,820 # 33333334 <_end+0x3332952c>
    2138:	02e53593          	sltiu	a1,a0,46
    213c:	04b12a23          	sw	a1,84(sp)

00002140 <inst_552>:
    2140:	33333537          	lui	a0,0x33333
    2144:	33450513          	addi	a0,a0,820 # 33333334 <_end+0x3332952c>
    2148:	00153593          	sltiu	a1,a0,1
    214c:	04b12c23          	sw	a1,88(sp)

00002150 <inst_553>:
    2150:	33333537          	lui	a0,0x33333
    2154:	33450513          	addi	a0,a0,820 # 33333334 <_end+0x3332952c>
    2158:	04053593          	sltiu	a1,a0,64
    215c:	04b12e23          	sw	a1,92(sp)

00002160 <inst_554>:
    2160:	66666537          	lui	a0,0x66666
    2164:	66750513          	addi	a0,a0,1639 # 66666667 <absimm+0x21374138>
    2168:	00353593          	sltiu	a1,a0,3
    216c:	06b12023          	sw	a1,96(sp)

00002170 <inst_555>:
    2170:	66666537          	lui	a0,0x66666
    2174:	66750513          	addi	a0,a0,1639 # 66666667 <absimm+0x21374138>
    2178:	55553593          	sltiu	a1,a0,1365
    217c:	06b12223          	sw	a1,100(sp)

00002180 <inst_556>:
    2180:	66666537          	lui	a0,0x66666
    2184:	66750513          	addi	a0,a0,1639 # 66666667 <absimm+0x21374138>
    2188:	aaa53593          	sltiu	a1,a0,-1366
    218c:	06b12423          	sw	a1,104(sp)

00002190 <inst_557>:
    2190:	66666537          	lui	a0,0x66666
    2194:	66750513          	addi	a0,a0,1639 # 66666667 <absimm+0x21374138>
    2198:	00553593          	sltiu	a1,a0,5
    219c:	06b12623          	sw	a1,108(sp)

000021a0 <inst_558>:
    21a0:	66666537          	lui	a0,0x66666
    21a4:	66750513          	addi	a0,a0,1639 # 66666667 <absimm+0x21374138>
    21a8:	33353593          	sltiu	a1,a0,819
    21ac:	06b12823          	sw	a1,112(sp)

000021b0 <inst_559>:
    21b0:	66666537          	lui	a0,0x66666
    21b4:	66750513          	addi	a0,a0,1639 # 66666667 <absimm+0x21374138>
    21b8:	66653593          	sltiu	a1,a0,1638
    21bc:	06b12a23          	sw	a1,116(sp)

000021c0 <inst_560>:
    21c0:	66666537          	lui	a0,0x66666
    21c4:	66750513          	addi	a0,a0,1639 # 66666667 <absimm+0x21374138>
    21c8:	02d53593          	sltiu	a1,a0,45
    21cc:	06b12c23          	sw	a1,120(sp)

000021d0 <inst_561>:
    21d0:	66666537          	lui	a0,0x66666
    21d4:	66750513          	addi	a0,a0,1639 # 66666667 <absimm+0x21374138>
    21d8:	00053593          	sltiu	a1,a0,0
    21dc:	06b12e23          	sw	a1,124(sp)

000021e0 <inst_562>:
    21e0:	66666537          	lui	a0,0x66666
    21e4:	66750513          	addi	a0,a0,1639 # 66666667 <absimm+0x21374138>
    21e8:	03f53593          	sltiu	a1,a0,63
    21ec:	08b12023          	sw	a1,128(sp)

000021f0 <inst_563>:
    21f0:	66666537          	lui	a0,0x66666
    21f4:	66750513          	addi	a0,a0,1639 # 66666667 <absimm+0x21374138>
    21f8:	00253593          	sltiu	a1,a0,2
    21fc:	08b12223          	sw	a1,132(sp)

00002200 <inst_564>:
    2200:	66666537          	lui	a0,0x66666
    2204:	66750513          	addi	a0,a0,1639 # 66666667 <absimm+0x21374138>
    2208:	55453593          	sltiu	a1,a0,1364
    220c:	08b12423          	sw	a1,136(sp)

00002210 <inst_565>:
    2210:	66666537          	lui	a0,0x66666
    2214:	66750513          	addi	a0,a0,1639 # 66666667 <absimm+0x21374138>
    2218:	aa953593          	sltiu	a1,a0,-1367
    221c:	08b12623          	sw	a1,140(sp)

00002220 <inst_566>:
    2220:	66666537          	lui	a0,0x66666
    2224:	66750513          	addi	a0,a0,1639 # 66666667 <absimm+0x21374138>
    2228:	00453593          	sltiu	a1,a0,4
    222c:	08b12823          	sw	a1,144(sp)

00002230 <inst_567>:
    2230:	66666537          	lui	a0,0x66666
    2234:	66750513          	addi	a0,a0,1639 # 66666667 <absimm+0x21374138>
    2238:	33253593          	sltiu	a1,a0,818
    223c:	08b12a23          	sw	a1,148(sp)

00002240 <inst_568>:
    2240:	66666537          	lui	a0,0x66666
    2244:	66750513          	addi	a0,a0,1639 # 66666667 <absimm+0x21374138>
    2248:	66553593          	sltiu	a1,a0,1637
    224c:	08b12c23          	sw	a1,152(sp)

00002250 <inst_569>:
    2250:	66666537          	lui	a0,0x66666
    2254:	66750513          	addi	a0,a0,1639 # 66666667 <absimm+0x21374138>
    2258:	02c53593          	sltiu	a1,a0,44
    225c:	08b12e23          	sw	a1,156(sp)

00002260 <inst_570>:
    2260:	66666537          	lui	a0,0x66666
    2264:	66750513          	addi	a0,a0,1639 # 66666667 <absimm+0x21374138>
    2268:	03e53593          	sltiu	a1,a0,62
    226c:	0ab12023          	sw	a1,160(sp)

00002270 <inst_571>:
    2270:	00010537          	lui	a0,0x10
    2274:	ffe50513          	addi	a0,a0,-2 # fffe <_end+0x61f6>
    2278:	66653593          	sltiu	a1,a0,1638
    227c:	0ab12223          	sw	a1,164(sp)

00002280 <inst_572>:
    2280:	66666537          	lui	a0,0x66666
    2284:	66750513          	addi	a0,a0,1639 # 66666667 <absimm+0x21374138>
    2288:	55653593          	sltiu	a1,a0,1366
    228c:	0ab12423          	sw	a1,168(sp)

00002290 <inst_573>:
    2290:	66666537          	lui	a0,0x66666
    2294:	66750513          	addi	a0,a0,1639 # 66666667 <absimm+0x21374138>
    2298:	aab53593          	sltiu	a1,a0,-1365
    229c:	0ab12623          	sw	a1,172(sp)

000022a0 <inst_574>:
    22a0:	66666537          	lui	a0,0x66666
    22a4:	66750513          	addi	a0,a0,1639 # 66666667 <absimm+0x21374138>
    22a8:	00653593          	sltiu	a1,a0,6
    22ac:	0ab12823          	sw	a1,176(sp)

000022b0 <inst_575>:
    22b0:	66666537          	lui	a0,0x66666
    22b4:	66750513          	addi	a0,a0,1639 # 66666667 <absimm+0x21374138>
    22b8:	33453593          	sltiu	a1,a0,820
    22bc:	0ab12a23          	sw	a1,180(sp)

000022c0 <inst_576>:
    22c0:	66666537          	lui	a0,0x66666
    22c4:	66750513          	addi	a0,a0,1639 # 66666667 <absimm+0x21374138>
    22c8:	66753593          	sltiu	a1,a0,1639
    22cc:	0ab12c23          	sw	a1,184(sp)

000022d0 <inst_577>:
    22d0:	66666537          	lui	a0,0x66666
    22d4:	66750513          	addi	a0,a0,1639 # 66666667 <absimm+0x21374138>
    22d8:	02e53593          	sltiu	a1,a0,46
    22dc:	0ab12e23          	sw	a1,188(sp)

000022e0 <inst_578>:
    22e0:	66666537          	lui	a0,0x66666
    22e4:	66750513          	addi	a0,a0,1639 # 66666667 <absimm+0x21374138>
    22e8:	00153593          	sltiu	a1,a0,1
    22ec:	0cb12023          	sw	a1,192(sp)

000022f0 <inst_579>:
    22f0:	66666537          	lui	a0,0x66666
    22f4:	66750513          	addi	a0,a0,1639 # 66666667 <absimm+0x21374138>
    22f8:	04053593          	sltiu	a1,a0,64
    22fc:	0cb12223          	sw	a1,196(sp)

00002300 <inst_580>:
    2300:	0000b537          	lui	a0,0xb
    2304:	50550513          	addi	a0,a0,1285 # b505 <_end+0x16fd>
    2308:	00353593          	sltiu	a1,a0,3
    230c:	0cb12423          	sw	a1,200(sp)

00002310 <inst_581>:
    2310:	0000b537          	lui	a0,0xb
    2314:	50550513          	addi	a0,a0,1285 # b505 <_end+0x16fd>
    2318:	55553593          	sltiu	a1,a0,1365
    231c:	0cb12623          	sw	a1,204(sp)

00002320 <inst_582>:
    2320:	0000b537          	lui	a0,0xb
    2324:	50550513          	addi	a0,a0,1285 # b505 <_end+0x16fd>
    2328:	aaa53593          	sltiu	a1,a0,-1366
    232c:	0cb12823          	sw	a1,208(sp)

00002330 <inst_583>:
    2330:	0000b537          	lui	a0,0xb
    2334:	50550513          	addi	a0,a0,1285 # b505 <_end+0x16fd>
    2338:	00553593          	sltiu	a1,a0,5
    233c:	0cb12a23          	sw	a1,212(sp)

00002340 <inst_584>:
    2340:	0000b537          	lui	a0,0xb
    2344:	50550513          	addi	a0,a0,1285 # b505 <_end+0x16fd>
    2348:	33353593          	sltiu	a1,a0,819
    234c:	0cb12c23          	sw	a1,216(sp)

00002350 <inst_585>:
    2350:	0000b537          	lui	a0,0xb
    2354:	50550513          	addi	a0,a0,1285 # b505 <_end+0x16fd>
    2358:	66653593          	sltiu	a1,a0,1638
    235c:	0cb12e23          	sw	a1,220(sp)

00002360 <inst_586>:
    2360:	0000b537          	lui	a0,0xb
    2364:	50550513          	addi	a0,a0,1285 # b505 <_end+0x16fd>
    2368:	02d53593          	sltiu	a1,a0,45
    236c:	0eb12023          	sw	a1,224(sp)

00002370 <inst_587>:
    2370:	0000b537          	lui	a0,0xb
    2374:	50550513          	addi	a0,a0,1285 # b505 <_end+0x16fd>
    2378:	00053593          	sltiu	a1,a0,0
    237c:	0eb12223          	sw	a1,228(sp)

00002380 <inst_588>:
    2380:	0000b537          	lui	a0,0xb
    2384:	50550513          	addi	a0,a0,1285 # b505 <_end+0x16fd>
    2388:	03f53593          	sltiu	a1,a0,63
    238c:	0eb12423          	sw	a1,232(sp)

00002390 <inst_589>:
    2390:	0000b537          	lui	a0,0xb
    2394:	50550513          	addi	a0,a0,1285 # b505 <_end+0x16fd>
    2398:	00253593          	sltiu	a1,a0,2
    239c:	0eb12623          	sw	a1,236(sp)

000023a0 <inst_590>:
    23a0:	0000b537          	lui	a0,0xb
    23a4:	50550513          	addi	a0,a0,1285 # b505 <_end+0x16fd>
    23a8:	55453593          	sltiu	a1,a0,1364
    23ac:	0eb12823          	sw	a1,240(sp)

000023b0 <inst_591>:
    23b0:	0000b537          	lui	a0,0xb
    23b4:	50550513          	addi	a0,a0,1285 # b505 <_end+0x16fd>
    23b8:	aa953593          	sltiu	a1,a0,-1367
    23bc:	0eb12a23          	sw	a1,244(sp)

000023c0 <inst_592>:
    23c0:	0000b537          	lui	a0,0xb
    23c4:	50550513          	addi	a0,a0,1285 # b505 <_end+0x16fd>
    23c8:	00453593          	sltiu	a1,a0,4
    23cc:	0eb12c23          	sw	a1,248(sp)

000023d0 <inst_593>:
    23d0:	0000b537          	lui	a0,0xb
    23d4:	50550513          	addi	a0,a0,1285 # b505 <_end+0x16fd>
    23d8:	33253593          	sltiu	a1,a0,818
    23dc:	0eb12e23          	sw	a1,252(sp)

000023e0 <inst_594>:
    23e0:	0000b537          	lui	a0,0xb
    23e4:	50550513          	addi	a0,a0,1285 # b505 <_end+0x16fd>
    23e8:	66553593          	sltiu	a1,a0,1637
    23ec:	10b12023          	sw	a1,256(sp)

000023f0 <inst_595>:
    23f0:	0000b537          	lui	a0,0xb
    23f4:	50550513          	addi	a0,a0,1285 # b505 <_end+0x16fd>
    23f8:	02c53593          	sltiu	a1,a0,44
    23fc:	10b12223          	sw	a1,260(sp)

00002400 <inst_596>:
    2400:	0000b537          	lui	a0,0xb
    2404:	50550513          	addi	a0,a0,1285 # b505 <_end+0x16fd>
    2408:	03e53593          	sltiu	a1,a0,62
    240c:	10b12423          	sw	a1,264(sp)

00002410 <inst_597>:
    2410:	0000b537          	lui	a0,0xb
    2414:	50550513          	addi	a0,a0,1285 # b505 <_end+0x16fd>
    2418:	55653593          	sltiu	a1,a0,1366
    241c:	10b12623          	sw	a1,268(sp)

00002420 <inst_598>:
    2420:	0000b537          	lui	a0,0xb
    2424:	50550513          	addi	a0,a0,1285 # b505 <_end+0x16fd>
    2428:	aab53593          	sltiu	a1,a0,-1365
    242c:	10b12823          	sw	a1,272(sp)

00002430 <inst_599>:
    2430:	0000b537          	lui	a0,0xb
    2434:	50550513          	addi	a0,a0,1285 # b505 <_end+0x16fd>
    2438:	00653593          	sltiu	a1,a0,6
    243c:	10b12a23          	sw	a1,276(sp)

00002440 <inst_600>:
    2440:	0000b537          	lui	a0,0xb
    2444:	50550513          	addi	a0,a0,1285 # b505 <_end+0x16fd>
    2448:	33453593          	sltiu	a1,a0,820
    244c:	10b12c23          	sw	a1,280(sp)

00002450 <inst_601>:
    2450:	0000b537          	lui	a0,0xb
    2454:	50550513          	addi	a0,a0,1285 # b505 <_end+0x16fd>
    2458:	66753593          	sltiu	a1,a0,1639
    245c:	10b12e23          	sw	a1,284(sp)

00002460 <inst_602>:
    2460:	0000b537          	lui	a0,0xb
    2464:	50550513          	addi	a0,a0,1285 # b505 <_end+0x16fd>
    2468:	02e53593          	sltiu	a1,a0,46
    246c:	12b12023          	sw	a1,288(sp)

00002470 <inst_603>:
    2470:	0000b537          	lui	a0,0xb
    2474:	50550513          	addi	a0,a0,1285 # b505 <_end+0x16fd>
    2478:	00153593          	sltiu	a1,a0,1
    247c:	12b12223          	sw	a1,292(sp)

00002480 <inst_604>:
    2480:	0000b537          	lui	a0,0xb
    2484:	50550513          	addi	a0,a0,1285 # b505 <_end+0x16fd>
    2488:	04053593          	sltiu	a1,a0,64
    248c:	12b12423          	sw	a1,296(sp)

00002490 <inst_605>:
    2490:	00100513          	addi	a0,zero,1
    2494:	00353593          	sltiu	a1,a0,3
    2498:	12b12623          	sw	a1,300(sp)

0000249c <inst_606>:
    249c:	00100513          	addi	a0,zero,1
    24a0:	55553593          	sltiu	a1,a0,1365
    24a4:	12b12823          	sw	a1,304(sp)

000024a8 <inst_607>:
    24a8:	00100513          	addi	a0,zero,1
    24ac:	aaa53593          	sltiu	a1,a0,-1366
    24b0:	12b12a23          	sw	a1,308(sp)

000024b4 <inst_608>:
    24b4:	00100513          	addi	a0,zero,1
    24b8:	00553593          	sltiu	a1,a0,5
    24bc:	12b12c23          	sw	a1,312(sp)

000024c0 <inst_609>:
    24c0:	00100513          	addi	a0,zero,1
    24c4:	33353593          	sltiu	a1,a0,819
    24c8:	12b12e23          	sw	a1,316(sp)

000024cc <inst_610>:
    24cc:	00100513          	addi	a0,zero,1
    24d0:	66653593          	sltiu	a1,a0,1638
    24d4:	14b12023          	sw	a1,320(sp)

000024d8 <inst_611>:
    24d8:	00100513          	addi	a0,zero,1
    24dc:	02d53593          	sltiu	a1,a0,45
    24e0:	14b12223          	sw	a1,324(sp)

000024e4 <inst_612>:
    24e4:	00100513          	addi	a0,zero,1
    24e8:	03f53593          	sltiu	a1,a0,63
    24ec:	14b12423          	sw	a1,328(sp)

000024f0 <inst_613>:
    24f0:	00100513          	addi	a0,zero,1
    24f4:	00253593          	sltiu	a1,a0,2
    24f8:	14b12623          	sw	a1,332(sp)

000024fc <inst_614>:
    24fc:	00100513          	addi	a0,zero,1
    2500:	55453593          	sltiu	a1,a0,1364
    2504:	14b12823          	sw	a1,336(sp)

00002508 <inst_615>:
    2508:	00100513          	addi	a0,zero,1
    250c:	aa953593          	sltiu	a1,a0,-1367
    2510:	14b12a23          	sw	a1,340(sp)

00002514 <inst_616>:
    2514:	00100513          	addi	a0,zero,1
    2518:	00453593          	sltiu	a1,a0,4
    251c:	14b12c23          	sw	a1,344(sp)

00002520 <inst_617>:
    2520:	00100513          	addi	a0,zero,1
    2524:	33253593          	sltiu	a1,a0,818
    2528:	14b12e23          	sw	a1,348(sp)

0000252c <inst_618>:
    252c:	00100513          	addi	a0,zero,1
    2530:	66553593          	sltiu	a1,a0,1637
    2534:	16b12023          	sw	a1,352(sp)

00002538 <inst_619>:
    2538:	00100513          	addi	a0,zero,1
    253c:	02c53593          	sltiu	a1,a0,44
    2540:	16b12223          	sw	a1,356(sp)

00002544 <inst_620>:
    2544:	00100513          	addi	a0,zero,1
    2548:	03e53593          	sltiu	a1,a0,62
    254c:	16b12423          	sw	a1,360(sp)

00002550 <inst_621>:
    2550:	00100513          	addi	a0,zero,1
    2554:	55653593          	sltiu	a1,a0,1366
    2558:	16b12623          	sw	a1,364(sp)

0000255c <inst_622>:
    255c:	00100513          	addi	a0,zero,1
    2560:	aab53593          	sltiu	a1,a0,-1365
    2564:	16b12823          	sw	a1,368(sp)

00002568 <inst_623>:
    2568:	00100513          	addi	a0,zero,1
    256c:	00653593          	sltiu	a1,a0,6
    2570:	16b12a23          	sw	a1,372(sp)

00002574 <inst_624>:
    2574:	00100513          	addi	a0,zero,1
    2578:	33453593          	sltiu	a1,a0,820
    257c:	16b12c23          	sw	a1,376(sp)

00002580 <inst_625>:
    2580:	00100513          	addi	a0,zero,1
    2584:	66753593          	sltiu	a1,a0,1639
    2588:	16b12e23          	sw	a1,380(sp)

0000258c <inst_626>:
    258c:	00100513          	addi	a0,zero,1
    2590:	02e53593          	sltiu	a1,a0,46
    2594:	18b12023          	sw	a1,384(sp)

00002598 <inst_627>:
    2598:	00100513          	addi	a0,zero,1
    259c:	00153593          	sltiu	a1,a0,1
    25a0:	18b12223          	sw	a1,388(sp)

000025a4 <inst_628>:
    25a4:	00100513          	addi	a0,zero,1
    25a8:	04053593          	sltiu	a1,a0,64
    25ac:	18b12423          	sw	a1,392(sp)

000025b0 <inst_629>:
    25b0:	00010537          	lui	a0,0x10
    25b4:	00353593          	sltiu	a1,a0,3
    25b8:	18b12623          	sw	a1,396(sp)

000025bc <inst_630>:
    25bc:	00010537          	lui	a0,0x10
    25c0:	55553593          	sltiu	a1,a0,1365
    25c4:	18b12823          	sw	a1,400(sp)

000025c8 <inst_631>:
    25c8:	00010537          	lui	a0,0x10
    25cc:	aaa53593          	sltiu	a1,a0,-1366
    25d0:	18b12a23          	sw	a1,404(sp)

000025d4 <inst_632>:
    25d4:	00010537          	lui	a0,0x10
    25d8:	33353593          	sltiu	a1,a0,819
    25dc:	18b12c23          	sw	a1,408(sp)

000025e0 <inst_633>:
    25e0:	00010537          	lui	a0,0x10
    25e4:	66653593          	sltiu	a1,a0,1638
    25e8:	18b12e23          	sw	a1,412(sp)

000025ec <inst_634>:
    25ec:	00010537          	lui	a0,0x10
    25f0:	02d53593          	sltiu	a1,a0,45
    25f4:	1ab12023          	sw	a1,416(sp)

000025f8 <inst_635>:
    25f8:	00010537          	lui	a0,0x10
    25fc:	00053593          	sltiu	a1,a0,0
    2600:	1ab12223          	sw	a1,420(sp)

00002604 <inst_636>:
    2604:	00010537          	lui	a0,0x10
    2608:	03f53593          	sltiu	a1,a0,63
    260c:	1ab12423          	sw	a1,424(sp)

00002610 <inst_637>:
    2610:	00010537          	lui	a0,0x10
    2614:	00253593          	sltiu	a1,a0,2
    2618:	1ab12623          	sw	a1,428(sp)

0000261c <inst_638>:
    261c:	00010537          	lui	a0,0x10
    2620:	55453593          	sltiu	a1,a0,1364
    2624:	1ab12823          	sw	a1,432(sp)

00002628 <inst_639>:
    2628:	00010537          	lui	a0,0x10
    262c:	aa953593          	sltiu	a1,a0,-1367
    2630:	1ab12a23          	sw	a1,436(sp)

00002634 <inst_640>:
    2634:	00010537          	lui	a0,0x10
    2638:	00453593          	sltiu	a1,a0,4
    263c:	1ab12c23          	sw	a1,440(sp)

00002640 <inst_641>:
    2640:	00010537          	lui	a0,0x10
    2644:	33253593          	sltiu	a1,a0,818
    2648:	1ab12e23          	sw	a1,444(sp)

0000264c <inst_642>:
    264c:	00010537          	lui	a0,0x10
    2650:	66553593          	sltiu	a1,a0,1637
    2654:	1cb12023          	sw	a1,448(sp)

00002658 <inst_643>:
    2658:	00010537          	lui	a0,0x10
    265c:	02c53593          	sltiu	a1,a0,44
    2660:	1cb12223          	sw	a1,452(sp)

00002664 <inst_644>:
    2664:	00010537          	lui	a0,0x10
    2668:	03e53593          	sltiu	a1,a0,62
    266c:	1cb12423          	sw	a1,456(sp)

00002670 <inst_645>:
    2670:	00010537          	lui	a0,0x10
    2674:	55653593          	sltiu	a1,a0,1366
    2678:	1cb12623          	sw	a1,460(sp)

0000267c <inst_646>:
    267c:	00010537          	lui	a0,0x10
    2680:	aab53593          	sltiu	a1,a0,-1365
    2684:	1cb12823          	sw	a1,464(sp)

00002688 <inst_647>:
    2688:	00010537          	lui	a0,0x10
    268c:	00653593          	sltiu	a1,a0,6
    2690:	1cb12a23          	sw	a1,468(sp)

00002694 <inst_648>:
    2694:	00010537          	lui	a0,0x10
    2698:	33453593          	sltiu	a1,a0,820
    269c:	1cb12c23          	sw	a1,472(sp)

000026a0 <inst_649>:
    26a0:	00010537          	lui	a0,0x10
    26a4:	66753593          	sltiu	a1,a0,1639
    26a8:	1cb12e23          	sw	a1,476(sp)

000026ac <inst_650>:
    26ac:	00010537          	lui	a0,0x10
    26b0:	02e53593          	sltiu	a1,a0,46
    26b4:	1eb12023          	sw	a1,480(sp)

000026b8 <inst_651>:
    26b8:	00010537          	lui	a0,0x10
    26bc:	00153593          	sltiu	a1,a0,1
    26c0:	1eb12223          	sw	a1,484(sp)

000026c4 <inst_652>:
    26c4:	00010537          	lui	a0,0x10
    26c8:	04053593          	sltiu	a1,a0,64
    26cc:	1eb12423          	sw	a1,488(sp)

000026d0 <inst_653>:
    26d0:	66666537          	lui	a0,0x66666
    26d4:	66550513          	addi	a0,a0,1637 # 66666665 <absimm+0x21374136>
    26d8:	aab53593          	sltiu	a1,a0,-1365
    26dc:	1eb12623          	sw	a1,492(sp)

000026e0 <inst_654>:
    26e0:	66666537          	lui	a0,0x66666
    26e4:	66550513          	addi	a0,a0,1637 # 66666665 <absimm+0x21374136>
    26e8:	00653593          	sltiu	a1,a0,6
    26ec:	1eb12823          	sw	a1,496(sp)

000026f0 <inst_655>:
    26f0:	66666537          	lui	a0,0x66666
    26f4:	66550513          	addi	a0,a0,1637 # 66666665 <absimm+0x21374136>
    26f8:	33453593          	sltiu	a1,a0,820
    26fc:	1eb12a23          	sw	a1,500(sp)

00002700 <inst_656>:
    2700:	66666537          	lui	a0,0x66666
    2704:	66550513          	addi	a0,a0,1637 # 66666665 <absimm+0x21374136>
    2708:	66753593          	sltiu	a1,a0,1639
    270c:	1eb12c23          	sw	a1,504(sp)

00002710 <inst_657>:
    2710:	66666537          	lui	a0,0x66666
    2714:	66550513          	addi	a0,a0,1637 # 66666665 <absimm+0x21374136>
    2718:	02e53593          	sltiu	a1,a0,46
    271c:	1eb12e23          	sw	a1,508(sp)

00002720 <inst_658>:
    2720:	66666537          	lui	a0,0x66666
    2724:	66550513          	addi	a0,a0,1637 # 66666665 <absimm+0x21374136>
    2728:	00153593          	sltiu	a1,a0,1
    272c:	20b12023          	sw	a1,512(sp)

00002730 <inst_659>:
    2730:	66666537          	lui	a0,0x66666
    2734:	66550513          	addi	a0,a0,1637 # 66666665 <absimm+0x21374136>
    2738:	04053593          	sltiu	a1,a0,64
    273c:	20b12223          	sw	a1,516(sp)

00002740 <inst_660>:
    2740:	0000b537          	lui	a0,0xb
    2744:	50350513          	addi	a0,a0,1283 # b503 <_end+0x16fb>
    2748:	00353593          	sltiu	a1,a0,3
    274c:	20b12423          	sw	a1,520(sp)

00002750 <inst_661>:
    2750:	0000b537          	lui	a0,0xb
    2754:	50350513          	addi	a0,a0,1283 # b503 <_end+0x16fb>
    2758:	55553593          	sltiu	a1,a0,1365
    275c:	20b12623          	sw	a1,524(sp)

00002760 <inst_662>:
    2760:	0000b537          	lui	a0,0xb
    2764:	50350513          	addi	a0,a0,1283 # b503 <_end+0x16fb>
    2768:	aaa53593          	sltiu	a1,a0,-1366
    276c:	20b12823          	sw	a1,528(sp)

00002770 <inst_663>:
    2770:	0000b537          	lui	a0,0xb
    2774:	50350513          	addi	a0,a0,1283 # b503 <_end+0x16fb>
    2778:	00553593          	sltiu	a1,a0,5
    277c:	20b12a23          	sw	a1,532(sp)

00002780 <inst_664>:
    2780:	0000b537          	lui	a0,0xb
    2784:	50350513          	addi	a0,a0,1283 # b503 <_end+0x16fb>
    2788:	33353593          	sltiu	a1,a0,819
    278c:	20b12c23          	sw	a1,536(sp)

00002790 <inst_665>:
    2790:	0000b537          	lui	a0,0xb
    2794:	50350513          	addi	a0,a0,1283 # b503 <_end+0x16fb>
    2798:	66653593          	sltiu	a1,a0,1638
    279c:	20b12e23          	sw	a1,540(sp)

000027a0 <inst_666>:
    27a0:	0000b537          	lui	a0,0xb
    27a4:	50350513          	addi	a0,a0,1283 # b503 <_end+0x16fb>
    27a8:	02d53593          	sltiu	a1,a0,45
    27ac:	22b12023          	sw	a1,544(sp)

000027b0 <inst_667>:
    27b0:	0000b537          	lui	a0,0xb
    27b4:	50350513          	addi	a0,a0,1283 # b503 <_end+0x16fb>
    27b8:	00053593          	sltiu	a1,a0,0
    27bc:	22b12223          	sw	a1,548(sp)

000027c0 <inst_668>:
    27c0:	0000b537          	lui	a0,0xb
    27c4:	50350513          	addi	a0,a0,1283 # b503 <_end+0x16fb>
    27c8:	03f53593          	sltiu	a1,a0,63
    27cc:	22b12423          	sw	a1,552(sp)

000027d0 <inst_669>:
    27d0:	0000b537          	lui	a0,0xb
    27d4:	50350513          	addi	a0,a0,1283 # b503 <_end+0x16fb>
    27d8:	00253593          	sltiu	a1,a0,2
    27dc:	22b12623          	sw	a1,556(sp)

000027e0 <inst_670>:
    27e0:	0000b537          	lui	a0,0xb
    27e4:	50350513          	addi	a0,a0,1283 # b503 <_end+0x16fb>
    27e8:	55453593          	sltiu	a1,a0,1364
    27ec:	22b12823          	sw	a1,560(sp)

000027f0 <inst_671>:
    27f0:	0000b537          	lui	a0,0xb
    27f4:	50350513          	addi	a0,a0,1283 # b503 <_end+0x16fb>
    27f8:	aa953593          	sltiu	a1,a0,-1367
    27fc:	22b12a23          	sw	a1,564(sp)

00002800 <inst_672>:
    2800:	0000b537          	lui	a0,0xb
    2804:	50350513          	addi	a0,a0,1283 # b503 <_end+0x16fb>
    2808:	00453593          	sltiu	a1,a0,4
    280c:	22b12c23          	sw	a1,568(sp)

00002810 <inst_673>:
    2810:	0000b537          	lui	a0,0xb
    2814:	50350513          	addi	a0,a0,1283 # b503 <_end+0x16fb>
    2818:	33253593          	sltiu	a1,a0,818
    281c:	22b12e23          	sw	a1,572(sp)

00002820 <inst_674>:
    2820:	0000b537          	lui	a0,0xb
    2824:	50350513          	addi	a0,a0,1283 # b503 <_end+0x16fb>
    2828:	66553593          	sltiu	a1,a0,1637
    282c:	24b12023          	sw	a1,576(sp)

00002830 <inst_675>:
    2830:	0000b537          	lui	a0,0xb
    2834:	50350513          	addi	a0,a0,1283 # b503 <_end+0x16fb>
    2838:	02c53593          	sltiu	a1,a0,44
    283c:	24b12223          	sw	a1,580(sp)

00002840 <inst_676>:
    2840:	0000b537          	lui	a0,0xb
    2844:	50350513          	addi	a0,a0,1283 # b503 <_end+0x16fb>
    2848:	03e53593          	sltiu	a1,a0,62
    284c:	24b12423          	sw	a1,584(sp)

00002850 <inst_677>:
    2850:	0000b537          	lui	a0,0xb
    2854:	50350513          	addi	a0,a0,1283 # b503 <_end+0x16fb>
    2858:	55653593          	sltiu	a1,a0,1366
    285c:	24b12623          	sw	a1,588(sp)

00002860 <inst_678>:
    2860:	0000b537          	lui	a0,0xb
    2864:	50350513          	addi	a0,a0,1283 # b503 <_end+0x16fb>
    2868:	aab53593          	sltiu	a1,a0,-1365
    286c:	24b12823          	sw	a1,592(sp)

00002870 <inst_679>:
    2870:	0000b537          	lui	a0,0xb
    2874:	50350513          	addi	a0,a0,1283 # b503 <_end+0x16fb>
    2878:	00653593          	sltiu	a1,a0,6
    287c:	24b12a23          	sw	a1,596(sp)

00002880 <inst_680>:
    2880:	0000b537          	lui	a0,0xb
    2884:	50350513          	addi	a0,a0,1283 # b503 <_end+0x16fb>
    2888:	33453593          	sltiu	a1,a0,820
    288c:	24b12c23          	sw	a1,600(sp)

00002890 <inst_681>:
    2890:	0000b537          	lui	a0,0xb
    2894:	50350513          	addi	a0,a0,1283 # b503 <_end+0x16fb>
    2898:	66753593          	sltiu	a1,a0,1639
    289c:	24b12e23          	sw	a1,604(sp)

000028a0 <inst_682>:
    28a0:	0000b537          	lui	a0,0xb
    28a4:	50350513          	addi	a0,a0,1283 # b503 <_end+0x16fb>
    28a8:	02e53593          	sltiu	a1,a0,46
    28ac:	26b12023          	sw	a1,608(sp)

000028b0 <inst_683>:
    28b0:	0000b537          	lui	a0,0xb
    28b4:	50350513          	addi	a0,a0,1283 # b503 <_end+0x16fb>
    28b8:	00153593          	sltiu	a1,a0,1
    28bc:	26b12223          	sw	a1,612(sp)

000028c0 <inst_684>:
    28c0:	0000b537          	lui	a0,0xb
    28c4:	50350513          	addi	a0,a0,1283 # b503 <_end+0x16fb>
    28c8:	04053593          	sltiu	a1,a0,64
    28cc:	26b12423          	sw	a1,616(sp)

000028d0 <inst_685>:
    28d0:	00010537          	lui	a0,0x10
    28d4:	ffe50513          	addi	a0,a0,-2 # fffe <_end+0x61f6>
    28d8:	00353593          	sltiu	a1,a0,3
    28dc:	26b12623          	sw	a1,620(sp)

000028e0 <inst_686>:
    28e0:	00010537          	lui	a0,0x10
    28e4:	ffe50513          	addi	a0,a0,-2 # fffe <_end+0x61f6>
    28e8:	55553593          	sltiu	a1,a0,1365
    28ec:	26b12823          	sw	a1,624(sp)

000028f0 <inst_687>:
    28f0:	00010537          	lui	a0,0x10
    28f4:	ffe50513          	addi	a0,a0,-2 # fffe <_end+0x61f6>
    28f8:	aaa53593          	sltiu	a1,a0,-1366
    28fc:	26b12a23          	sw	a1,628(sp)

00002900 <inst_688>:
    2900:	00010537          	lui	a0,0x10
    2904:	ffe50513          	addi	a0,a0,-2 # fffe <_end+0x61f6>
    2908:	00553593          	sltiu	a1,a0,5
    290c:	26b12c23          	sw	a1,632(sp)

00002910 <inst_689>:
    2910:	00010537          	lui	a0,0x10
    2914:	ffe50513          	addi	a0,a0,-2 # fffe <_end+0x61f6>
    2918:	33353593          	sltiu	a1,a0,819
    291c:	26b12e23          	sw	a1,636(sp)

00002920 <inst_690>:
    2920:	00010537          	lui	a0,0x10
    2924:	ffe50513          	addi	a0,a0,-2 # fffe <_end+0x61f6>
    2928:	02d53593          	sltiu	a1,a0,45
    292c:	28b12023          	sw	a1,640(sp)

00002930 <inst_691>:
    2930:	00010537          	lui	a0,0x10
    2934:	ffe50513          	addi	a0,a0,-2 # fffe <_end+0x61f6>
    2938:	00053593          	sltiu	a1,a0,0
    293c:	28b12223          	sw	a1,644(sp)

00002940 <inst_692>:
    2940:	00010537          	lui	a0,0x10
    2944:	ffe50513          	addi	a0,a0,-2 # fffe <_end+0x61f6>
    2948:	03f53593          	sltiu	a1,a0,63
    294c:	28b12423          	sw	a1,648(sp)

00002950 <inst_693>:
    2950:	00010537          	lui	a0,0x10
    2954:	ffe50513          	addi	a0,a0,-2 # fffe <_end+0x61f6>
    2958:	00253593          	sltiu	a1,a0,2
    295c:	28b12623          	sw	a1,652(sp)

00002960 <inst_694>:
    2960:	00010537          	lui	a0,0x10
    2964:	ffe50513          	addi	a0,a0,-2 # fffe <_end+0x61f6>
    2968:	55453593          	sltiu	a1,a0,1364
    296c:	28b12823          	sw	a1,656(sp)

00002970 <inst_695>:
    2970:	00010537          	lui	a0,0x10
    2974:	ffe50513          	addi	a0,a0,-2 # fffe <_end+0x61f6>
    2978:	aa953593          	sltiu	a1,a0,-1367
    297c:	28b12a23          	sw	a1,660(sp)

00002980 <inst_696>:
    2980:	00010537          	lui	a0,0x10
    2984:	ffe50513          	addi	a0,a0,-2 # fffe <_end+0x61f6>
    2988:	00453593          	sltiu	a1,a0,4
    298c:	28b12c23          	sw	a1,664(sp)

00002990 <inst_697>:
    2990:	00010537          	lui	a0,0x10
    2994:	ffe50513          	addi	a0,a0,-2 # fffe <_end+0x61f6>
    2998:	33253593          	sltiu	a1,a0,818
    299c:	28b12e23          	sw	a1,668(sp)

000029a0 <inst_698>:
    29a0:	01000513          	addi	a0,zero,16
    29a4:	ffe53593          	sltiu	a1,a0,-2
    29a8:	2ab12023          	sw	a1,672(sp)

000029ac <cleanup_epilogs>:
    29ac:	0200006f          	jal	zero,29cc <exit_cleanup>

000029b0 <abort_tests>:
    29b0:	17812483          	lw	s1,376(sp)
    29b4:	18012303          	lw	t1,384(sp)
    29b8:	00930333          	add	t1,t1,s1
    29bc:	bad0e337          	lui	t1,0xbad0e
    29c0:	ad030313          	addi	t1,t1,-1328 # bad0dad0 <immx>
    29c4:	fe64ae23          	sw	t1,-4(s1) # 7ffffffc <absimm+0x3ad0dacd>
    29c8:	0040006f          	jal	zero,29cc <exit_cleanup>

000029cc <exit_cleanup>:
    29cc:	00006517          	auipc	a0,0x6
    29d0:	74450513          	addi	a0,a0,1860 # 9110 <begin_signature>
    29d4:	00007597          	auipc	a1,0x7
    29d8:	23c58593          	addi	a1,a1,572 # 9c10 <end_signature>
    29dc:	00008637          	lui	a2,0x8
    29e0:	00460613          	addi	a2,a2,4 # 8004 <rvtest_data_begin+0x4>

000029e4 <sig_dump_loop>:
    29e4:	00052283          	lw	t0,0(a0)
    29e8:	00562023          	sw	t0,0(a2)
    29ec:	00450513          	addi	a0,a0,4
    29f0:	00b55463          	bge	a0,a1,29f8 <end_sim>
    29f4:	ff1ff06f          	jal	zero,29e4 <sig_dump_loop>

000029f8 <end_sim>:
    29f8:	00008537          	lui	a0,0x8
    29fc:	00850513          	addi	a0,a0,8 # 8008 <rvtest_data_begin+0x8>
    2a00:	cafed5b7          	lui	a1,0xcafed
    2a04:	afe58593          	addi	a1,a1,-1282 # cafecafe <immx+0x102df02e>
    2a08:	00b52023          	sw	a1,0(a0)
    2a0c:	fedff06f          	jal	zero,29f8 <end_sim>
	...
