
my.elf:     file format elf32-littleriscv


Disassembly of section .text.init:

00000000 <rvtest_entry_point>:
       0:	7d5c0837          	lui	a6,0x7d5c0
       4:	ddb80813          	addi	a6,a6,-549 # 7d5bfddb <absimm+0x382cd8ac>
       8:	00785893          	srli	a7,a6,0x7
       c:	01985793          	srli	a5,a6,0x19
      10:	00f8e8b3          	or	a7,a7,a5
      14:	0078d913          	srli	s2,a7,0x7
      18:	0198d793          	srli	a5,a7,0x19
      1c:	00f96933          	or	s2,s2,a5
      20:	00795993          	srli	s3,s2,0x7
      24:	01995793          	srli	a5,s2,0x19
      28:	00f9e9b3          	or	s3,s3,a5
      2c:	0079da13          	srli	s4,s3,0x7
      30:	0199d793          	srli	a5,s3,0x19
      34:	00fa6a33          	or	s4,s4,a5
      38:	007a5a93          	srli	s5,s4,0x7
      3c:	019a5793          	srli	a5,s4,0x19
      40:	00faeab3          	or	s5,s5,a5
      44:	007adb13          	srli	s6,s5,0x7
      48:	019ad793          	srli	a5,s5,0x19
      4c:	00fb6b33          	or	s6,s6,a5
      50:	007b5b93          	srli	s7,s6,0x7
      54:	019b5793          	srli	a5,s6,0x19
      58:	00fbebb3          	or	s7,s7,a5
      5c:	007bdc13          	srli	s8,s7,0x7
      60:	019bd793          	srli	a5,s7,0x19
      64:	00fc6c33          	or	s8,s8,a5
      68:	007c5c93          	srli	s9,s8,0x7
      6c:	019c5793          	srli	a5,s8,0x19
      70:	00fcecb3          	or	s9,s9,a5
      74:	007cdd13          	srli	s10,s9,0x7
      78:	019cd793          	srli	a5,s9,0x19
      7c:	00fd6d33          	or	s10,s10,a5
      80:	007d5d93          	srli	s11,s10,0x7
      84:	019d5793          	srli	a5,s10,0x19
      88:	00fdedb3          	or	s11,s11,a5
      8c:	007dde13          	srli	t3,s11,0x7
      90:	019dd793          	srli	a5,s11,0x19
      94:	00fe6e33          	or	t3,t3,a5
      98:	007e5e93          	srli	t4,t3,0x7
      9c:	019e5793          	srli	a5,t3,0x19
      a0:	00feeeb3          	or	t4,t4,a5
      a4:	007edf13          	srli	t5,t4,0x7
      a8:	019ed793          	srli	a5,t4,0x19
      ac:	00ff6f33          	or	t5,t5,a5
      b0:	feedc0b7          	lui	ra,0xfeedc
      b4:	ead08093          	addi	ra,ra,-339 # feedbead <immx+0x441ce3dd>
      b8:	0070d113          	srli	sp,ra,0x7
      bc:	0190d793          	srli	a5,ra,0x19
      c0:	00f16133          	or	sp,sp,a5
      c4:	00715193          	srli	gp,sp,0x7
      c8:	01915793          	srli	a5,sp,0x19
      cc:	00f1e1b3          	or	gp,gp,a5
      d0:	0071d213          	srli	tp,gp,0x7
      d4:	0191d793          	srli	a5,gp,0x19
      d8:	00f26233          	or	tp,tp,a5
      dc:	00725293          	srli	t0,tp,0x7
      e0:	01925793          	srli	a5,tp,0x19
      e4:	00f2e2b3          	or	t0,t0,a5
      e8:	0072d313          	srli	t1,t0,0x7
      ec:	0192d793          	srli	a5,t0,0x19
      f0:	00f36333          	or	t1,t1,a5
      f4:	00735393          	srli	t2,t1,0x7
      f8:	01935793          	srli	a5,t1,0x19
      fc:	00f3e3b3          	or	t2,t2,a5
     100:	0073d413          	srli	s0,t2,0x7
     104:	0193d793          	srli	a5,t2,0x19
     108:	00f46433          	or	s0,s0,a5
     10c:	00745493          	srli	s1,s0,0x7
     110:	01945793          	srli	a5,s0,0x19
     114:	00f4e4b3          	or	s1,s1,a5
     118:	0074d513          	srli	a0,s1,0x7
     11c:	0194d793          	srli	a5,s1,0x19
     120:	00f56533          	or	a0,a0,a5
     124:	00755593          	srli	a1,a0,0x7
     128:	01955793          	srli	a5,a0,0x19
     12c:	00f5e5b3          	or	a1,a1,a5
     130:	0075d613          	srli	a2,a1,0x7
     134:	0195d793          	srli	a5,a1,0x19
     138:	00f66633          	or	a2,a2,a5
     13c:	00765693          	srli	a3,a2,0x7
     140:	01965793          	srli	a5,a2,0x19
     144:	00f6e6b3          	or	a3,a3,a5

00000148 <rvtest_code_begin>:
     148:	00000013          	addi	zero,zero,0
     14c:	00000013          	addi	zero,zero,0
     150:	00000013          	addi	zero,zero,0
     154:	00000013          	addi	zero,zero,0
     158:	00000013          	addi	zero,zero,0
     15c:	00000013          	addi	zero,zero,0
     160:	00009917          	auipc	s2,0x9
     164:	fb490913          	addi	s2,s2,-76 # 9114 <signature_x18_0>
     168:	00000013          	addi	zero,zero,0
     16c:	00000013          	addi	zero,zero,0
     170:	00000013          	addi	zero,zero,0
     174:	00000013          	addi	zero,zero,0
     178:	00000013          	addi	zero,zero,0
     17c:	00000013          	addi	zero,zero,0

00000180 <inst_0>:
     180:	ffe00b13          	addi	s6,zero,-2
     184:	800b7513          	andi	a0,s6,-2048
     188:	00a92023          	sw	a0,0(s2)

0000018c <inst_1>:
     18c:	fffffcb7          	lui	s9,0xfffff
     190:	fffc8c93          	addi	s9,s9,-1 # ffffefff <immx+0x452f152f>
     194:	000cfc93          	andi	s9,s9,0
     198:	01992223          	sw	s9,4(s2)

0000019c <inst_2>:
     19c:	fe000837          	lui	a6,0xfe000
     1a0:	fff80813          	addi	a6,a6,-1 # fdffffff <immx+0x432f252f>
     1a4:	7ff87893          	andi	a7,a6,2047
     1a8:	01192423          	sw	a7,8(s2)

000001ac <inst_3>:
     1ac:	fffe0137          	lui	sp,0xfffe0
     1b0:	fff10113          	addi	sp,sp,-1 # fffdffff <immx+0x452d252f>
     1b4:	00117413          	andi	s0,sp,1
     1b8:	00892623          	sw	s0,12(s2)

000001bc <inst_4>:
     1bc:	80000e37          	lui	t3,0x80000
     1c0:	004e7f13          	andi	t5,t3,4
     1c4:	01e92823          	sw	t5,16(s2)

000001c8 <inst_5>:
     1c8:	00000213          	addi	tp,zero,0
     1cc:	80027993          	andi	s3,tp,-2048
     1d0:	01392a23          	sw	s3,20(s2)

000001d4 <inst_6>:
     1d4:	80000537          	lui	a0,0x80000
     1d8:	fff50513          	addi	a0,a0,-1 # 7fffffff <absimm+0x3ad0dad0>
     1dc:	00657113          	andi	sp,a0,6
     1e0:	00292c23          	sw	sp,24(s2)

000001e4 <inst_7>:
     1e4:	00100393          	addi	t2,zero,1
     1e8:	5543f693          	andi	a3,t2,1364
     1ec:	00d92e23          	sw	a3,28(s2)

000001f0 <inst_8>:
     1f0:	08000d93          	addi	s11,zero,128
     1f4:	080df493          	andi	s1,s11,128
     1f8:	02992023          	sw	s1,32(s2)

000001fc <inst_9>:
     1fc:	800008b7          	lui	a7,0x80000
     200:	fff88893          	addi	a7,a7,-1 # 7fffffff <absimm+0x3ad0dad0>
     204:	fd48f193          	andi	gp,a7,-44
     208:	02392223          	sw	gp,36(s2)

0000020c <inst_10>:
     20c:	00000013          	addi	zero,zero,0
     210:	00207d13          	andi	s10,zero,2
     214:	03a92423          	sw	s10,40(s2)

00000218 <inst_11>:
     218:	66666bb7          	lui	s7,0x66666
     21c:	666b8b93          	addi	s7,s7,1638 # 66666666 <absimm+0x21374137>
     220:	008bfa93          	andi	s5,s7,8
     224:	03592623          	sw	s5,44(s2)

00000228 <inst_12>:
     228:	00000313          	addi	t1,zero,0
     22c:	01037713          	andi	a4,t1,16
     230:	02e92823          	sw	a4,48(s2)

00000234 <inst_13>:
     234:	10000293          	addi	t0,zero,256
     238:	0202fb13          	andi	s6,t0,32
     23c:	03692a23          	sw	s6,52(s2)

00000240 <inst_14>:
     240:	ffb00413          	addi	s0,zero,-5
     244:	04047e93          	andi	t4,s0,64
     248:	03d92c23          	sw	t4,56(s2)

0000024c <inst_15>:
     24c:	00100613          	addi	a2,zero,1
     250:	10067b93          	andi	s7,a2,256
     254:	03792e23          	sw	s7,60(s2)

00000258 <inst_16>:
     258:	aaaab7b7          	lui	a5,0xaaaab
     25c:	aab78793          	addi	a5,a5,-1365 # aaaaaaab <absimm+0x657b857c>
     260:	2007f313          	andi	t1,a5,512
     264:	04692023          	sw	t1,64(s2)

00000268 <inst_17>:
     268:	00000e93          	addi	t4,zero,0
     26c:	400ef593          	andi	a1,t4,1024
     270:	04b92223          	sw	a1,68(s2)

00000274 <inst_18>:
     274:	66666a37          	lui	s4,0x66666
     278:	667a0a13          	addi	s4,s4,1639 # 66666667 <absimm+0x21374138>
     27c:	ffea7093          	andi	ra,s4,-2
     280:	04192423          	sw	ra,72(s2)
     284:	00000013          	addi	zero,zero,0
     288:	00000013          	addi	zero,zero,0
     28c:	00000013          	addi	zero,zero,0
     290:	00000013          	addi	zero,zero,0
     294:	00000013          	addi	zero,zero,0
     298:	00000013          	addi	zero,zero,0
     29c:	00000013          	addi	zero,zero,0
     2a0:	00009117          	auipc	sp,0x9
     2a4:	ec010113          	addi	sp,sp,-320 # 9160 <signature_x2_0>
     2a8:	00000013          	addi	zero,zero,0
     2ac:	00000013          	addi	zero,zero,0
     2b0:	00000013          	addi	zero,zero,0
     2b4:	00000013          	addi	zero,zero,0
     2b8:	00000013          	addi	zero,zero,0
     2bc:	00000013          	addi	zero,zero,0

000002c0 <inst_19>:
     2c0:	fff00fb7          	lui	t6,0xfff00
     2c4:	ffff8f93          	addi	t6,t6,-1 # ffefffff <immx+0x451f252f>
     2c8:	ffdff293          	andi	t0,t6,-3
     2cc:	00512023          	sw	t0,0(sp)

000002d0 <inst_20>:
     2d0:	20000193          	addi	gp,zero,512
     2d4:	ffb1fa13          	andi	s4,gp,-5
     2d8:	01412223          	sw	s4,4(sp)

000002dc <inst_21>:
     2dc:	000044b7          	lui	s1,0x4
     2e0:	ff74f393          	andi	t2,s1,-9
     2e4:	00712423          	sw	t2,8(sp)

000002e8 <inst_22>:
     2e8:	002006b7          	lui	a3,0x200
     2ec:	fef6f813          	andi	a6,a3,-17
     2f0:	01012623          	sw	a6,12(sp)

000002f4 <inst_23>:
     2f4:	ffd00913          	addi	s2,zero,-3
     2f8:	fdf97c13          	andi	s8,s2,-33
     2fc:	01812823          	sw	s8,16(sp)

00000300 <inst_24>:
     300:	ffa00d13          	addi	s10,zero,-6
     304:	fbfd7213          	andi	tp,s10,-65
     308:	00412a23          	sw	tp,20(sp)

0000030c <inst_25>:
     30c:	04000f13          	addi	t5,zero,64
     310:	f7ff7e13          	andi	t3,t5,-129
     314:	01c12c23          	sw	t3,24(sp)

00000318 <inst_26>:
     318:	ffff59b7          	lui	s3,0xffff5
     31c:	afc98993          	addi	s3,s3,-1284 # ffff4afc <immx+0x452e702c>
     320:	eff9f013          	andi	zero,s3,-257
     324:	00012e23          	sw	zero,28(sp)

00000328 <inst_27>:
     328:	ffff8ab7          	lui	s5,0xffff8
     32c:	fffa8a93          	addi	s5,s5,-1 # ffff7fff <immx+0x452ea52f>
     330:	dffaf913          	andi	s2,s5,-513
     334:	03212023          	sw	s2,32(sp)

00000338 <inst_28>:
     338:	04000093          	addi	ra,zero,64
     33c:	bff0f613          	andi	a2,ra,-1025
     340:	02c12223          	sw	a2,36(sp)

00000344 <inst_29>:
     344:	ffffcc37          	lui	s8,0xffffc
     348:	fffc0c13          	addi	s8,s8,-1 # ffffbfff <immx+0x452ee52f>
     34c:	555c7d93          	andi	s11,s8,1365
     350:	03b12423          	sw	s11,40(sp)

00000354 <inst_30>:
     354:	400005b7          	lui	a1,0x40000
     358:	aaa5ff93          	andi	t6,a1,-1366
     35c:	03f12623          	sw	t6,44(sp)

00000360 <inst_31>:
     360:	00200713          	addi	a4,zero,2
     364:	00877793          	andi	a5,a4,8
     368:	02f12823          	sw	a5,48(sp)

0000036c <inst_32>:
     36c:	00400513          	addi	a0,zero,4
     370:	66757593          	andi	a1,a0,1639
     374:	02b12a23          	sw	a1,52(sp)

00000378 <inst_33>:
     378:	00800513          	addi	a0,zero,8
     37c:	33457593          	andi	a1,a0,820
     380:	02b12c23          	sw	a1,56(sp)

00000384 <inst_34>:
     384:	01000513          	addi	a0,zero,16
     388:	02e57593          	andi	a1,a0,46
     38c:	02b12e23          	sw	a1,60(sp)

00000390 <inst_35>:
     390:	02000513          	addi	a0,zero,32
     394:	01057593          	andi	a1,a0,16
     398:	04b12023          	sw	a1,64(sp)

0000039c <inst_36>:
     39c:	40000513          	addi	a0,zero,1024
     3a0:	fd457593          	andi	a1,a0,-44
     3a4:	04b12223          	sw	a1,68(sp)

000003a8 <inst_37>:
     3a8:	00001537          	lui	a0,0x1
     3ac:	80050513          	addi	a0,a0,-2048 # 800 <inst_117+0xc>
     3b0:	fbf57593          	andi	a1,a0,-65
     3b4:	04b12423          	sw	a1,72(sp)

000003b8 <inst_38>:
     3b8:	00001537          	lui	a0,0x1
     3bc:	04057593          	andi	a1,a0,64
     3c0:	04b12623          	sw	a1,76(sp)

000003c4 <inst_39>:
     3c4:	00002537          	lui	a0,0x2
     3c8:	fd357593          	andi	a1,a0,-45
     3cc:	04b12823          	sw	a1,80(sp)

000003d0 <inst_40>:
     3d0:	00008537          	lui	a0,0x8
     3d4:	aaa57593          	andi	a1,a0,-1366
     3d8:	04b12a23          	sw	a1,84(sp)

000003dc <inst_41>:
     3dc:	00010537          	lui	a0,0x10
     3e0:	33357593          	andi	a1,a0,819
     3e4:	04b12c23          	sw	a1,88(sp)

000003e8 <inst_42>:
     3e8:	00020537          	lui	a0,0x20
     3ec:	33257593          	andi	a1,a0,818
     3f0:	04b12e23          	sw	a1,92(sp)

000003f4 <inst_43>:
     3f4:	00040537          	lui	a0,0x40
     3f8:	55657593          	andi	a1,a0,1366
     3fc:	06b12023          	sw	a1,96(sp)

00000400 <inst_44>:
     400:	00080537          	lui	a0,0x80
     404:	00457593          	andi	a1,a0,4
     408:	06b12223          	sw	a1,100(sp)

0000040c <inst_45>:
     40c:	00100537          	lui	a0,0x100
     410:	00557593          	andi	a1,a0,5
     414:	06b12423          	sw	a1,104(sp)

00000418 <inst_46>:
     418:	00400537          	lui	a0,0x400
     41c:	fff57593          	andi	a1,a0,-1
     420:	06b12623          	sw	a1,108(sp)

00000424 <inst_47>:
     424:	00800537          	lui	a0,0x800
     428:	ffa57593          	andi	a1,a0,-6
     42c:	06b12823          	sw	a1,112(sp)

00000430 <inst_48>:
     430:	02000537          	lui	a0,0x2000
     434:	fd457593          	andi	a1,a0,-44
     438:	06b12a23          	sw	a1,116(sp)

0000043c <inst_49>:
     43c:	04000537          	lui	a0,0x4000
     440:	f7f57593          	andi	a1,a0,-129
     444:	06b12c23          	sw	a1,120(sp)

00000448 <inst_50>:
     448:	08000537          	lui	a0,0x8000
     44c:	00057593          	andi	a1,a0,0
     450:	06b12e23          	sw	a1,124(sp)

00000454 <inst_51>:
     454:	10000537          	lui	a0,0x10000
     458:	00057593          	andi	a1,a0,0
     45c:	08b12023          	sw	a1,128(sp)

00000460 <inst_52>:
     460:	20000537          	lui	a0,0x20000
     464:	00457593          	andi	a1,a0,4
     468:	08b12223          	sw	a1,132(sp)

0000046c <inst_53>:
     46c:	ff700513          	addi	a0,zero,-9
     470:	ffd57593          	andi	a1,a0,-3
     474:	08b12423          	sw	a1,136(sp)

00000478 <inst_54>:
     478:	fef00513          	addi	a0,zero,-17
     47c:	55657593          	andi	a1,a0,1366
     480:	08b12623          	sw	a1,140(sp)

00000484 <inst_55>:
     484:	fdf00513          	addi	a0,zero,-33
     488:	00457593          	andi	a1,a0,4
     48c:	08b12823          	sw	a1,144(sp)

00000490 <inst_56>:
     490:	fbf00513          	addi	a0,zero,-65
     494:	00957593          	andi	a1,a0,9
     498:	08b12a23          	sw	a1,148(sp)

0000049c <inst_57>:
     49c:	f7f00513          	addi	a0,zero,-129
     4a0:	ffd57593          	andi	a1,a0,-3
     4a4:	08b12c23          	sw	a1,152(sp)

000004a8 <inst_58>:
     4a8:	eff00513          	addi	a0,zero,-257
     4ac:	33457593          	andi	a1,a0,820
     4b0:	08b12e23          	sw	a1,156(sp)

000004b4 <inst_59>:
     4b4:	dff00513          	addi	a0,zero,-513
     4b8:	00057593          	andi	a1,a0,0
     4bc:	0ab12023          	sw	a1,160(sp)

000004c0 <inst_60>:
     4c0:	bff00513          	addi	a0,zero,-1025
     4c4:	04057593          	andi	a1,a0,64
     4c8:	0ab12223          	sw	a1,164(sp)

000004cc <inst_61>:
     4cc:	fffff537          	lui	a0,0xfffff
     4d0:	7ff50513          	addi	a0,a0,2047 # fffff7ff <immx+0x452f1d2f>
     4d4:	00957593          	andi	a1,a0,9
     4d8:	0ab12423          	sw	a1,168(sp)

000004dc <inst_62>:
     4dc:	ffffe537          	lui	a0,0xffffe
     4e0:	fff50513          	addi	a0,a0,-1 # ffffdfff <immx+0x452f052f>
     4e4:	66757593          	andi	a1,a0,1639
     4e8:	0ab12623          	sw	a1,172(sp)

000004ec <inst_63>:
     4ec:	ffff0537          	lui	a0,0xffff0
     4f0:	fff50513          	addi	a0,a0,-1 # fffeffff <immx+0x452e252f>
     4f4:	7ff57593          	andi	a1,a0,2047
     4f8:	0ab12823          	sw	a1,176(sp)

000004fc <inst_64>:
     4fc:	fffc0537          	lui	a0,0xfffc0
     500:	fff50513          	addi	a0,a0,-1 # fffbffff <immx+0x452b252f>
     504:	fd357593          	andi	a1,a0,-45
     508:	0ab12a23          	sw	a1,180(sp)

0000050c <inst_65>:
     50c:	fff80537          	lui	a0,0xfff80
     510:	fff50513          	addi	a0,a0,-1 # fff7ffff <immx+0x4527252f>
     514:	20057593          	andi	a1,a0,512
     518:	0ab12c23          	sw	a1,184(sp)

0000051c <inst_66>:
     51c:	ffe00537          	lui	a0,0xffe00
     520:	fff50513          	addi	a0,a0,-1 # ffdfffff <immx+0x450f252f>
     524:	fd457593          	andi	a1,a0,-44
     528:	0ab12e23          	sw	a1,188(sp)

0000052c <inst_67>:
     52c:	ffc00537          	lui	a0,0xffc00
     530:	fff50513          	addi	a0,a0,-1 # ffbfffff <immx+0x44ef252f>
     534:	00557593          	andi	a1,a0,5
     538:	0cb12023          	sw	a1,192(sp)

0000053c <inst_68>:
     53c:	ff800537          	lui	a0,0xff800
     540:	fff50513          	addi	a0,a0,-1 # ff7fffff <immx+0x44af252f>
     544:	00757593          	andi	a1,a0,7
     548:	0cb12223          	sw	a1,196(sp)

0000054c <inst_69>:
     54c:	ff000537          	lui	a0,0xff000
     550:	fff50513          	addi	a0,a0,-1 # feffffff <immx+0x442f252f>
     554:	00657593          	andi	a1,a0,6
     558:	0cb12423          	sw	a1,200(sp)

0000055c <inst_70>:
     55c:	fc000537          	lui	a0,0xfc000
     560:	fff50513          	addi	a0,a0,-1 # fbffffff <immx+0x412f252f>
     564:	00857593          	andi	a1,a0,8
     568:	0cb12623          	sw	a1,204(sp)

0000056c <inst_71>:
     56c:	f8000537          	lui	a0,0xf8000
     570:	fff50513          	addi	a0,a0,-1 # f7ffffff <immx+0x3d2f252f>
     574:	02e57593          	andi	a1,a0,46
     578:	0cb12823          	sw	a1,208(sp)

0000057c <inst_72>:
     57c:	f0000537          	lui	a0,0xf0000
     580:	fff50513          	addi	a0,a0,-1 # efffffff <immx+0x352f252f>
     584:	00157593          	andi	a1,a0,1
     588:	0cb12a23          	sw	a1,212(sp)

0000058c <inst_73>:
     58c:	e0000537          	lui	a0,0xe0000
     590:	fff50513          	addi	a0,a0,-1 # dfffffff <immx+0x252f252f>
     594:	fd457593          	andi	a1,a0,-44
     598:	0cb12c23          	sw	a1,216(sp)

0000059c <inst_74>:
     59c:	c0000537          	lui	a0,0xc0000
     5a0:	fff50513          	addi	a0,a0,-1 # bfffffff <immx+0x52f252f>
     5a4:	55657593          	andi	a1,a0,1366
     5a8:	0cb12e23          	sw	a1,220(sp)

000005ac <inst_75>:
     5ac:	55555537          	lui	a0,0x55555
     5b0:	55550513          	addi	a0,a0,1365 # 55555555 <absimm+0x10263026>
     5b4:	ffb57593          	andi	a1,a0,-5
     5b8:	0eb12023          	sw	a1,224(sp)

000005bc <inst_76>:
     5bc:	aaaab537          	lui	a0,0xaaaab
     5c0:	aaa50513          	addi	a0,a0,-1366 # aaaaaaaa <absimm+0x657b857b>
     5c4:	08057593          	andi	a1,a0,128
     5c8:	0eb12223          	sw	a1,228(sp)

000005cc <inst_77>:
     5cc:	00300513          	addi	a0,zero,3
     5d0:	00357593          	andi	a1,a0,3
     5d4:	0eb12423          	sw	a1,232(sp)

000005d8 <inst_78>:
     5d8:	00300513          	addi	a0,zero,3
     5dc:	55557593          	andi	a1,a0,1365
     5e0:	0eb12623          	sw	a1,236(sp)

000005e4 <inst_79>:
     5e4:	00300513          	addi	a0,zero,3
     5e8:	aaa57593          	andi	a1,a0,-1366
     5ec:	0eb12823          	sw	a1,240(sp)

000005f0 <inst_80>:
     5f0:	00300513          	addi	a0,zero,3
     5f4:	00557593          	andi	a1,a0,5
     5f8:	0eb12a23          	sw	a1,244(sp)

000005fc <inst_81>:
     5fc:	00300513          	addi	a0,zero,3
     600:	33357593          	andi	a1,a0,819
     604:	0eb12c23          	sw	a1,248(sp)

00000608 <inst_82>:
     608:	00300513          	addi	a0,zero,3
     60c:	66657593          	andi	a1,a0,1638
     610:	0eb12e23          	sw	a1,252(sp)

00000614 <inst_83>:
     614:	00300513          	addi	a0,zero,3
     618:	fd357593          	andi	a1,a0,-45
     61c:	10b12023          	sw	a1,256(sp)

00000620 <inst_84>:
     620:	00300513          	addi	a0,zero,3
     624:	02d57593          	andi	a1,a0,45
     628:	10b12223          	sw	a1,260(sp)

0000062c <inst_85>:
     62c:	00300513          	addi	a0,zero,3
     630:	00257593          	andi	a1,a0,2
     634:	10b12423          	sw	a1,264(sp)

00000638 <inst_86>:
     638:	00300513          	addi	a0,zero,3
     63c:	55457593          	andi	a1,a0,1364
     640:	10b12623          	sw	a1,268(sp)

00000644 <inst_87>:
     644:	00300513          	addi	a0,zero,3
     648:	00057593          	andi	a1,a0,0
     64c:	10b12823          	sw	a1,272(sp)

00000650 <inst_88>:
     650:	00300513          	addi	a0,zero,3
     654:	00457593          	andi	a1,a0,4
     658:	10b12a23          	sw	a1,276(sp)

0000065c <inst_89>:
     65c:	00300513          	addi	a0,zero,3
     660:	33257593          	andi	a1,a0,818
     664:	10b12c23          	sw	a1,280(sp)

00000668 <inst_90>:
     668:	00300513          	addi	a0,zero,3
     66c:	66557593          	andi	a1,a0,1637
     670:	10b12e23          	sw	a1,284(sp)

00000674 <inst_91>:
     674:	00300513          	addi	a0,zero,3
     678:	02c57593          	andi	a1,a0,44
     67c:	12b12023          	sw	a1,288(sp)

00000680 <inst_92>:
     680:	00300513          	addi	a0,zero,3
     684:	55657593          	andi	a1,a0,1366
     688:	12b12223          	sw	a1,292(sp)

0000068c <inst_93>:
     68c:	00300513          	addi	a0,zero,3
     690:	aab57593          	andi	a1,a0,-1365
     694:	12b12423          	sw	a1,296(sp)

00000698 <inst_94>:
     698:	00300513          	addi	a0,zero,3
     69c:	00657593          	andi	a1,a0,6
     6a0:	12b12623          	sw	a1,300(sp)

000006a4 <inst_95>:
     6a4:	00300513          	addi	a0,zero,3
     6a8:	33457593          	andi	a1,a0,820
     6ac:	12b12823          	sw	a1,304(sp)

000006b0 <inst_96>:
     6b0:	00300513          	addi	a0,zero,3
     6b4:	66757593          	andi	a1,a0,1639
     6b8:	12b12a23          	sw	a1,308(sp)

000006bc <inst_97>:
     6bc:	00300513          	addi	a0,zero,3
     6c0:	fd457593          	andi	a1,a0,-44
     6c4:	12b12c23          	sw	a1,312(sp)

000006c8 <inst_98>:
     6c8:	00300513          	addi	a0,zero,3
     6cc:	02e57593          	andi	a1,a0,46
     6d0:	12b12e23          	sw	a1,316(sp)

000006d4 <inst_99>:
     6d4:	55555537          	lui	a0,0x55555
     6d8:	55550513          	addi	a0,a0,1365 # 55555555 <absimm+0x10263026>
     6dc:	00357593          	andi	a1,a0,3
     6e0:	14b12023          	sw	a1,320(sp)

000006e4 <inst_100>:
     6e4:	55555537          	lui	a0,0x55555
     6e8:	55550513          	addi	a0,a0,1365 # 55555555 <absimm+0x10263026>
     6ec:	55557593          	andi	a1,a0,1365
     6f0:	14b12223          	sw	a1,324(sp)

000006f4 <inst_101>:
     6f4:	55555537          	lui	a0,0x55555
     6f8:	55550513          	addi	a0,a0,1365 # 55555555 <absimm+0x10263026>
     6fc:	aaa57593          	andi	a1,a0,-1366
     700:	14b12423          	sw	a1,328(sp)

00000704 <inst_102>:
     704:	55555537          	lui	a0,0x55555
     708:	55550513          	addi	a0,a0,1365 # 55555555 <absimm+0x10263026>
     70c:	00557593          	andi	a1,a0,5
     710:	14b12623          	sw	a1,332(sp)

00000714 <inst_103>:
     714:	55555537          	lui	a0,0x55555
     718:	55550513          	addi	a0,a0,1365 # 55555555 <absimm+0x10263026>
     71c:	33357593          	andi	a1,a0,819
     720:	14b12823          	sw	a1,336(sp)

00000724 <inst_104>:
     724:	55555537          	lui	a0,0x55555
     728:	55550513          	addi	a0,a0,1365 # 55555555 <absimm+0x10263026>
     72c:	66657593          	andi	a1,a0,1638
     730:	14b12a23          	sw	a1,340(sp)

00000734 <inst_105>:
     734:	55555537          	lui	a0,0x55555
     738:	55550513          	addi	a0,a0,1365 # 55555555 <absimm+0x10263026>
     73c:	fd357593          	andi	a1,a0,-45
     740:	14b12c23          	sw	a1,344(sp)

00000744 <inst_106>:
     744:	55555537          	lui	a0,0x55555
     748:	55550513          	addi	a0,a0,1365 # 55555555 <absimm+0x10263026>
     74c:	02d57593          	andi	a1,a0,45
     750:	14b12e23          	sw	a1,348(sp)

00000754 <inst_107>:
     754:	55555537          	lui	a0,0x55555
     758:	55550513          	addi	a0,a0,1365 # 55555555 <absimm+0x10263026>
     75c:	00257593          	andi	a1,a0,2
     760:	16b12023          	sw	a1,352(sp)

00000764 <inst_108>:
     764:	55555537          	lui	a0,0x55555
     768:	55550513          	addi	a0,a0,1365 # 55555555 <absimm+0x10263026>
     76c:	55457593          	andi	a1,a0,1364
     770:	16b12223          	sw	a1,356(sp)

00000774 <inst_109>:
     774:	55555537          	lui	a0,0x55555
     778:	55550513          	addi	a0,a0,1365 # 55555555 <absimm+0x10263026>
     77c:	00057593          	andi	a1,a0,0
     780:	16b12423          	sw	a1,360(sp)

00000784 <inst_110>:
     784:	55555537          	lui	a0,0x55555
     788:	55550513          	addi	a0,a0,1365 # 55555555 <absimm+0x10263026>
     78c:	00457593          	andi	a1,a0,4
     790:	16b12623          	sw	a1,364(sp)

00000794 <inst_111>:
     794:	55555537          	lui	a0,0x55555
     798:	55550513          	addi	a0,a0,1365 # 55555555 <absimm+0x10263026>
     79c:	33257593          	andi	a1,a0,818
     7a0:	16b12823          	sw	a1,368(sp)

000007a4 <inst_112>:
     7a4:	55555537          	lui	a0,0x55555
     7a8:	55550513          	addi	a0,a0,1365 # 55555555 <absimm+0x10263026>
     7ac:	66557593          	andi	a1,a0,1637
     7b0:	16b12a23          	sw	a1,372(sp)

000007b4 <inst_113>:
     7b4:	55555537          	lui	a0,0x55555
     7b8:	55550513          	addi	a0,a0,1365 # 55555555 <absimm+0x10263026>
     7bc:	02c57593          	andi	a1,a0,44
     7c0:	16b12c23          	sw	a1,376(sp)

000007c4 <inst_114>:
     7c4:	55555537          	lui	a0,0x55555
     7c8:	55550513          	addi	a0,a0,1365 # 55555555 <absimm+0x10263026>
     7cc:	55657593          	andi	a1,a0,1366
     7d0:	16b12e23          	sw	a1,380(sp)

000007d4 <inst_115>:
     7d4:	55555537          	lui	a0,0x55555
     7d8:	55550513          	addi	a0,a0,1365 # 55555555 <absimm+0x10263026>
     7dc:	aab57593          	andi	a1,a0,-1365
     7e0:	18b12023          	sw	a1,384(sp)

000007e4 <inst_116>:
     7e4:	55555537          	lui	a0,0x55555
     7e8:	55550513          	addi	a0,a0,1365 # 55555555 <absimm+0x10263026>
     7ec:	00657593          	andi	a1,a0,6
     7f0:	18b12223          	sw	a1,388(sp)

000007f4 <inst_117>:
     7f4:	55555537          	lui	a0,0x55555
     7f8:	55550513          	addi	a0,a0,1365 # 55555555 <absimm+0x10263026>
     7fc:	33457593          	andi	a1,a0,820
     800:	18b12423          	sw	a1,392(sp)

00000804 <inst_118>:
     804:	55555537          	lui	a0,0x55555
     808:	55550513          	addi	a0,a0,1365 # 55555555 <absimm+0x10263026>
     80c:	66757593          	andi	a1,a0,1639
     810:	18b12623          	sw	a1,396(sp)

00000814 <inst_119>:
     814:	55555537          	lui	a0,0x55555
     818:	55550513          	addi	a0,a0,1365 # 55555555 <absimm+0x10263026>
     81c:	fd457593          	andi	a1,a0,-44
     820:	18b12823          	sw	a1,400(sp)

00000824 <inst_120>:
     824:	55555537          	lui	a0,0x55555
     828:	55550513          	addi	a0,a0,1365 # 55555555 <absimm+0x10263026>
     82c:	02e57593          	andi	a1,a0,46
     830:	18b12a23          	sw	a1,404(sp)

00000834 <inst_121>:
     834:	aaaab537          	lui	a0,0xaaaab
     838:	aaa50513          	addi	a0,a0,-1366 # aaaaaaaa <absimm+0x657b857b>
     83c:	00357593          	andi	a1,a0,3
     840:	18b12c23          	sw	a1,408(sp)

00000844 <inst_122>:
     844:	aaaab537          	lui	a0,0xaaaab
     848:	aaa50513          	addi	a0,a0,-1366 # aaaaaaaa <absimm+0x657b857b>
     84c:	55557593          	andi	a1,a0,1365
     850:	18b12e23          	sw	a1,412(sp)

00000854 <inst_123>:
     854:	aaaab537          	lui	a0,0xaaaab
     858:	aaa50513          	addi	a0,a0,-1366 # aaaaaaaa <absimm+0x657b857b>
     85c:	aaa57593          	andi	a1,a0,-1366
     860:	1ab12023          	sw	a1,416(sp)

00000864 <inst_124>:
     864:	aaaab537          	lui	a0,0xaaaab
     868:	aaa50513          	addi	a0,a0,-1366 # aaaaaaaa <absimm+0x657b857b>
     86c:	00557593          	andi	a1,a0,5
     870:	1ab12223          	sw	a1,420(sp)

00000874 <inst_125>:
     874:	aaaab537          	lui	a0,0xaaaab
     878:	aaa50513          	addi	a0,a0,-1366 # aaaaaaaa <absimm+0x657b857b>
     87c:	33357593          	andi	a1,a0,819
     880:	1ab12423          	sw	a1,424(sp)

00000884 <inst_126>:
     884:	aaaab537          	lui	a0,0xaaaab
     888:	aaa50513          	addi	a0,a0,-1366 # aaaaaaaa <absimm+0x657b857b>
     88c:	66657593          	andi	a1,a0,1638
     890:	1ab12623          	sw	a1,428(sp)

00000894 <inst_127>:
     894:	aaaab537          	lui	a0,0xaaaab
     898:	aaa50513          	addi	a0,a0,-1366 # aaaaaaaa <absimm+0x657b857b>
     89c:	fd357593          	andi	a1,a0,-45
     8a0:	1ab12823          	sw	a1,432(sp)

000008a4 <inst_128>:
     8a4:	aaaab537          	lui	a0,0xaaaab
     8a8:	aaa50513          	addi	a0,a0,-1366 # aaaaaaaa <absimm+0x657b857b>
     8ac:	02d57593          	andi	a1,a0,45
     8b0:	1ab12a23          	sw	a1,436(sp)

000008b4 <inst_129>:
     8b4:	aaaab537          	lui	a0,0xaaaab
     8b8:	aaa50513          	addi	a0,a0,-1366 # aaaaaaaa <absimm+0x657b857b>
     8bc:	00257593          	andi	a1,a0,2
     8c0:	1ab12c23          	sw	a1,440(sp)

000008c4 <inst_130>:
     8c4:	aaaab537          	lui	a0,0xaaaab
     8c8:	aaa50513          	addi	a0,a0,-1366 # aaaaaaaa <absimm+0x657b857b>
     8cc:	55457593          	andi	a1,a0,1364
     8d0:	1ab12e23          	sw	a1,444(sp)

000008d4 <inst_131>:
     8d4:	aaaab537          	lui	a0,0xaaaab
     8d8:	aaa50513          	addi	a0,a0,-1366 # aaaaaaaa <absimm+0x657b857b>
     8dc:	00057593          	andi	a1,a0,0
     8e0:	1cb12023          	sw	a1,448(sp)

000008e4 <inst_132>:
     8e4:	aaaab537          	lui	a0,0xaaaab
     8e8:	aaa50513          	addi	a0,a0,-1366 # aaaaaaaa <absimm+0x657b857b>
     8ec:	00457593          	andi	a1,a0,4
     8f0:	1cb12223          	sw	a1,452(sp)

000008f4 <inst_133>:
     8f4:	aaaab537          	lui	a0,0xaaaab
     8f8:	aaa50513          	addi	a0,a0,-1366 # aaaaaaaa <absimm+0x657b857b>
     8fc:	33257593          	andi	a1,a0,818
     900:	1cb12423          	sw	a1,456(sp)

00000904 <inst_134>:
     904:	aaaab537          	lui	a0,0xaaaab
     908:	aaa50513          	addi	a0,a0,-1366 # aaaaaaaa <absimm+0x657b857b>
     90c:	66557593          	andi	a1,a0,1637
     910:	1cb12623          	sw	a1,460(sp)

00000914 <inst_135>:
     914:	aaaab537          	lui	a0,0xaaaab
     918:	aaa50513          	addi	a0,a0,-1366 # aaaaaaaa <absimm+0x657b857b>
     91c:	02c57593          	andi	a1,a0,44
     920:	1cb12823          	sw	a1,464(sp)

00000924 <inst_136>:
     924:	aaaab537          	lui	a0,0xaaaab
     928:	aaa50513          	addi	a0,a0,-1366 # aaaaaaaa <absimm+0x657b857b>
     92c:	55657593          	andi	a1,a0,1366
     930:	1cb12a23          	sw	a1,468(sp)

00000934 <inst_137>:
     934:	aaaab537          	lui	a0,0xaaaab
     938:	aaa50513          	addi	a0,a0,-1366 # aaaaaaaa <absimm+0x657b857b>
     93c:	aab57593          	andi	a1,a0,-1365
     940:	1cb12c23          	sw	a1,472(sp)

00000944 <inst_138>:
     944:	aaaab537          	lui	a0,0xaaaab
     948:	aaa50513          	addi	a0,a0,-1366 # aaaaaaaa <absimm+0x657b857b>
     94c:	00657593          	andi	a1,a0,6
     950:	1cb12e23          	sw	a1,476(sp)

00000954 <inst_139>:
     954:	aaaab537          	lui	a0,0xaaaab
     958:	aaa50513          	addi	a0,a0,-1366 # aaaaaaaa <absimm+0x657b857b>
     95c:	33457593          	andi	a1,a0,820
     960:	1eb12023          	sw	a1,480(sp)

00000964 <inst_140>:
     964:	aaaab537          	lui	a0,0xaaaab
     968:	aaa50513          	addi	a0,a0,-1366 # aaaaaaaa <absimm+0x657b857b>
     96c:	66757593          	andi	a1,a0,1639
     970:	1eb12223          	sw	a1,484(sp)

00000974 <inst_141>:
     974:	aaaab537          	lui	a0,0xaaaab
     978:	aaa50513          	addi	a0,a0,-1366 # aaaaaaaa <absimm+0x657b857b>
     97c:	fd457593          	andi	a1,a0,-44
     980:	1eb12423          	sw	a1,488(sp)

00000984 <inst_142>:
     984:	aaaab537          	lui	a0,0xaaaab
     988:	aaa50513          	addi	a0,a0,-1366 # aaaaaaaa <absimm+0x657b857b>
     98c:	02e57593          	andi	a1,a0,46
     990:	1eb12623          	sw	a1,492(sp)

00000994 <inst_143>:
     994:	00500513          	addi	a0,zero,5
     998:	00357593          	andi	a1,a0,3
     99c:	1eb12823          	sw	a1,496(sp)

000009a0 <inst_144>:
     9a0:	00500513          	addi	a0,zero,5
     9a4:	55557593          	andi	a1,a0,1365
     9a8:	1eb12a23          	sw	a1,500(sp)

000009ac <inst_145>:
     9ac:	00500513          	addi	a0,zero,5
     9b0:	aaa57593          	andi	a1,a0,-1366
     9b4:	1eb12c23          	sw	a1,504(sp)

000009b8 <inst_146>:
     9b8:	00500513          	addi	a0,zero,5
     9bc:	00557593          	andi	a1,a0,5
     9c0:	1eb12e23          	sw	a1,508(sp)

000009c4 <inst_147>:
     9c4:	00500513          	addi	a0,zero,5
     9c8:	33357593          	andi	a1,a0,819
     9cc:	20b12023          	sw	a1,512(sp)

000009d0 <inst_148>:
     9d0:	00500513          	addi	a0,zero,5
     9d4:	66657593          	andi	a1,a0,1638
     9d8:	20b12223          	sw	a1,516(sp)

000009dc <inst_149>:
     9dc:	00500513          	addi	a0,zero,5
     9e0:	fd357593          	andi	a1,a0,-45
     9e4:	20b12423          	sw	a1,520(sp)

000009e8 <inst_150>:
     9e8:	00500513          	addi	a0,zero,5
     9ec:	02d57593          	andi	a1,a0,45
     9f0:	20b12623          	sw	a1,524(sp)

000009f4 <inst_151>:
     9f4:	00500513          	addi	a0,zero,5
     9f8:	00257593          	andi	a1,a0,2
     9fc:	20b12823          	sw	a1,528(sp)

00000a00 <inst_152>:
     a00:	00500513          	addi	a0,zero,5
     a04:	55457593          	andi	a1,a0,1364
     a08:	20b12a23          	sw	a1,532(sp)

00000a0c <inst_153>:
     a0c:	00500513          	addi	a0,zero,5
     a10:	00057593          	andi	a1,a0,0
     a14:	20b12c23          	sw	a1,536(sp)

00000a18 <inst_154>:
     a18:	00500513          	addi	a0,zero,5
     a1c:	00457593          	andi	a1,a0,4
     a20:	20b12e23          	sw	a1,540(sp)

00000a24 <inst_155>:
     a24:	00500513          	addi	a0,zero,5
     a28:	33257593          	andi	a1,a0,818
     a2c:	22b12023          	sw	a1,544(sp)

00000a30 <inst_156>:
     a30:	00500513          	addi	a0,zero,5
     a34:	66557593          	andi	a1,a0,1637
     a38:	22b12223          	sw	a1,548(sp)

00000a3c <inst_157>:
     a3c:	00500513          	addi	a0,zero,5
     a40:	02c57593          	andi	a1,a0,44
     a44:	22b12423          	sw	a1,552(sp)

00000a48 <inst_158>:
     a48:	00500513          	addi	a0,zero,5
     a4c:	55657593          	andi	a1,a0,1366
     a50:	22b12623          	sw	a1,556(sp)

00000a54 <inst_159>:
     a54:	00500513          	addi	a0,zero,5
     a58:	aab57593          	andi	a1,a0,-1365
     a5c:	22b12823          	sw	a1,560(sp)

00000a60 <inst_160>:
     a60:	00500513          	addi	a0,zero,5
     a64:	00657593          	andi	a1,a0,6
     a68:	22b12a23          	sw	a1,564(sp)

00000a6c <inst_161>:
     a6c:	00500513          	addi	a0,zero,5
     a70:	33457593          	andi	a1,a0,820
     a74:	22b12c23          	sw	a1,568(sp)

00000a78 <inst_162>:
     a78:	00500513          	addi	a0,zero,5
     a7c:	66757593          	andi	a1,a0,1639
     a80:	22b12e23          	sw	a1,572(sp)

00000a84 <inst_163>:
     a84:	00500513          	addi	a0,zero,5
     a88:	fd457593          	andi	a1,a0,-44
     a8c:	24b12023          	sw	a1,576(sp)

00000a90 <inst_164>:
     a90:	00500513          	addi	a0,zero,5
     a94:	02e57593          	andi	a1,a0,46
     a98:	24b12223          	sw	a1,580(sp)

00000a9c <inst_165>:
     a9c:	33333537          	lui	a0,0x33333
     aa0:	33350513          	addi	a0,a0,819 # 33333333 <_end+0x3332982b>
     aa4:	00357593          	andi	a1,a0,3
     aa8:	24b12423          	sw	a1,584(sp)

00000aac <inst_166>:
     aac:	33333537          	lui	a0,0x33333
     ab0:	33350513          	addi	a0,a0,819 # 33333333 <_end+0x3332982b>
     ab4:	55557593          	andi	a1,a0,1365
     ab8:	24b12623          	sw	a1,588(sp)

00000abc <inst_167>:
     abc:	33333537          	lui	a0,0x33333
     ac0:	33350513          	addi	a0,a0,819 # 33333333 <_end+0x3332982b>
     ac4:	aaa57593          	andi	a1,a0,-1366
     ac8:	24b12823          	sw	a1,592(sp)

00000acc <inst_168>:
     acc:	33333537          	lui	a0,0x33333
     ad0:	33350513          	addi	a0,a0,819 # 33333333 <_end+0x3332982b>
     ad4:	00557593          	andi	a1,a0,5
     ad8:	24b12a23          	sw	a1,596(sp)

00000adc <inst_169>:
     adc:	33333537          	lui	a0,0x33333
     ae0:	33350513          	addi	a0,a0,819 # 33333333 <_end+0x3332982b>
     ae4:	33357593          	andi	a1,a0,819
     ae8:	24b12c23          	sw	a1,600(sp)

00000aec <inst_170>:
     aec:	33333537          	lui	a0,0x33333
     af0:	33350513          	addi	a0,a0,819 # 33333333 <_end+0x3332982b>
     af4:	66657593          	andi	a1,a0,1638
     af8:	24b12e23          	sw	a1,604(sp)

00000afc <inst_171>:
     afc:	33333537          	lui	a0,0x33333
     b00:	33350513          	addi	a0,a0,819 # 33333333 <_end+0x3332982b>
     b04:	fd357593          	andi	a1,a0,-45
     b08:	26b12023          	sw	a1,608(sp)

00000b0c <inst_172>:
     b0c:	33333537          	lui	a0,0x33333
     b10:	33350513          	addi	a0,a0,819 # 33333333 <_end+0x3332982b>
     b14:	02d57593          	andi	a1,a0,45
     b18:	26b12223          	sw	a1,612(sp)

00000b1c <inst_173>:
     b1c:	33333537          	lui	a0,0x33333
     b20:	33350513          	addi	a0,a0,819 # 33333333 <_end+0x3332982b>
     b24:	00257593          	andi	a1,a0,2
     b28:	26b12423          	sw	a1,616(sp)

00000b2c <inst_174>:
     b2c:	33333537          	lui	a0,0x33333
     b30:	33350513          	addi	a0,a0,819 # 33333333 <_end+0x3332982b>
     b34:	55457593          	andi	a1,a0,1364
     b38:	26b12623          	sw	a1,620(sp)

00000b3c <inst_175>:
     b3c:	33333537          	lui	a0,0x33333
     b40:	33350513          	addi	a0,a0,819 # 33333333 <_end+0x3332982b>
     b44:	00057593          	andi	a1,a0,0
     b48:	26b12823          	sw	a1,624(sp)

00000b4c <inst_176>:
     b4c:	33333537          	lui	a0,0x33333
     b50:	33350513          	addi	a0,a0,819 # 33333333 <_end+0x3332982b>
     b54:	00457593          	andi	a1,a0,4
     b58:	26b12a23          	sw	a1,628(sp)

00000b5c <inst_177>:
     b5c:	33333537          	lui	a0,0x33333
     b60:	33350513          	addi	a0,a0,819 # 33333333 <_end+0x3332982b>
     b64:	33257593          	andi	a1,a0,818
     b68:	26b12c23          	sw	a1,632(sp)

00000b6c <inst_178>:
     b6c:	33333537          	lui	a0,0x33333
     b70:	33350513          	addi	a0,a0,819 # 33333333 <_end+0x3332982b>
     b74:	66557593          	andi	a1,a0,1637
     b78:	26b12e23          	sw	a1,636(sp)

00000b7c <inst_179>:
     b7c:	33333537          	lui	a0,0x33333
     b80:	33350513          	addi	a0,a0,819 # 33333333 <_end+0x3332982b>
     b84:	02c57593          	andi	a1,a0,44
     b88:	28b12023          	sw	a1,640(sp)

00000b8c <inst_180>:
     b8c:	33333537          	lui	a0,0x33333
     b90:	33350513          	addi	a0,a0,819 # 33333333 <_end+0x3332982b>
     b94:	55657593          	andi	a1,a0,1366
     b98:	28b12223          	sw	a1,644(sp)

00000b9c <inst_181>:
     b9c:	33333537          	lui	a0,0x33333
     ba0:	33350513          	addi	a0,a0,819 # 33333333 <_end+0x3332982b>
     ba4:	aab57593          	andi	a1,a0,-1365
     ba8:	28b12423          	sw	a1,648(sp)

00000bac <inst_182>:
     bac:	33333537          	lui	a0,0x33333
     bb0:	33350513          	addi	a0,a0,819 # 33333333 <_end+0x3332982b>
     bb4:	00657593          	andi	a1,a0,6
     bb8:	28b12623          	sw	a1,652(sp)

00000bbc <inst_183>:
     bbc:	33333537          	lui	a0,0x33333
     bc0:	33350513          	addi	a0,a0,819 # 33333333 <_end+0x3332982b>
     bc4:	33457593          	andi	a1,a0,820
     bc8:	28b12823          	sw	a1,656(sp)

00000bcc <inst_184>:
     bcc:	33333537          	lui	a0,0x33333
     bd0:	33350513          	addi	a0,a0,819 # 33333333 <_end+0x3332982b>
     bd4:	66757593          	andi	a1,a0,1639
     bd8:	28b12a23          	sw	a1,660(sp)

00000bdc <inst_185>:
     bdc:	33333537          	lui	a0,0x33333
     be0:	33350513          	addi	a0,a0,819 # 33333333 <_end+0x3332982b>
     be4:	fd457593          	andi	a1,a0,-44
     be8:	28b12c23          	sw	a1,664(sp)

00000bec <inst_186>:
     bec:	33333537          	lui	a0,0x33333
     bf0:	33350513          	addi	a0,a0,819 # 33333333 <_end+0x3332982b>
     bf4:	02e57593          	andi	a1,a0,46
     bf8:	28b12e23          	sw	a1,668(sp)

00000bfc <inst_187>:
     bfc:	66666537          	lui	a0,0x66666
     c00:	66650513          	addi	a0,a0,1638 # 66666666 <absimm+0x21374137>
     c04:	00357593          	andi	a1,a0,3
     c08:	2ab12023          	sw	a1,672(sp)

00000c0c <inst_188>:
     c0c:	66666537          	lui	a0,0x66666
     c10:	66650513          	addi	a0,a0,1638 # 66666666 <absimm+0x21374137>
     c14:	55557593          	andi	a1,a0,1365
     c18:	2ab12223          	sw	a1,676(sp)

00000c1c <inst_189>:
     c1c:	66666537          	lui	a0,0x66666
     c20:	66650513          	addi	a0,a0,1638 # 66666666 <absimm+0x21374137>
     c24:	aaa57593          	andi	a1,a0,-1366
     c28:	2ab12423          	sw	a1,680(sp)

00000c2c <inst_190>:
     c2c:	66666537          	lui	a0,0x66666
     c30:	66650513          	addi	a0,a0,1638 # 66666666 <absimm+0x21374137>
     c34:	00557593          	andi	a1,a0,5
     c38:	2ab12623          	sw	a1,684(sp)

00000c3c <inst_191>:
     c3c:	66666537          	lui	a0,0x66666
     c40:	66650513          	addi	a0,a0,1638 # 66666666 <absimm+0x21374137>
     c44:	33357593          	andi	a1,a0,819
     c48:	2ab12823          	sw	a1,688(sp)

00000c4c <inst_192>:
     c4c:	66666537          	lui	a0,0x66666
     c50:	66650513          	addi	a0,a0,1638 # 66666666 <absimm+0x21374137>
     c54:	66657593          	andi	a1,a0,1638
     c58:	2ab12a23          	sw	a1,692(sp)

00000c5c <inst_193>:
     c5c:	66666537          	lui	a0,0x66666
     c60:	66650513          	addi	a0,a0,1638 # 66666666 <absimm+0x21374137>
     c64:	fd357593          	andi	a1,a0,-45
     c68:	2ab12c23          	sw	a1,696(sp)

00000c6c <inst_194>:
     c6c:	66666537          	lui	a0,0x66666
     c70:	66650513          	addi	a0,a0,1638 # 66666666 <absimm+0x21374137>
     c74:	02d57593          	andi	a1,a0,45
     c78:	2ab12e23          	sw	a1,700(sp)

00000c7c <inst_195>:
     c7c:	66666537          	lui	a0,0x66666
     c80:	66650513          	addi	a0,a0,1638 # 66666666 <absimm+0x21374137>
     c84:	00257593          	andi	a1,a0,2
     c88:	2cb12023          	sw	a1,704(sp)

00000c8c <inst_196>:
     c8c:	66666537          	lui	a0,0x66666
     c90:	66650513          	addi	a0,a0,1638 # 66666666 <absimm+0x21374137>
     c94:	55457593          	andi	a1,a0,1364
     c98:	2cb12223          	sw	a1,708(sp)

00000c9c <inst_197>:
     c9c:	66666537          	lui	a0,0x66666
     ca0:	66650513          	addi	a0,a0,1638 # 66666666 <absimm+0x21374137>
     ca4:	00057593          	andi	a1,a0,0
     ca8:	2cb12423          	sw	a1,712(sp)

00000cac <inst_198>:
     cac:	66666537          	lui	a0,0x66666
     cb0:	66650513          	addi	a0,a0,1638 # 66666666 <absimm+0x21374137>
     cb4:	00457593          	andi	a1,a0,4
     cb8:	2cb12623          	sw	a1,716(sp)

00000cbc <inst_199>:
     cbc:	66666537          	lui	a0,0x66666
     cc0:	66650513          	addi	a0,a0,1638 # 66666666 <absimm+0x21374137>
     cc4:	33257593          	andi	a1,a0,818
     cc8:	2cb12823          	sw	a1,720(sp)

00000ccc <inst_200>:
     ccc:	66666537          	lui	a0,0x66666
     cd0:	66650513          	addi	a0,a0,1638 # 66666666 <absimm+0x21374137>
     cd4:	66557593          	andi	a1,a0,1637
     cd8:	2cb12a23          	sw	a1,724(sp)

00000cdc <inst_201>:
     cdc:	66666537          	lui	a0,0x66666
     ce0:	66650513          	addi	a0,a0,1638 # 66666666 <absimm+0x21374137>
     ce4:	02c57593          	andi	a1,a0,44
     ce8:	2cb12c23          	sw	a1,728(sp)

00000cec <inst_202>:
     cec:	66666537          	lui	a0,0x66666
     cf0:	66650513          	addi	a0,a0,1638 # 66666666 <absimm+0x21374137>
     cf4:	55657593          	andi	a1,a0,1366
     cf8:	2cb12e23          	sw	a1,732(sp)

00000cfc <inst_203>:
     cfc:	66666537          	lui	a0,0x66666
     d00:	66650513          	addi	a0,a0,1638 # 66666666 <absimm+0x21374137>
     d04:	aab57593          	andi	a1,a0,-1365
     d08:	2eb12023          	sw	a1,736(sp)

00000d0c <inst_204>:
     d0c:	66666537          	lui	a0,0x66666
     d10:	66650513          	addi	a0,a0,1638 # 66666666 <absimm+0x21374137>
     d14:	00657593          	andi	a1,a0,6
     d18:	2eb12223          	sw	a1,740(sp)

00000d1c <inst_205>:
     d1c:	66666537          	lui	a0,0x66666
     d20:	66650513          	addi	a0,a0,1638 # 66666666 <absimm+0x21374137>
     d24:	33457593          	andi	a1,a0,820
     d28:	2eb12423          	sw	a1,744(sp)

00000d2c <inst_206>:
     d2c:	66666537          	lui	a0,0x66666
     d30:	66650513          	addi	a0,a0,1638 # 66666666 <absimm+0x21374137>
     d34:	66757593          	andi	a1,a0,1639
     d38:	2eb12623          	sw	a1,748(sp)

00000d3c <inst_207>:
     d3c:	66666537          	lui	a0,0x66666
     d40:	66650513          	addi	a0,a0,1638 # 66666666 <absimm+0x21374137>
     d44:	fd457593          	andi	a1,a0,-44
     d48:	2eb12823          	sw	a1,752(sp)

00000d4c <inst_208>:
     d4c:	66666537          	lui	a0,0x66666
     d50:	66650513          	addi	a0,a0,1638 # 66666666 <absimm+0x21374137>
     d54:	02e57593          	andi	a1,a0,46
     d58:	2eb12a23          	sw	a1,756(sp)

00000d5c <inst_209>:
     d5c:	ffff5537          	lui	a0,0xffff5
     d60:	afc50513          	addi	a0,a0,-1284 # ffff4afc <immx+0x452e702c>
     d64:	00357593          	andi	a1,a0,3
     d68:	2eb12c23          	sw	a1,760(sp)

00000d6c <inst_210>:
     d6c:	ffff5537          	lui	a0,0xffff5
     d70:	afc50513          	addi	a0,a0,-1284 # ffff4afc <immx+0x452e702c>
     d74:	55557593          	andi	a1,a0,1365
     d78:	2eb12e23          	sw	a1,764(sp)

00000d7c <inst_211>:
     d7c:	ffff5537          	lui	a0,0xffff5
     d80:	afc50513          	addi	a0,a0,-1284 # ffff4afc <immx+0x452e702c>
     d84:	aaa57593          	andi	a1,a0,-1366
     d88:	30b12023          	sw	a1,768(sp)

00000d8c <inst_212>:
     d8c:	ffff5537          	lui	a0,0xffff5
     d90:	afc50513          	addi	a0,a0,-1284 # ffff4afc <immx+0x452e702c>
     d94:	00557593          	andi	a1,a0,5
     d98:	30b12223          	sw	a1,772(sp)

00000d9c <inst_213>:
     d9c:	ffff5537          	lui	a0,0xffff5
     da0:	afc50513          	addi	a0,a0,-1284 # ffff4afc <immx+0x452e702c>
     da4:	33357593          	andi	a1,a0,819
     da8:	30b12423          	sw	a1,776(sp)

00000dac <inst_214>:
     dac:	ffff5537          	lui	a0,0xffff5
     db0:	afc50513          	addi	a0,a0,-1284 # ffff4afc <immx+0x452e702c>
     db4:	66657593          	andi	a1,a0,1638
     db8:	30b12623          	sw	a1,780(sp)

00000dbc <inst_215>:
     dbc:	ffff5537          	lui	a0,0xffff5
     dc0:	afc50513          	addi	a0,a0,-1284 # ffff4afc <immx+0x452e702c>
     dc4:	fd357593          	andi	a1,a0,-45
     dc8:	30b12823          	sw	a1,784(sp)

00000dcc <inst_216>:
     dcc:	ffff5537          	lui	a0,0xffff5
     dd0:	afc50513          	addi	a0,a0,-1284 # ffff4afc <immx+0x452e702c>
     dd4:	02d57593          	andi	a1,a0,45
     dd8:	30b12a23          	sw	a1,788(sp)

00000ddc <inst_217>:
     ddc:	ffff5537          	lui	a0,0xffff5
     de0:	afc50513          	addi	a0,a0,-1284 # ffff4afc <immx+0x452e702c>
     de4:	00257593          	andi	a1,a0,2
     de8:	30b12c23          	sw	a1,792(sp)

00000dec <inst_218>:
     dec:	ffff5537          	lui	a0,0xffff5
     df0:	afc50513          	addi	a0,a0,-1284 # ffff4afc <immx+0x452e702c>
     df4:	55457593          	andi	a1,a0,1364
     df8:	30b12e23          	sw	a1,796(sp)

00000dfc <inst_219>:
     dfc:	ffff5537          	lui	a0,0xffff5
     e00:	afc50513          	addi	a0,a0,-1284 # ffff4afc <immx+0x452e702c>
     e04:	00057593          	andi	a1,a0,0
     e08:	32b12023          	sw	a1,800(sp)

00000e0c <inst_220>:
     e0c:	ffff5537          	lui	a0,0xffff5
     e10:	afc50513          	addi	a0,a0,-1284 # ffff4afc <immx+0x452e702c>
     e14:	00457593          	andi	a1,a0,4
     e18:	32b12223          	sw	a1,804(sp)

00000e1c <inst_221>:
     e1c:	ffff5537          	lui	a0,0xffff5
     e20:	afc50513          	addi	a0,a0,-1284 # ffff4afc <immx+0x452e702c>
     e24:	33257593          	andi	a1,a0,818
     e28:	32b12423          	sw	a1,808(sp)

00000e2c <inst_222>:
     e2c:	ffff5537          	lui	a0,0xffff5
     e30:	afc50513          	addi	a0,a0,-1284 # ffff4afc <immx+0x452e702c>
     e34:	66557593          	andi	a1,a0,1637
     e38:	32b12623          	sw	a1,812(sp)

00000e3c <inst_223>:
     e3c:	ffff5537          	lui	a0,0xffff5
     e40:	afc50513          	addi	a0,a0,-1284 # ffff4afc <immx+0x452e702c>
     e44:	02c57593          	andi	a1,a0,44
     e48:	32b12823          	sw	a1,816(sp)

00000e4c <inst_224>:
     e4c:	ffff5537          	lui	a0,0xffff5
     e50:	afc50513          	addi	a0,a0,-1284 # ffff4afc <immx+0x452e702c>
     e54:	55657593          	andi	a1,a0,1366
     e58:	32b12a23          	sw	a1,820(sp)

00000e5c <inst_225>:
     e5c:	ffff5537          	lui	a0,0xffff5
     e60:	afc50513          	addi	a0,a0,-1284 # ffff4afc <immx+0x452e702c>
     e64:	aab57593          	andi	a1,a0,-1365
     e68:	32b12c23          	sw	a1,824(sp)

00000e6c <inst_226>:
     e6c:	ffff5537          	lui	a0,0xffff5
     e70:	afc50513          	addi	a0,a0,-1284 # ffff4afc <immx+0x452e702c>
     e74:	00657593          	andi	a1,a0,6
     e78:	32b12e23          	sw	a1,828(sp)

00000e7c <inst_227>:
     e7c:	ffff5537          	lui	a0,0xffff5
     e80:	afc50513          	addi	a0,a0,-1284 # ffff4afc <immx+0x452e702c>
     e84:	33457593          	andi	a1,a0,820
     e88:	34b12023          	sw	a1,832(sp)

00000e8c <inst_228>:
     e8c:	ffff5537          	lui	a0,0xffff5
     e90:	afc50513          	addi	a0,a0,-1284 # ffff4afc <immx+0x452e702c>
     e94:	66757593          	andi	a1,a0,1639
     e98:	34b12223          	sw	a1,836(sp)

00000e9c <inst_229>:
     e9c:	ffff5537          	lui	a0,0xffff5
     ea0:	afc50513          	addi	a0,a0,-1284 # ffff4afc <immx+0x452e702c>
     ea4:	fd457593          	andi	a1,a0,-44
     ea8:	34b12423          	sw	a1,840(sp)

00000eac <inst_230>:
     eac:	ffff5537          	lui	a0,0xffff5
     eb0:	afc50513          	addi	a0,a0,-1284 # ffff4afc <immx+0x452e702c>
     eb4:	02e57593          	andi	a1,a0,46
     eb8:	34b12623          	sw	a1,844(sp)

00000ebc <inst_231>:
     ebc:	0000b537          	lui	a0,0xb
     ec0:	50450513          	addi	a0,a0,1284 # b504 <_end+0x19fc>
     ec4:	00357593          	andi	a1,a0,3
     ec8:	34b12823          	sw	a1,848(sp)

00000ecc <inst_232>:
     ecc:	0000b537          	lui	a0,0xb
     ed0:	50450513          	addi	a0,a0,1284 # b504 <_end+0x19fc>
     ed4:	55557593          	andi	a1,a0,1365
     ed8:	34b12a23          	sw	a1,852(sp)

00000edc <inst_233>:
     edc:	0000b537          	lui	a0,0xb
     ee0:	50450513          	addi	a0,a0,1284 # b504 <_end+0x19fc>
     ee4:	aaa57593          	andi	a1,a0,-1366
     ee8:	34b12c23          	sw	a1,856(sp)

00000eec <inst_234>:
     eec:	0000b537          	lui	a0,0xb
     ef0:	50450513          	addi	a0,a0,1284 # b504 <_end+0x19fc>
     ef4:	00557593          	andi	a1,a0,5
     ef8:	34b12e23          	sw	a1,860(sp)

00000efc <inst_235>:
     efc:	0000b537          	lui	a0,0xb
     f00:	50450513          	addi	a0,a0,1284 # b504 <_end+0x19fc>
     f04:	33357593          	andi	a1,a0,819
     f08:	36b12023          	sw	a1,864(sp)

00000f0c <inst_236>:
     f0c:	0000b537          	lui	a0,0xb
     f10:	50450513          	addi	a0,a0,1284 # b504 <_end+0x19fc>
     f14:	66657593          	andi	a1,a0,1638
     f18:	36b12223          	sw	a1,868(sp)

00000f1c <inst_237>:
     f1c:	0000b537          	lui	a0,0xb
     f20:	50450513          	addi	a0,a0,1284 # b504 <_end+0x19fc>
     f24:	fd357593          	andi	a1,a0,-45
     f28:	36b12423          	sw	a1,872(sp)

00000f2c <inst_238>:
     f2c:	0000b537          	lui	a0,0xb
     f30:	50450513          	addi	a0,a0,1284 # b504 <_end+0x19fc>
     f34:	02d57593          	andi	a1,a0,45
     f38:	36b12623          	sw	a1,876(sp)

00000f3c <inst_239>:
     f3c:	0000b537          	lui	a0,0xb
     f40:	50450513          	addi	a0,a0,1284 # b504 <_end+0x19fc>
     f44:	00257593          	andi	a1,a0,2
     f48:	36b12823          	sw	a1,880(sp)

00000f4c <inst_240>:
     f4c:	0000b537          	lui	a0,0xb
     f50:	50450513          	addi	a0,a0,1284 # b504 <_end+0x19fc>
     f54:	55457593          	andi	a1,a0,1364
     f58:	36b12a23          	sw	a1,884(sp)

00000f5c <inst_241>:
     f5c:	0000b537          	lui	a0,0xb
     f60:	50450513          	addi	a0,a0,1284 # b504 <_end+0x19fc>
     f64:	00057593          	andi	a1,a0,0
     f68:	36b12c23          	sw	a1,888(sp)

00000f6c <inst_242>:
     f6c:	0000b537          	lui	a0,0xb
     f70:	50450513          	addi	a0,a0,1284 # b504 <_end+0x19fc>
     f74:	00457593          	andi	a1,a0,4
     f78:	36b12e23          	sw	a1,892(sp)

00000f7c <inst_243>:
     f7c:	0000b537          	lui	a0,0xb
     f80:	50450513          	addi	a0,a0,1284 # b504 <_end+0x19fc>
     f84:	33257593          	andi	a1,a0,818
     f88:	38b12023          	sw	a1,896(sp)

00000f8c <inst_244>:
     f8c:	0000b537          	lui	a0,0xb
     f90:	50450513          	addi	a0,a0,1284 # b504 <_end+0x19fc>
     f94:	66557593          	andi	a1,a0,1637
     f98:	38b12223          	sw	a1,900(sp)

00000f9c <inst_245>:
     f9c:	0000b537          	lui	a0,0xb
     fa0:	50450513          	addi	a0,a0,1284 # b504 <_end+0x19fc>
     fa4:	02c57593          	andi	a1,a0,44
     fa8:	38b12423          	sw	a1,904(sp)

00000fac <inst_246>:
     fac:	0000b537          	lui	a0,0xb
     fb0:	50450513          	addi	a0,a0,1284 # b504 <_end+0x19fc>
     fb4:	55657593          	andi	a1,a0,1366
     fb8:	38b12623          	sw	a1,908(sp)

00000fbc <inst_247>:
     fbc:	0000b537          	lui	a0,0xb
     fc0:	50450513          	addi	a0,a0,1284 # b504 <_end+0x19fc>
     fc4:	aab57593          	andi	a1,a0,-1365
     fc8:	38b12823          	sw	a1,912(sp)

00000fcc <inst_248>:
     fcc:	0000b537          	lui	a0,0xb
     fd0:	50450513          	addi	a0,a0,1284 # b504 <_end+0x19fc>
     fd4:	00657593          	andi	a1,a0,6
     fd8:	38b12a23          	sw	a1,916(sp)

00000fdc <inst_249>:
     fdc:	0000b537          	lui	a0,0xb
     fe0:	50450513          	addi	a0,a0,1284 # b504 <_end+0x19fc>
     fe4:	33457593          	andi	a1,a0,820
     fe8:	38b12c23          	sw	a1,920(sp)

00000fec <inst_250>:
     fec:	0000b537          	lui	a0,0xb
     ff0:	50450513          	addi	a0,a0,1284 # b504 <_end+0x19fc>
     ff4:	66757593          	andi	a1,a0,1639
     ff8:	38b12e23          	sw	a1,924(sp)

00000ffc <inst_251>:
     ffc:	0000b537          	lui	a0,0xb
    1000:	50450513          	addi	a0,a0,1284 # b504 <_end+0x19fc>
    1004:	fd457593          	andi	a1,a0,-44
    1008:	3ab12023          	sw	a1,928(sp)

0000100c <inst_252>:
    100c:	0000b537          	lui	a0,0xb
    1010:	50450513          	addi	a0,a0,1284 # b504 <_end+0x19fc>
    1014:	02e57593          	andi	a1,a0,46
    1018:	3ab12223          	sw	a1,932(sp)

0000101c <inst_253>:
    101c:	00200513          	addi	a0,zero,2
    1020:	00357593          	andi	a1,a0,3
    1024:	3ab12423          	sw	a1,936(sp)

00001028 <inst_254>:
    1028:	00200513          	addi	a0,zero,2
    102c:	55557593          	andi	a1,a0,1365
    1030:	3ab12623          	sw	a1,940(sp)

00001034 <inst_255>:
    1034:	00200513          	addi	a0,zero,2
    1038:	aaa57593          	andi	a1,a0,-1366
    103c:	3ab12823          	sw	a1,944(sp)

00001040 <inst_256>:
    1040:	00200513          	addi	a0,zero,2
    1044:	00557593          	andi	a1,a0,5
    1048:	3ab12a23          	sw	a1,948(sp)

0000104c <inst_257>:
    104c:	00200513          	addi	a0,zero,2
    1050:	33357593          	andi	a1,a0,819
    1054:	3ab12c23          	sw	a1,952(sp)

00001058 <inst_258>:
    1058:	00200513          	addi	a0,zero,2
    105c:	66657593          	andi	a1,a0,1638
    1060:	3ab12e23          	sw	a1,956(sp)

00001064 <inst_259>:
    1064:	00200513          	addi	a0,zero,2
    1068:	fd357593          	andi	a1,a0,-45
    106c:	3cb12023          	sw	a1,960(sp)

00001070 <inst_260>:
    1070:	00200513          	addi	a0,zero,2
    1074:	02d57593          	andi	a1,a0,45
    1078:	3cb12223          	sw	a1,964(sp)

0000107c <inst_261>:
    107c:	00200513          	addi	a0,zero,2
    1080:	00257593          	andi	a1,a0,2
    1084:	3cb12423          	sw	a1,968(sp)

00001088 <inst_262>:
    1088:	00200513          	addi	a0,zero,2
    108c:	55457593          	andi	a1,a0,1364
    1090:	3cb12623          	sw	a1,972(sp)

00001094 <inst_263>:
    1094:	00200513          	addi	a0,zero,2
    1098:	00057593          	andi	a1,a0,0
    109c:	3cb12823          	sw	a1,976(sp)

000010a0 <inst_264>:
    10a0:	00200513          	addi	a0,zero,2
    10a4:	00457593          	andi	a1,a0,4
    10a8:	3cb12a23          	sw	a1,980(sp)

000010ac <inst_265>:
    10ac:	00200513          	addi	a0,zero,2
    10b0:	33257593          	andi	a1,a0,818
    10b4:	3cb12c23          	sw	a1,984(sp)

000010b8 <inst_266>:
    10b8:	00200513          	addi	a0,zero,2
    10bc:	66557593          	andi	a1,a0,1637
    10c0:	3cb12e23          	sw	a1,988(sp)

000010c4 <inst_267>:
    10c4:	00200513          	addi	a0,zero,2
    10c8:	02c57593          	andi	a1,a0,44
    10cc:	3eb12023          	sw	a1,992(sp)

000010d0 <inst_268>:
    10d0:	00200513          	addi	a0,zero,2
    10d4:	55657593          	andi	a1,a0,1366
    10d8:	3eb12223          	sw	a1,996(sp)

000010dc <inst_269>:
    10dc:	00200513          	addi	a0,zero,2
    10e0:	aab57593          	andi	a1,a0,-1365
    10e4:	3eb12423          	sw	a1,1000(sp)

000010e8 <inst_270>:
    10e8:	00200513          	addi	a0,zero,2
    10ec:	00657593          	andi	a1,a0,6
    10f0:	3eb12623          	sw	a1,1004(sp)

000010f4 <inst_271>:
    10f4:	00200513          	addi	a0,zero,2
    10f8:	33457593          	andi	a1,a0,820
    10fc:	3eb12823          	sw	a1,1008(sp)

00001100 <inst_272>:
    1100:	00200513          	addi	a0,zero,2
    1104:	66757593          	andi	a1,a0,1639
    1108:	3eb12a23          	sw	a1,1012(sp)

0000110c <inst_273>:
    110c:	00200513          	addi	a0,zero,2
    1110:	fd457593          	andi	a1,a0,-44
    1114:	3eb12c23          	sw	a1,1016(sp)

00001118 <inst_274>:
    1118:	00200513          	addi	a0,zero,2
    111c:	02e57593          	andi	a1,a0,46
    1120:	3eb12e23          	sw	a1,1020(sp)

00001124 <inst_275>:
    1124:	55555537          	lui	a0,0x55555
    1128:	55450513          	addi	a0,a0,1364 # 55555554 <absimm+0x10263025>
    112c:	00357593          	andi	a1,a0,3
    1130:	40b12023          	sw	a1,1024(sp)

00001134 <inst_276>:
    1134:	55555537          	lui	a0,0x55555
    1138:	55450513          	addi	a0,a0,1364 # 55555554 <absimm+0x10263025>
    113c:	55557593          	andi	a1,a0,1365
    1140:	40b12223          	sw	a1,1028(sp)

00001144 <inst_277>:
    1144:	55555537          	lui	a0,0x55555
    1148:	55450513          	addi	a0,a0,1364 # 55555554 <absimm+0x10263025>
    114c:	aaa57593          	andi	a1,a0,-1366
    1150:	40b12423          	sw	a1,1032(sp)

00001154 <inst_278>:
    1154:	55555537          	lui	a0,0x55555
    1158:	55450513          	addi	a0,a0,1364 # 55555554 <absimm+0x10263025>
    115c:	00557593          	andi	a1,a0,5
    1160:	40b12623          	sw	a1,1036(sp)

00001164 <inst_279>:
    1164:	55555537          	lui	a0,0x55555
    1168:	55450513          	addi	a0,a0,1364 # 55555554 <absimm+0x10263025>
    116c:	33357593          	andi	a1,a0,819
    1170:	40b12823          	sw	a1,1040(sp)

00001174 <inst_280>:
    1174:	55555537          	lui	a0,0x55555
    1178:	55450513          	addi	a0,a0,1364 # 55555554 <absimm+0x10263025>
    117c:	66657593          	andi	a1,a0,1638
    1180:	40b12a23          	sw	a1,1044(sp)

00001184 <inst_281>:
    1184:	55555537          	lui	a0,0x55555
    1188:	55450513          	addi	a0,a0,1364 # 55555554 <absimm+0x10263025>
    118c:	fd357593          	andi	a1,a0,-45
    1190:	40b12c23          	sw	a1,1048(sp)

00001194 <inst_282>:
    1194:	55555537          	lui	a0,0x55555
    1198:	55450513          	addi	a0,a0,1364 # 55555554 <absimm+0x10263025>
    119c:	02d57593          	andi	a1,a0,45
    11a0:	40b12e23          	sw	a1,1052(sp)

000011a4 <inst_283>:
    11a4:	55555537          	lui	a0,0x55555
    11a8:	55450513          	addi	a0,a0,1364 # 55555554 <absimm+0x10263025>
    11ac:	00257593          	andi	a1,a0,2
    11b0:	42b12023          	sw	a1,1056(sp)

000011b4 <inst_284>:
    11b4:	55555537          	lui	a0,0x55555
    11b8:	55450513          	addi	a0,a0,1364 # 55555554 <absimm+0x10263025>
    11bc:	55457593          	andi	a1,a0,1364
    11c0:	42b12223          	sw	a1,1060(sp)

000011c4 <inst_285>:
    11c4:	55555537          	lui	a0,0x55555
    11c8:	55450513          	addi	a0,a0,1364 # 55555554 <absimm+0x10263025>
    11cc:	00057593          	andi	a1,a0,0
    11d0:	42b12423          	sw	a1,1064(sp)

000011d4 <inst_286>:
    11d4:	55555537          	lui	a0,0x55555
    11d8:	55450513          	addi	a0,a0,1364 # 55555554 <absimm+0x10263025>
    11dc:	00457593          	andi	a1,a0,4
    11e0:	42b12623          	sw	a1,1068(sp)

000011e4 <inst_287>:
    11e4:	55555537          	lui	a0,0x55555
    11e8:	55450513          	addi	a0,a0,1364 # 55555554 <absimm+0x10263025>
    11ec:	33257593          	andi	a1,a0,818
    11f0:	42b12823          	sw	a1,1072(sp)

000011f4 <inst_288>:
    11f4:	55555537          	lui	a0,0x55555
    11f8:	55450513          	addi	a0,a0,1364 # 55555554 <absimm+0x10263025>
    11fc:	66557593          	andi	a1,a0,1637
    1200:	42b12a23          	sw	a1,1076(sp)

00001204 <inst_289>:
    1204:	55555537          	lui	a0,0x55555
    1208:	55450513          	addi	a0,a0,1364 # 55555554 <absimm+0x10263025>
    120c:	02c57593          	andi	a1,a0,44
    1210:	42b12c23          	sw	a1,1080(sp)

00001214 <inst_290>:
    1214:	55555537          	lui	a0,0x55555
    1218:	55450513          	addi	a0,a0,1364 # 55555554 <absimm+0x10263025>
    121c:	55657593          	andi	a1,a0,1366
    1220:	42b12e23          	sw	a1,1084(sp)

00001224 <inst_291>:
    1224:	55555537          	lui	a0,0x55555
    1228:	55450513          	addi	a0,a0,1364 # 55555554 <absimm+0x10263025>
    122c:	aab57593          	andi	a1,a0,-1365
    1230:	44b12023          	sw	a1,1088(sp)

00001234 <inst_292>:
    1234:	55555537          	lui	a0,0x55555
    1238:	55450513          	addi	a0,a0,1364 # 55555554 <absimm+0x10263025>
    123c:	00657593          	andi	a1,a0,6
    1240:	44b12223          	sw	a1,1092(sp)

00001244 <inst_293>:
    1244:	55555537          	lui	a0,0x55555
    1248:	55450513          	addi	a0,a0,1364 # 55555554 <absimm+0x10263025>
    124c:	33457593          	andi	a1,a0,820
    1250:	44b12423          	sw	a1,1096(sp)

00001254 <inst_294>:
    1254:	55555537          	lui	a0,0x55555
    1258:	55450513          	addi	a0,a0,1364 # 55555554 <absimm+0x10263025>
    125c:	66757593          	andi	a1,a0,1639
    1260:	44b12623          	sw	a1,1100(sp)

00001264 <inst_295>:
    1264:	55555537          	lui	a0,0x55555
    1268:	55450513          	addi	a0,a0,1364 # 55555554 <absimm+0x10263025>
    126c:	fd457593          	andi	a1,a0,-44
    1270:	44b12823          	sw	a1,1104(sp)

00001274 <inst_296>:
    1274:	55555537          	lui	a0,0x55555
    1278:	55450513          	addi	a0,a0,1364 # 55555554 <absimm+0x10263025>
    127c:	02e57593          	andi	a1,a0,46
    1280:	44b12a23          	sw	a1,1108(sp)

00001284 <inst_297>:
    1284:	00000513          	addi	a0,zero,0
    1288:	00357593          	andi	a1,a0,3
    128c:	44b12c23          	sw	a1,1112(sp)

00001290 <inst_298>:
    1290:	00000513          	addi	a0,zero,0
    1294:	55557593          	andi	a1,a0,1365
    1298:	44b12e23          	sw	a1,1116(sp)

0000129c <inst_299>:
    129c:	00000513          	addi	a0,zero,0
    12a0:	aaa57593          	andi	a1,a0,-1366
    12a4:	46b12023          	sw	a1,1120(sp)

000012a8 <inst_300>:
    12a8:	00000513          	addi	a0,zero,0
    12ac:	00557593          	andi	a1,a0,5
    12b0:	46b12223          	sw	a1,1124(sp)

000012b4 <inst_301>:
    12b4:	00000513          	addi	a0,zero,0
    12b8:	33357593          	andi	a1,a0,819
    12bc:	46b12423          	sw	a1,1128(sp)

000012c0 <inst_302>:
    12c0:	00000513          	addi	a0,zero,0
    12c4:	66657593          	andi	a1,a0,1638
    12c8:	46b12623          	sw	a1,1132(sp)

000012cc <inst_303>:
    12cc:	00000513          	addi	a0,zero,0
    12d0:	fd357593          	andi	a1,a0,-45
    12d4:	46b12823          	sw	a1,1136(sp)

000012d8 <inst_304>:
    12d8:	00000513          	addi	a0,zero,0
    12dc:	02d57593          	andi	a1,a0,45
    12e0:	46b12a23          	sw	a1,1140(sp)

000012e4 <inst_305>:
    12e4:	33333537          	lui	a0,0x33333
    12e8:	33450513          	addi	a0,a0,820 # 33333334 <_end+0x3332982c>
    12ec:	33257593          	andi	a1,a0,818
    12f0:	46b12c23          	sw	a1,1144(sp)

000012f4 <inst_306>:
    12f4:	33333537          	lui	a0,0x33333
    12f8:	33450513          	addi	a0,a0,820 # 33333334 <_end+0x3332982c>
    12fc:	66557593          	andi	a1,a0,1637
    1300:	46b12e23          	sw	a1,1148(sp)

00001304 <inst_307>:
    1304:	33333537          	lui	a0,0x33333
    1308:	33450513          	addi	a0,a0,820 # 33333334 <_end+0x3332982c>
    130c:	02c57593          	andi	a1,a0,44
    1310:	48b12023          	sw	a1,1152(sp)

00001314 <inst_308>:
    1314:	33333537          	lui	a0,0x33333
    1318:	33450513          	addi	a0,a0,820 # 33333334 <_end+0x3332982c>
    131c:	55657593          	andi	a1,a0,1366
    1320:	48b12223          	sw	a1,1156(sp)

00001324 <inst_309>:
    1324:	33333537          	lui	a0,0x33333
    1328:	33450513          	addi	a0,a0,820 # 33333334 <_end+0x3332982c>
    132c:	aab57593          	andi	a1,a0,-1365
    1330:	48b12423          	sw	a1,1160(sp)

00001334 <inst_310>:
    1334:	33333537          	lui	a0,0x33333
    1338:	33450513          	addi	a0,a0,820 # 33333334 <_end+0x3332982c>
    133c:	00657593          	andi	a1,a0,6
    1340:	48b12623          	sw	a1,1164(sp)

00001344 <inst_311>:
    1344:	33333537          	lui	a0,0x33333
    1348:	33450513          	addi	a0,a0,820 # 33333334 <_end+0x3332982c>
    134c:	33457593          	andi	a1,a0,820
    1350:	48b12823          	sw	a1,1168(sp)

00001354 <inst_312>:
    1354:	33333537          	lui	a0,0x33333
    1358:	33450513          	addi	a0,a0,820 # 33333334 <_end+0x3332982c>
    135c:	66757593          	andi	a1,a0,1639
    1360:	48b12a23          	sw	a1,1172(sp)

00001364 <inst_313>:
    1364:	33333537          	lui	a0,0x33333
    1368:	33450513          	addi	a0,a0,820 # 33333334 <_end+0x3332982c>
    136c:	fd457593          	andi	a1,a0,-44
    1370:	48b12c23          	sw	a1,1176(sp)

00001374 <inst_314>:
    1374:	33333537          	lui	a0,0x33333
    1378:	33450513          	addi	a0,a0,820 # 33333334 <_end+0x3332982c>
    137c:	02e57593          	andi	a1,a0,46
    1380:	48b12e23          	sw	a1,1180(sp)

00001384 <inst_315>:
    1384:	66666537          	lui	a0,0x66666
    1388:	66750513          	addi	a0,a0,1639 # 66666667 <absimm+0x21374138>
    138c:	00357593          	andi	a1,a0,3
    1390:	4ab12023          	sw	a1,1184(sp)

00001394 <inst_316>:
    1394:	66666537          	lui	a0,0x66666
    1398:	66750513          	addi	a0,a0,1639 # 66666667 <absimm+0x21374138>
    139c:	55557593          	andi	a1,a0,1365
    13a0:	4ab12223          	sw	a1,1188(sp)

000013a4 <inst_317>:
    13a4:	66666537          	lui	a0,0x66666
    13a8:	66750513          	addi	a0,a0,1639 # 66666667 <absimm+0x21374138>
    13ac:	aaa57593          	andi	a1,a0,-1366
    13b0:	4ab12423          	sw	a1,1192(sp)

000013b4 <inst_318>:
    13b4:	66666537          	lui	a0,0x66666
    13b8:	66750513          	addi	a0,a0,1639 # 66666667 <absimm+0x21374138>
    13bc:	00557593          	andi	a1,a0,5
    13c0:	4ab12623          	sw	a1,1196(sp)

000013c4 <inst_319>:
    13c4:	66666537          	lui	a0,0x66666
    13c8:	66750513          	addi	a0,a0,1639 # 66666667 <absimm+0x21374138>
    13cc:	33357593          	andi	a1,a0,819
    13d0:	4ab12823          	sw	a1,1200(sp)

000013d4 <inst_320>:
    13d4:	66666537          	lui	a0,0x66666
    13d8:	66750513          	addi	a0,a0,1639 # 66666667 <absimm+0x21374138>
    13dc:	66657593          	andi	a1,a0,1638
    13e0:	4ab12a23          	sw	a1,1204(sp)

000013e4 <inst_321>:
    13e4:	66666537          	lui	a0,0x66666
    13e8:	66750513          	addi	a0,a0,1639 # 66666667 <absimm+0x21374138>
    13ec:	fd357593          	andi	a1,a0,-45
    13f0:	4ab12c23          	sw	a1,1208(sp)

000013f4 <inst_322>:
    13f4:	66666537          	lui	a0,0x66666
    13f8:	66750513          	addi	a0,a0,1639 # 66666667 <absimm+0x21374138>
    13fc:	02d57593          	andi	a1,a0,45
    1400:	4ab12e23          	sw	a1,1212(sp)

00001404 <inst_323>:
    1404:	66666537          	lui	a0,0x66666
    1408:	66750513          	addi	a0,a0,1639 # 66666667 <absimm+0x21374138>
    140c:	00257593          	andi	a1,a0,2
    1410:	4cb12023          	sw	a1,1216(sp)

00001414 <inst_324>:
    1414:	66666537          	lui	a0,0x66666
    1418:	66750513          	addi	a0,a0,1639 # 66666667 <absimm+0x21374138>
    141c:	55457593          	andi	a1,a0,1364
    1420:	4cb12223          	sw	a1,1220(sp)

00001424 <inst_325>:
    1424:	66666537          	lui	a0,0x66666
    1428:	66750513          	addi	a0,a0,1639 # 66666667 <absimm+0x21374138>
    142c:	00057593          	andi	a1,a0,0
    1430:	4cb12423          	sw	a1,1224(sp)

00001434 <inst_326>:
    1434:	66666537          	lui	a0,0x66666
    1438:	66750513          	addi	a0,a0,1639 # 66666667 <absimm+0x21374138>
    143c:	00457593          	andi	a1,a0,4
    1440:	4cb12623          	sw	a1,1228(sp)

00001444 <inst_327>:
    1444:	66666537          	lui	a0,0x66666
    1448:	66750513          	addi	a0,a0,1639 # 66666667 <absimm+0x21374138>
    144c:	33257593          	andi	a1,a0,818
    1450:	4cb12823          	sw	a1,1232(sp)

00001454 <inst_328>:
    1454:	66666537          	lui	a0,0x66666
    1458:	66750513          	addi	a0,a0,1639 # 66666667 <absimm+0x21374138>
    145c:	66557593          	andi	a1,a0,1637
    1460:	4cb12a23          	sw	a1,1236(sp)

00001464 <inst_329>:
    1464:	66666537          	lui	a0,0x66666
    1468:	66750513          	addi	a0,a0,1639 # 66666667 <absimm+0x21374138>
    146c:	02c57593          	andi	a1,a0,44
    1470:	4cb12c23          	sw	a1,1240(sp)

00001474 <inst_330>:
    1474:	66666537          	lui	a0,0x66666
    1478:	66750513          	addi	a0,a0,1639 # 66666667 <absimm+0x21374138>
    147c:	55657593          	andi	a1,a0,1366
    1480:	4cb12e23          	sw	a1,1244(sp)

00001484 <inst_331>:
    1484:	66666537          	lui	a0,0x66666
    1488:	66750513          	addi	a0,a0,1639 # 66666667 <absimm+0x21374138>
    148c:	aab57593          	andi	a1,a0,-1365
    1490:	4eb12023          	sw	a1,1248(sp)

00001494 <inst_332>:
    1494:	66666537          	lui	a0,0x66666
    1498:	66750513          	addi	a0,a0,1639 # 66666667 <absimm+0x21374138>
    149c:	00657593          	andi	a1,a0,6
    14a0:	4eb12223          	sw	a1,1252(sp)

000014a4 <inst_333>:
    14a4:	66666537          	lui	a0,0x66666
    14a8:	66750513          	addi	a0,a0,1639 # 66666667 <absimm+0x21374138>
    14ac:	33457593          	andi	a1,a0,820
    14b0:	4eb12423          	sw	a1,1256(sp)

000014b4 <inst_334>:
    14b4:	66666537          	lui	a0,0x66666
    14b8:	66750513          	addi	a0,a0,1639 # 66666667 <absimm+0x21374138>
    14bc:	66757593          	andi	a1,a0,1639
    14c0:	4eb12623          	sw	a1,1260(sp)

000014c4 <inst_335>:
    14c4:	66666537          	lui	a0,0x66666
    14c8:	66750513          	addi	a0,a0,1639 # 66666667 <absimm+0x21374138>
    14cc:	fd457593          	andi	a1,a0,-44
    14d0:	4eb12823          	sw	a1,1264(sp)

000014d4 <inst_336>:
    14d4:	66666537          	lui	a0,0x66666
    14d8:	66750513          	addi	a0,a0,1639 # 66666667 <absimm+0x21374138>
    14dc:	02e57593          	andi	a1,a0,46
    14e0:	4eb12a23          	sw	a1,1268(sp)

000014e4 <inst_337>:
    14e4:	ffff5537          	lui	a0,0xffff5
    14e8:	afd50513          	addi	a0,a0,-1283 # ffff4afd <immx+0x452e702d>
    14ec:	00357593          	andi	a1,a0,3
    14f0:	4eb12c23          	sw	a1,1272(sp)

000014f4 <inst_338>:
    14f4:	ffff5537          	lui	a0,0xffff5
    14f8:	afd50513          	addi	a0,a0,-1283 # ffff4afd <immx+0x452e702d>
    14fc:	55557593          	andi	a1,a0,1365
    1500:	4eb12e23          	sw	a1,1276(sp)

00001504 <inst_339>:
    1504:	ffff5537          	lui	a0,0xffff5
    1508:	afd50513          	addi	a0,a0,-1283 # ffff4afd <immx+0x452e702d>
    150c:	aaa57593          	andi	a1,a0,-1366
    1510:	50b12023          	sw	a1,1280(sp)

00001514 <inst_340>:
    1514:	ffff5537          	lui	a0,0xffff5
    1518:	afd50513          	addi	a0,a0,-1283 # ffff4afd <immx+0x452e702d>
    151c:	00557593          	andi	a1,a0,5
    1520:	50b12223          	sw	a1,1284(sp)

00001524 <inst_341>:
    1524:	ffff5537          	lui	a0,0xffff5
    1528:	afd50513          	addi	a0,a0,-1283 # ffff4afd <immx+0x452e702d>
    152c:	33357593          	andi	a1,a0,819
    1530:	50b12423          	sw	a1,1288(sp)

00001534 <inst_342>:
    1534:	ffff5537          	lui	a0,0xffff5
    1538:	afd50513          	addi	a0,a0,-1283 # ffff4afd <immx+0x452e702d>
    153c:	66657593          	andi	a1,a0,1638
    1540:	50b12623          	sw	a1,1292(sp)

00001544 <inst_343>:
    1544:	ffff5537          	lui	a0,0xffff5
    1548:	afd50513          	addi	a0,a0,-1283 # ffff4afd <immx+0x452e702d>
    154c:	fd357593          	andi	a1,a0,-45
    1550:	50b12823          	sw	a1,1296(sp)

00001554 <inst_344>:
    1554:	ffff5537          	lui	a0,0xffff5
    1558:	afd50513          	addi	a0,a0,-1283 # ffff4afd <immx+0x452e702d>
    155c:	02d57593          	andi	a1,a0,45
    1560:	50b12a23          	sw	a1,1300(sp)

00001564 <inst_345>:
    1564:	ffff5537          	lui	a0,0xffff5
    1568:	afd50513          	addi	a0,a0,-1283 # ffff4afd <immx+0x452e702d>
    156c:	00257593          	andi	a1,a0,2
    1570:	50b12c23          	sw	a1,1304(sp)

00001574 <inst_346>:
    1574:	ffff5537          	lui	a0,0xffff5
    1578:	afd50513          	addi	a0,a0,-1283 # ffff4afd <immx+0x452e702d>
    157c:	55457593          	andi	a1,a0,1364
    1580:	50b12e23          	sw	a1,1308(sp)

00001584 <inst_347>:
    1584:	ffff5537          	lui	a0,0xffff5
    1588:	afd50513          	addi	a0,a0,-1283 # ffff4afd <immx+0x452e702d>
    158c:	00057593          	andi	a1,a0,0
    1590:	52b12023          	sw	a1,1312(sp)

00001594 <inst_348>:
    1594:	ffff5537          	lui	a0,0xffff5
    1598:	afd50513          	addi	a0,a0,-1283 # ffff4afd <immx+0x452e702d>
    159c:	00457593          	andi	a1,a0,4
    15a0:	52b12223          	sw	a1,1316(sp)

000015a4 <inst_349>:
    15a4:	ffff5537          	lui	a0,0xffff5
    15a8:	afd50513          	addi	a0,a0,-1283 # ffff4afd <immx+0x452e702d>
    15ac:	33257593          	andi	a1,a0,818
    15b0:	52b12423          	sw	a1,1320(sp)

000015b4 <inst_350>:
    15b4:	ffff5537          	lui	a0,0xffff5
    15b8:	afd50513          	addi	a0,a0,-1283 # ffff4afd <immx+0x452e702d>
    15bc:	66557593          	andi	a1,a0,1637
    15c0:	52b12623          	sw	a1,1324(sp)

000015c4 <inst_351>:
    15c4:	ffff5537          	lui	a0,0xffff5
    15c8:	afd50513          	addi	a0,a0,-1283 # ffff4afd <immx+0x452e702d>
    15cc:	02c57593          	andi	a1,a0,44
    15d0:	52b12823          	sw	a1,1328(sp)

000015d4 <inst_352>:
    15d4:	ffff5537          	lui	a0,0xffff5
    15d8:	afd50513          	addi	a0,a0,-1283 # ffff4afd <immx+0x452e702d>
    15dc:	55657593          	andi	a1,a0,1366
    15e0:	52b12a23          	sw	a1,1332(sp)

000015e4 <inst_353>:
    15e4:	ffff5537          	lui	a0,0xffff5
    15e8:	afd50513          	addi	a0,a0,-1283 # ffff4afd <immx+0x452e702d>
    15ec:	aab57593          	andi	a1,a0,-1365
    15f0:	52b12c23          	sw	a1,1336(sp)

000015f4 <inst_354>:
    15f4:	ffff5537          	lui	a0,0xffff5
    15f8:	afd50513          	addi	a0,a0,-1283 # ffff4afd <immx+0x452e702d>
    15fc:	00657593          	andi	a1,a0,6
    1600:	52b12e23          	sw	a1,1340(sp)

00001604 <inst_355>:
    1604:	ffff5537          	lui	a0,0xffff5
    1608:	afd50513          	addi	a0,a0,-1283 # ffff4afd <immx+0x452e702d>
    160c:	33457593          	andi	a1,a0,820
    1610:	54b12023          	sw	a1,1344(sp)

00001614 <inst_356>:
    1614:	ffff5537          	lui	a0,0xffff5
    1618:	afd50513          	addi	a0,a0,-1283 # ffff4afd <immx+0x452e702d>
    161c:	66757593          	andi	a1,a0,1639
    1620:	54b12223          	sw	a1,1348(sp)

00001624 <inst_357>:
    1624:	ffff5537          	lui	a0,0xffff5
    1628:	afd50513          	addi	a0,a0,-1283 # ffff4afd <immx+0x452e702d>
    162c:	fd457593          	andi	a1,a0,-44
    1630:	54b12423          	sw	a1,1352(sp)

00001634 <inst_358>:
    1634:	ffff5537          	lui	a0,0xffff5
    1638:	afd50513          	addi	a0,a0,-1283 # ffff4afd <immx+0x452e702d>
    163c:	02e57593          	andi	a1,a0,46
    1640:	54b12623          	sw	a1,1356(sp)

00001644 <inst_359>:
    1644:	0000b537          	lui	a0,0xb
    1648:	50550513          	addi	a0,a0,1285 # b505 <_end+0x19fd>
    164c:	00357593          	andi	a1,a0,3
    1650:	54b12823          	sw	a1,1360(sp)

00001654 <inst_360>:
    1654:	0000b537          	lui	a0,0xb
    1658:	50550513          	addi	a0,a0,1285 # b505 <_end+0x19fd>
    165c:	55557593          	andi	a1,a0,1365
    1660:	54b12a23          	sw	a1,1364(sp)

00001664 <inst_361>:
    1664:	0000b537          	lui	a0,0xb
    1668:	50550513          	addi	a0,a0,1285 # b505 <_end+0x19fd>
    166c:	aaa57593          	andi	a1,a0,-1366
    1670:	54b12c23          	sw	a1,1368(sp)

00001674 <inst_362>:
    1674:	0000b537          	lui	a0,0xb
    1678:	50550513          	addi	a0,a0,1285 # b505 <_end+0x19fd>
    167c:	00557593          	andi	a1,a0,5
    1680:	54b12e23          	sw	a1,1372(sp)

00001684 <inst_363>:
    1684:	0000b537          	lui	a0,0xb
    1688:	50550513          	addi	a0,a0,1285 # b505 <_end+0x19fd>
    168c:	33357593          	andi	a1,a0,819
    1690:	56b12023          	sw	a1,1376(sp)

00001694 <inst_364>:
    1694:	0000b537          	lui	a0,0xb
    1698:	50550513          	addi	a0,a0,1285 # b505 <_end+0x19fd>
    169c:	66657593          	andi	a1,a0,1638
    16a0:	56b12223          	sw	a1,1380(sp)

000016a4 <inst_365>:
    16a4:	0000b537          	lui	a0,0xb
    16a8:	50550513          	addi	a0,a0,1285 # b505 <_end+0x19fd>
    16ac:	fd357593          	andi	a1,a0,-45
    16b0:	56b12423          	sw	a1,1384(sp)

000016b4 <inst_366>:
    16b4:	0000b537          	lui	a0,0xb
    16b8:	50550513          	addi	a0,a0,1285 # b505 <_end+0x19fd>
    16bc:	02d57593          	andi	a1,a0,45
    16c0:	56b12623          	sw	a1,1388(sp)

000016c4 <inst_367>:
    16c4:	0000b537          	lui	a0,0xb
    16c8:	50550513          	addi	a0,a0,1285 # b505 <_end+0x19fd>
    16cc:	00257593          	andi	a1,a0,2
    16d0:	56b12823          	sw	a1,1392(sp)

000016d4 <inst_368>:
    16d4:	0000b537          	lui	a0,0xb
    16d8:	50550513          	addi	a0,a0,1285 # b505 <_end+0x19fd>
    16dc:	55457593          	andi	a1,a0,1364
    16e0:	56b12a23          	sw	a1,1396(sp)

000016e4 <inst_369>:
    16e4:	0000b537          	lui	a0,0xb
    16e8:	50550513          	addi	a0,a0,1285 # b505 <_end+0x19fd>
    16ec:	00057593          	andi	a1,a0,0
    16f0:	56b12c23          	sw	a1,1400(sp)

000016f4 <inst_370>:
    16f4:	0000b537          	lui	a0,0xb
    16f8:	50550513          	addi	a0,a0,1285 # b505 <_end+0x19fd>
    16fc:	00457593          	andi	a1,a0,4
    1700:	56b12e23          	sw	a1,1404(sp)

00001704 <inst_371>:
    1704:	0000b537          	lui	a0,0xb
    1708:	50550513          	addi	a0,a0,1285 # b505 <_end+0x19fd>
    170c:	33257593          	andi	a1,a0,818
    1710:	58b12023          	sw	a1,1408(sp)

00001714 <inst_372>:
    1714:	0000b537          	lui	a0,0xb
    1718:	50550513          	addi	a0,a0,1285 # b505 <_end+0x19fd>
    171c:	66557593          	andi	a1,a0,1637
    1720:	58b12223          	sw	a1,1412(sp)

00001724 <inst_373>:
    1724:	0000b537          	lui	a0,0xb
    1728:	50550513          	addi	a0,a0,1285 # b505 <_end+0x19fd>
    172c:	02c57593          	andi	a1,a0,44
    1730:	58b12423          	sw	a1,1416(sp)

00001734 <inst_374>:
    1734:	0000b537          	lui	a0,0xb
    1738:	50550513          	addi	a0,a0,1285 # b505 <_end+0x19fd>
    173c:	55657593          	andi	a1,a0,1366
    1740:	58b12623          	sw	a1,1420(sp)

00001744 <inst_375>:
    1744:	0000b537          	lui	a0,0xb
    1748:	50550513          	addi	a0,a0,1285 # b505 <_end+0x19fd>
    174c:	aab57593          	andi	a1,a0,-1365
    1750:	58b12823          	sw	a1,1424(sp)

00001754 <inst_376>:
    1754:	0000b537          	lui	a0,0xb
    1758:	50550513          	addi	a0,a0,1285 # b505 <_end+0x19fd>
    175c:	00657593          	andi	a1,a0,6
    1760:	58b12a23          	sw	a1,1428(sp)

00001764 <inst_377>:
    1764:	0000b537          	lui	a0,0xb
    1768:	50550513          	addi	a0,a0,1285 # b505 <_end+0x19fd>
    176c:	33457593          	andi	a1,a0,820
    1770:	58b12c23          	sw	a1,1432(sp)

00001774 <inst_378>:
    1774:	0000b537          	lui	a0,0xb
    1778:	50550513          	addi	a0,a0,1285 # b505 <_end+0x19fd>
    177c:	66757593          	andi	a1,a0,1639
    1780:	58b12e23          	sw	a1,1436(sp)

00001784 <inst_379>:
    1784:	0000b537          	lui	a0,0xb
    1788:	50550513          	addi	a0,a0,1285 # b505 <_end+0x19fd>
    178c:	fd457593          	andi	a1,a0,-44
    1790:	5ab12023          	sw	a1,1440(sp)

00001794 <inst_380>:
    1794:	0000b537          	lui	a0,0xb
    1798:	50550513          	addi	a0,a0,1285 # b505 <_end+0x19fd>
    179c:	02e57593          	andi	a1,a0,46
    17a0:	5ab12223          	sw	a1,1444(sp)

000017a4 <inst_381>:
    17a4:	00000513          	addi	a0,zero,0
    17a8:	00257593          	andi	a1,a0,2
    17ac:	5ab12423          	sw	a1,1448(sp)

000017b0 <inst_382>:
    17b0:	00000513          	addi	a0,zero,0
    17b4:	55457593          	andi	a1,a0,1364
    17b8:	5ab12623          	sw	a1,1452(sp)

000017bc <inst_383>:
    17bc:	00000513          	addi	a0,zero,0
    17c0:	00057593          	andi	a1,a0,0
    17c4:	5ab12823          	sw	a1,1456(sp)

000017c8 <inst_384>:
    17c8:	00000513          	addi	a0,zero,0
    17cc:	00457593          	andi	a1,a0,4
    17d0:	5ab12a23          	sw	a1,1460(sp)

000017d4 <inst_385>:
    17d4:	00000513          	addi	a0,zero,0
    17d8:	33257593          	andi	a1,a0,818
    17dc:	5ab12c23          	sw	a1,1464(sp)

000017e0 <inst_386>:
    17e0:	00000513          	addi	a0,zero,0
    17e4:	66557593          	andi	a1,a0,1637
    17e8:	5ab12e23          	sw	a1,1468(sp)

000017ec <inst_387>:
    17ec:	00000513          	addi	a0,zero,0
    17f0:	02c57593          	andi	a1,a0,44
    17f4:	5cb12023          	sw	a1,1472(sp)

000017f8 <inst_388>:
    17f8:	00000513          	addi	a0,zero,0
    17fc:	55657593          	andi	a1,a0,1366
    1800:	5cb12223          	sw	a1,1476(sp)

00001804 <inst_389>:
    1804:	00000513          	addi	a0,zero,0
    1808:	aab57593          	andi	a1,a0,-1365
    180c:	5cb12423          	sw	a1,1480(sp)

00001810 <inst_390>:
    1810:	00000513          	addi	a0,zero,0
    1814:	00657593          	andi	a1,a0,6
    1818:	5cb12623          	sw	a1,1484(sp)

0000181c <inst_391>:
    181c:	00000513          	addi	a0,zero,0
    1820:	33457593          	andi	a1,a0,820
    1824:	5cb12823          	sw	a1,1488(sp)

00001828 <inst_392>:
    1828:	00000513          	addi	a0,zero,0
    182c:	66757593          	andi	a1,a0,1639
    1830:	5cb12a23          	sw	a1,1492(sp)

00001834 <inst_393>:
    1834:	00000513          	addi	a0,zero,0
    1838:	fd457593          	andi	a1,a0,-44
    183c:	5cb12c23          	sw	a1,1496(sp)

00001840 <inst_394>:
    1840:	00000513          	addi	a0,zero,0
    1844:	02e57593          	andi	a1,a0,46
    1848:	5cb12e23          	sw	a1,1500(sp)

0000184c <inst_395>:
    184c:	00400513          	addi	a0,zero,4
    1850:	00357593          	andi	a1,a0,3
    1854:	5eb12023          	sw	a1,1504(sp)

00001858 <inst_396>:
    1858:	00400513          	addi	a0,zero,4
    185c:	55557593          	andi	a1,a0,1365
    1860:	5eb12223          	sw	a1,1508(sp)

00001864 <inst_397>:
    1864:	00400513          	addi	a0,zero,4
    1868:	aaa57593          	andi	a1,a0,-1366
    186c:	5eb12423          	sw	a1,1512(sp)

00001870 <inst_398>:
    1870:	00400513          	addi	a0,zero,4
    1874:	00557593          	andi	a1,a0,5
    1878:	5eb12623          	sw	a1,1516(sp)

0000187c <inst_399>:
    187c:	00400513          	addi	a0,zero,4
    1880:	33357593          	andi	a1,a0,819
    1884:	5eb12823          	sw	a1,1520(sp)

00001888 <inst_400>:
    1888:	00400513          	addi	a0,zero,4
    188c:	66657593          	andi	a1,a0,1638
    1890:	5eb12a23          	sw	a1,1524(sp)

00001894 <inst_401>:
    1894:	00400513          	addi	a0,zero,4
    1898:	fd357593          	andi	a1,a0,-45
    189c:	5eb12c23          	sw	a1,1528(sp)

000018a0 <inst_402>:
    18a0:	00400513          	addi	a0,zero,4
    18a4:	02d57593          	andi	a1,a0,45
    18a8:	5eb12e23          	sw	a1,1532(sp)

000018ac <inst_403>:
    18ac:	00400513          	addi	a0,zero,4
    18b0:	00257593          	andi	a1,a0,2
    18b4:	60b12023          	sw	a1,1536(sp)

000018b8 <inst_404>:
    18b8:	00400513          	addi	a0,zero,4
    18bc:	55457593          	andi	a1,a0,1364
    18c0:	60b12223          	sw	a1,1540(sp)

000018c4 <inst_405>:
    18c4:	00400513          	addi	a0,zero,4
    18c8:	00057593          	andi	a1,a0,0
    18cc:	60b12423          	sw	a1,1544(sp)

000018d0 <inst_406>:
    18d0:	00400513          	addi	a0,zero,4
    18d4:	00457593          	andi	a1,a0,4
    18d8:	60b12623          	sw	a1,1548(sp)

000018dc <inst_407>:
    18dc:	00400513          	addi	a0,zero,4
    18e0:	33257593          	andi	a1,a0,818
    18e4:	60b12823          	sw	a1,1552(sp)

000018e8 <inst_408>:
    18e8:	00400513          	addi	a0,zero,4
    18ec:	66557593          	andi	a1,a0,1637
    18f0:	60b12a23          	sw	a1,1556(sp)

000018f4 <inst_409>:
    18f4:	00400513          	addi	a0,zero,4
    18f8:	02c57593          	andi	a1,a0,44
    18fc:	60b12c23          	sw	a1,1560(sp)

00001900 <inst_410>:
    1900:	00400513          	addi	a0,zero,4
    1904:	55657593          	andi	a1,a0,1366
    1908:	60b12e23          	sw	a1,1564(sp)

0000190c <inst_411>:
    190c:	00400513          	addi	a0,zero,4
    1910:	aab57593          	andi	a1,a0,-1365
    1914:	62b12023          	sw	a1,1568(sp)

00001918 <inst_412>:
    1918:	00400513          	addi	a0,zero,4
    191c:	00657593          	andi	a1,a0,6
    1920:	62b12223          	sw	a1,1572(sp)

00001924 <inst_413>:
    1924:	00400513          	addi	a0,zero,4
    1928:	33457593          	andi	a1,a0,820
    192c:	62b12423          	sw	a1,1576(sp)

00001930 <inst_414>:
    1930:	00400513          	addi	a0,zero,4
    1934:	fd457593          	andi	a1,a0,-44
    1938:	62b12623          	sw	a1,1580(sp)

0000193c <inst_415>:
    193c:	00400513          	addi	a0,zero,4
    1940:	02e57593          	andi	a1,a0,46
    1944:	62b12823          	sw	a1,1584(sp)

00001948 <inst_416>:
    1948:	33333537          	lui	a0,0x33333
    194c:	33250513          	addi	a0,a0,818 # 33333332 <_end+0x3332982a>
    1950:	00357593          	andi	a1,a0,3
    1954:	62b12a23          	sw	a1,1588(sp)

00001958 <inst_417>:
    1958:	33333537          	lui	a0,0x33333
    195c:	33250513          	addi	a0,a0,818 # 33333332 <_end+0x3332982a>
    1960:	55557593          	andi	a1,a0,1365
    1964:	62b12c23          	sw	a1,1592(sp)

00001968 <inst_418>:
    1968:	33333537          	lui	a0,0x33333
    196c:	33250513          	addi	a0,a0,818 # 33333332 <_end+0x3332982a>
    1970:	aaa57593          	andi	a1,a0,-1366
    1974:	62b12e23          	sw	a1,1596(sp)

00001978 <inst_419>:
    1978:	33333537          	lui	a0,0x33333
    197c:	33250513          	addi	a0,a0,818 # 33333332 <_end+0x3332982a>
    1980:	00557593          	andi	a1,a0,5
    1984:	64b12023          	sw	a1,1600(sp)

00001988 <inst_420>:
    1988:	33333537          	lui	a0,0x33333
    198c:	33250513          	addi	a0,a0,818 # 33333332 <_end+0x3332982a>
    1990:	33357593          	andi	a1,a0,819
    1994:	64b12223          	sw	a1,1604(sp)

00001998 <inst_421>:
    1998:	33333537          	lui	a0,0x33333
    199c:	33250513          	addi	a0,a0,818 # 33333332 <_end+0x3332982a>
    19a0:	66657593          	andi	a1,a0,1638
    19a4:	64b12423          	sw	a1,1608(sp)

000019a8 <inst_422>:
    19a8:	33333537          	lui	a0,0x33333
    19ac:	33250513          	addi	a0,a0,818 # 33333332 <_end+0x3332982a>
    19b0:	fd357593          	andi	a1,a0,-45
    19b4:	64b12623          	sw	a1,1612(sp)

000019b8 <inst_423>:
    19b8:	33333537          	lui	a0,0x33333
    19bc:	33250513          	addi	a0,a0,818 # 33333332 <_end+0x3332982a>
    19c0:	02d57593          	andi	a1,a0,45
    19c4:	64b12823          	sw	a1,1616(sp)

000019c8 <inst_424>:
    19c8:	33333537          	lui	a0,0x33333
    19cc:	33250513          	addi	a0,a0,818 # 33333332 <_end+0x3332982a>
    19d0:	00257593          	andi	a1,a0,2
    19d4:	64b12a23          	sw	a1,1620(sp)

000019d8 <inst_425>:
    19d8:	33333537          	lui	a0,0x33333
    19dc:	33250513          	addi	a0,a0,818 # 33333332 <_end+0x3332982a>
    19e0:	55457593          	andi	a1,a0,1364
    19e4:	64b12c23          	sw	a1,1624(sp)

000019e8 <inst_426>:
    19e8:	33333537          	lui	a0,0x33333
    19ec:	33250513          	addi	a0,a0,818 # 33333332 <_end+0x3332982a>
    19f0:	00057593          	andi	a1,a0,0
    19f4:	64b12e23          	sw	a1,1628(sp)

000019f8 <inst_427>:
    19f8:	33333537          	lui	a0,0x33333
    19fc:	33250513          	addi	a0,a0,818 # 33333332 <_end+0x3332982a>
    1a00:	00457593          	andi	a1,a0,4
    1a04:	66b12023          	sw	a1,1632(sp)

00001a08 <inst_428>:
    1a08:	33333537          	lui	a0,0x33333
    1a0c:	33250513          	addi	a0,a0,818 # 33333332 <_end+0x3332982a>
    1a10:	33257593          	andi	a1,a0,818
    1a14:	66b12223          	sw	a1,1636(sp)

00001a18 <inst_429>:
    1a18:	33333537          	lui	a0,0x33333
    1a1c:	33250513          	addi	a0,a0,818 # 33333332 <_end+0x3332982a>
    1a20:	66557593          	andi	a1,a0,1637
    1a24:	66b12423          	sw	a1,1640(sp)

00001a28 <inst_430>:
    1a28:	33333537          	lui	a0,0x33333
    1a2c:	33250513          	addi	a0,a0,818 # 33333332 <_end+0x3332982a>
    1a30:	02c57593          	andi	a1,a0,44
    1a34:	66b12623          	sw	a1,1644(sp)

00001a38 <inst_431>:
    1a38:	33333537          	lui	a0,0x33333
    1a3c:	33250513          	addi	a0,a0,818 # 33333332 <_end+0x3332982a>
    1a40:	55657593          	andi	a1,a0,1366
    1a44:	66b12823          	sw	a1,1648(sp)

00001a48 <inst_432>:
    1a48:	33333537          	lui	a0,0x33333
    1a4c:	33250513          	addi	a0,a0,818 # 33333332 <_end+0x3332982a>
    1a50:	aab57593          	andi	a1,a0,-1365
    1a54:	66b12a23          	sw	a1,1652(sp)

00001a58 <inst_433>:
    1a58:	33333537          	lui	a0,0x33333
    1a5c:	33250513          	addi	a0,a0,818 # 33333332 <_end+0x3332982a>
    1a60:	00657593          	andi	a1,a0,6
    1a64:	66b12c23          	sw	a1,1656(sp)

00001a68 <inst_434>:
    1a68:	33333537          	lui	a0,0x33333
    1a6c:	33250513          	addi	a0,a0,818 # 33333332 <_end+0x3332982a>
    1a70:	33457593          	andi	a1,a0,820
    1a74:	66b12e23          	sw	a1,1660(sp)

00001a78 <inst_435>:
    1a78:	33333537          	lui	a0,0x33333
    1a7c:	33250513          	addi	a0,a0,818 # 33333332 <_end+0x3332982a>
    1a80:	66757593          	andi	a1,a0,1639
    1a84:	68b12023          	sw	a1,1664(sp)

00001a88 <inst_436>:
    1a88:	33333537          	lui	a0,0x33333
    1a8c:	33250513          	addi	a0,a0,818 # 33333332 <_end+0x3332982a>
    1a90:	fd457593          	andi	a1,a0,-44
    1a94:	68b12223          	sw	a1,1668(sp)

00001a98 <inst_437>:
    1a98:	33333537          	lui	a0,0x33333
    1a9c:	33250513          	addi	a0,a0,818 # 33333332 <_end+0x3332982a>
    1aa0:	02e57593          	andi	a1,a0,46
    1aa4:	68b12423          	sw	a1,1672(sp)

00001aa8 <inst_438>:
    1aa8:	66666537          	lui	a0,0x66666
    1aac:	66550513          	addi	a0,a0,1637 # 66666665 <absimm+0x21374136>
    1ab0:	00357593          	andi	a1,a0,3
    1ab4:	68b12623          	sw	a1,1676(sp)

00001ab8 <inst_439>:
    1ab8:	66666537          	lui	a0,0x66666
    1abc:	66550513          	addi	a0,a0,1637 # 66666665 <absimm+0x21374136>
    1ac0:	55557593          	andi	a1,a0,1365
    1ac4:	68b12823          	sw	a1,1680(sp)

00001ac8 <inst_440>:
    1ac8:	66666537          	lui	a0,0x66666
    1acc:	66550513          	addi	a0,a0,1637 # 66666665 <absimm+0x21374136>
    1ad0:	aaa57593          	andi	a1,a0,-1366
    1ad4:	68b12a23          	sw	a1,1684(sp)

00001ad8 <inst_441>:
    1ad8:	66666537          	lui	a0,0x66666
    1adc:	66550513          	addi	a0,a0,1637 # 66666665 <absimm+0x21374136>
    1ae0:	00557593          	andi	a1,a0,5
    1ae4:	68b12c23          	sw	a1,1688(sp)

00001ae8 <inst_442>:
    1ae8:	66666537          	lui	a0,0x66666
    1aec:	66550513          	addi	a0,a0,1637 # 66666665 <absimm+0x21374136>
    1af0:	33357593          	andi	a1,a0,819
    1af4:	68b12e23          	sw	a1,1692(sp)

00001af8 <inst_443>:
    1af8:	66666537          	lui	a0,0x66666
    1afc:	66550513          	addi	a0,a0,1637 # 66666665 <absimm+0x21374136>
    1b00:	66657593          	andi	a1,a0,1638
    1b04:	6ab12023          	sw	a1,1696(sp)

00001b08 <inst_444>:
    1b08:	66666537          	lui	a0,0x66666
    1b0c:	66550513          	addi	a0,a0,1637 # 66666665 <absimm+0x21374136>
    1b10:	fd357593          	andi	a1,a0,-45
    1b14:	6ab12223          	sw	a1,1700(sp)

00001b18 <inst_445>:
    1b18:	66666537          	lui	a0,0x66666
    1b1c:	66550513          	addi	a0,a0,1637 # 66666665 <absimm+0x21374136>
    1b20:	02d57593          	andi	a1,a0,45
    1b24:	6ab12423          	sw	a1,1704(sp)

00001b28 <inst_446>:
    1b28:	66666537          	lui	a0,0x66666
    1b2c:	66550513          	addi	a0,a0,1637 # 66666665 <absimm+0x21374136>
    1b30:	00257593          	andi	a1,a0,2
    1b34:	6ab12623          	sw	a1,1708(sp)

00001b38 <inst_447>:
    1b38:	66666537          	lui	a0,0x66666
    1b3c:	66550513          	addi	a0,a0,1637 # 66666665 <absimm+0x21374136>
    1b40:	55457593          	andi	a1,a0,1364
    1b44:	6ab12823          	sw	a1,1712(sp)

00001b48 <inst_448>:
    1b48:	66666537          	lui	a0,0x66666
    1b4c:	66550513          	addi	a0,a0,1637 # 66666665 <absimm+0x21374136>
    1b50:	00057593          	andi	a1,a0,0
    1b54:	6ab12a23          	sw	a1,1716(sp)

00001b58 <inst_449>:
    1b58:	66666537          	lui	a0,0x66666
    1b5c:	66550513          	addi	a0,a0,1637 # 66666665 <absimm+0x21374136>
    1b60:	00457593          	andi	a1,a0,4
    1b64:	6ab12c23          	sw	a1,1720(sp)

00001b68 <inst_450>:
    1b68:	66666537          	lui	a0,0x66666
    1b6c:	66550513          	addi	a0,a0,1637 # 66666665 <absimm+0x21374136>
    1b70:	33257593          	andi	a1,a0,818
    1b74:	6ab12e23          	sw	a1,1724(sp)

00001b78 <inst_451>:
    1b78:	66666537          	lui	a0,0x66666
    1b7c:	66550513          	addi	a0,a0,1637 # 66666665 <absimm+0x21374136>
    1b80:	66557593          	andi	a1,a0,1637
    1b84:	6cb12023          	sw	a1,1728(sp)

00001b88 <inst_452>:
    1b88:	66666537          	lui	a0,0x66666
    1b8c:	66550513          	addi	a0,a0,1637 # 66666665 <absimm+0x21374136>
    1b90:	02c57593          	andi	a1,a0,44
    1b94:	6cb12223          	sw	a1,1732(sp)

00001b98 <inst_453>:
    1b98:	66666537          	lui	a0,0x66666
    1b9c:	66550513          	addi	a0,a0,1637 # 66666665 <absimm+0x21374136>
    1ba0:	55657593          	andi	a1,a0,1366
    1ba4:	6cb12423          	sw	a1,1736(sp)

00001ba8 <inst_454>:
    1ba8:	66666537          	lui	a0,0x66666
    1bac:	66550513          	addi	a0,a0,1637 # 66666665 <absimm+0x21374136>
    1bb0:	aab57593          	andi	a1,a0,-1365
    1bb4:	6cb12623          	sw	a1,1740(sp)

00001bb8 <inst_455>:
    1bb8:	66666537          	lui	a0,0x66666
    1bbc:	66550513          	addi	a0,a0,1637 # 66666665 <absimm+0x21374136>
    1bc0:	00657593          	andi	a1,a0,6
    1bc4:	6cb12823          	sw	a1,1744(sp)

00001bc8 <inst_456>:
    1bc8:	66666537          	lui	a0,0x66666
    1bcc:	66550513          	addi	a0,a0,1637 # 66666665 <absimm+0x21374136>
    1bd0:	33457593          	andi	a1,a0,820
    1bd4:	6cb12a23          	sw	a1,1748(sp)

00001bd8 <inst_457>:
    1bd8:	66666537          	lui	a0,0x66666
    1bdc:	66550513          	addi	a0,a0,1637 # 66666665 <absimm+0x21374136>
    1be0:	66757593          	andi	a1,a0,1639
    1be4:	6cb12c23          	sw	a1,1752(sp)

00001be8 <inst_458>:
    1be8:	66666537          	lui	a0,0x66666
    1bec:	66550513          	addi	a0,a0,1637 # 66666665 <absimm+0x21374136>
    1bf0:	fd457593          	andi	a1,a0,-44
    1bf4:	6cb12e23          	sw	a1,1756(sp)

00001bf8 <inst_459>:
    1bf8:	66666537          	lui	a0,0x66666
    1bfc:	66550513          	addi	a0,a0,1637 # 66666665 <absimm+0x21374136>
    1c00:	02e57593          	andi	a1,a0,46
    1c04:	6eb12023          	sw	a1,1760(sp)

00001c08 <inst_460>:
    1c08:	0000b537          	lui	a0,0xb
    1c0c:	50350513          	addi	a0,a0,1283 # b503 <_end+0x19fb>
    1c10:	00357593          	andi	a1,a0,3
    1c14:	6eb12223          	sw	a1,1764(sp)

00001c18 <inst_461>:
    1c18:	0000b537          	lui	a0,0xb
    1c1c:	50350513          	addi	a0,a0,1283 # b503 <_end+0x19fb>
    1c20:	55557593          	andi	a1,a0,1365
    1c24:	6eb12423          	sw	a1,1768(sp)

00001c28 <inst_462>:
    1c28:	0000b537          	lui	a0,0xb
    1c2c:	50350513          	addi	a0,a0,1283 # b503 <_end+0x19fb>
    1c30:	aaa57593          	andi	a1,a0,-1366
    1c34:	6eb12623          	sw	a1,1772(sp)

00001c38 <inst_463>:
    1c38:	0000b537          	lui	a0,0xb
    1c3c:	50350513          	addi	a0,a0,1283 # b503 <_end+0x19fb>
    1c40:	00557593          	andi	a1,a0,5
    1c44:	6eb12823          	sw	a1,1776(sp)

00001c48 <inst_464>:
    1c48:	0000b537          	lui	a0,0xb
    1c4c:	50350513          	addi	a0,a0,1283 # b503 <_end+0x19fb>
    1c50:	33357593          	andi	a1,a0,819
    1c54:	6eb12a23          	sw	a1,1780(sp)

00001c58 <inst_465>:
    1c58:	0000b537          	lui	a0,0xb
    1c5c:	50350513          	addi	a0,a0,1283 # b503 <_end+0x19fb>
    1c60:	66657593          	andi	a1,a0,1638
    1c64:	6eb12c23          	sw	a1,1784(sp)

00001c68 <inst_466>:
    1c68:	0000b537          	lui	a0,0xb
    1c6c:	50350513          	addi	a0,a0,1283 # b503 <_end+0x19fb>
    1c70:	fd357593          	andi	a1,a0,-45
    1c74:	6eb12e23          	sw	a1,1788(sp)

00001c78 <inst_467>:
    1c78:	0000b537          	lui	a0,0xb
    1c7c:	50350513          	addi	a0,a0,1283 # b503 <_end+0x19fb>
    1c80:	02d57593          	andi	a1,a0,45
    1c84:	70b12023          	sw	a1,1792(sp)

00001c88 <inst_468>:
    1c88:	0000b537          	lui	a0,0xb
    1c8c:	50350513          	addi	a0,a0,1283 # b503 <_end+0x19fb>
    1c90:	00257593          	andi	a1,a0,2
    1c94:	70b12223          	sw	a1,1796(sp)

00001c98 <inst_469>:
    1c98:	0000b537          	lui	a0,0xb
    1c9c:	50350513          	addi	a0,a0,1283 # b503 <_end+0x19fb>
    1ca0:	55457593          	andi	a1,a0,1364
    1ca4:	70b12423          	sw	a1,1800(sp)

00001ca8 <inst_470>:
    1ca8:	0000b537          	lui	a0,0xb
    1cac:	50350513          	addi	a0,a0,1283 # b503 <_end+0x19fb>
    1cb0:	00057593          	andi	a1,a0,0
    1cb4:	70b12623          	sw	a1,1804(sp)

00001cb8 <inst_471>:
    1cb8:	0000b537          	lui	a0,0xb
    1cbc:	50350513          	addi	a0,a0,1283 # b503 <_end+0x19fb>
    1cc0:	00457593          	andi	a1,a0,4
    1cc4:	70b12823          	sw	a1,1808(sp)

00001cc8 <inst_472>:
    1cc8:	0000b537          	lui	a0,0xb
    1ccc:	50350513          	addi	a0,a0,1283 # b503 <_end+0x19fb>
    1cd0:	33257593          	andi	a1,a0,818
    1cd4:	70b12a23          	sw	a1,1812(sp)

00001cd8 <inst_473>:
    1cd8:	0000b537          	lui	a0,0xb
    1cdc:	50350513          	addi	a0,a0,1283 # b503 <_end+0x19fb>
    1ce0:	66557593          	andi	a1,a0,1637
    1ce4:	70b12c23          	sw	a1,1816(sp)

00001ce8 <inst_474>:
    1ce8:	0000b537          	lui	a0,0xb
    1cec:	50350513          	addi	a0,a0,1283 # b503 <_end+0x19fb>
    1cf0:	02c57593          	andi	a1,a0,44
    1cf4:	70b12e23          	sw	a1,1820(sp)

00001cf8 <inst_475>:
    1cf8:	0000b537          	lui	a0,0xb
    1cfc:	50350513          	addi	a0,a0,1283 # b503 <_end+0x19fb>
    1d00:	55657593          	andi	a1,a0,1366
    1d04:	72b12023          	sw	a1,1824(sp)

00001d08 <inst_476>:
    1d08:	0000b537          	lui	a0,0xb
    1d0c:	50350513          	addi	a0,a0,1283 # b503 <_end+0x19fb>
    1d10:	aab57593          	andi	a1,a0,-1365
    1d14:	72b12223          	sw	a1,1828(sp)

00001d18 <inst_477>:
    1d18:	0000b537          	lui	a0,0xb
    1d1c:	50350513          	addi	a0,a0,1283 # b503 <_end+0x19fb>
    1d20:	00657593          	andi	a1,a0,6
    1d24:	72b12423          	sw	a1,1832(sp)

00001d28 <inst_478>:
    1d28:	0000b537          	lui	a0,0xb
    1d2c:	50350513          	addi	a0,a0,1283 # b503 <_end+0x19fb>
    1d30:	33457593          	andi	a1,a0,820
    1d34:	72b12623          	sw	a1,1836(sp)

00001d38 <inst_479>:
    1d38:	0000b537          	lui	a0,0xb
    1d3c:	50350513          	addi	a0,a0,1283 # b503 <_end+0x19fb>
    1d40:	66757593          	andi	a1,a0,1639
    1d44:	72b12823          	sw	a1,1840(sp)

00001d48 <inst_480>:
    1d48:	0000b537          	lui	a0,0xb
    1d4c:	50350513          	addi	a0,a0,1283 # b503 <_end+0x19fb>
    1d50:	fd457593          	andi	a1,a0,-44
    1d54:	72b12a23          	sw	a1,1844(sp)

00001d58 <inst_481>:
    1d58:	0000b537          	lui	a0,0xb
    1d5c:	50350513          	addi	a0,a0,1283 # b503 <_end+0x19fb>
    1d60:	02e57593          	andi	a1,a0,46
    1d64:	72b12c23          	sw	a1,1848(sp)

00001d68 <inst_482>:
    1d68:	55555537          	lui	a0,0x55555
    1d6c:	55650513          	addi	a0,a0,1366 # 55555556 <absimm+0x10263027>
    1d70:	00357593          	andi	a1,a0,3
    1d74:	72b12e23          	sw	a1,1852(sp)

00001d78 <inst_483>:
    1d78:	55555537          	lui	a0,0x55555
    1d7c:	55650513          	addi	a0,a0,1366 # 55555556 <absimm+0x10263027>
    1d80:	55557593          	andi	a1,a0,1365
    1d84:	74b12023          	sw	a1,1856(sp)

00001d88 <inst_484>:
    1d88:	55555537          	lui	a0,0x55555
    1d8c:	55650513          	addi	a0,a0,1366 # 55555556 <absimm+0x10263027>
    1d90:	aaa57593          	andi	a1,a0,-1366
    1d94:	74b12223          	sw	a1,1860(sp)

00001d98 <inst_485>:
    1d98:	55555537          	lui	a0,0x55555
    1d9c:	55650513          	addi	a0,a0,1366 # 55555556 <absimm+0x10263027>
    1da0:	00557593          	andi	a1,a0,5
    1da4:	74b12423          	sw	a1,1864(sp)

00001da8 <inst_486>:
    1da8:	55555537          	lui	a0,0x55555
    1dac:	55650513          	addi	a0,a0,1366 # 55555556 <absimm+0x10263027>
    1db0:	33357593          	andi	a1,a0,819
    1db4:	74b12623          	sw	a1,1868(sp)

00001db8 <inst_487>:
    1db8:	55555537          	lui	a0,0x55555
    1dbc:	55650513          	addi	a0,a0,1366 # 55555556 <absimm+0x10263027>
    1dc0:	66657593          	andi	a1,a0,1638
    1dc4:	74b12823          	sw	a1,1872(sp)

00001dc8 <inst_488>:
    1dc8:	55555537          	lui	a0,0x55555
    1dcc:	55650513          	addi	a0,a0,1366 # 55555556 <absimm+0x10263027>
    1dd0:	fd357593          	andi	a1,a0,-45
    1dd4:	74b12a23          	sw	a1,1876(sp)

00001dd8 <inst_489>:
    1dd8:	55555537          	lui	a0,0x55555
    1ddc:	55650513          	addi	a0,a0,1366 # 55555556 <absimm+0x10263027>
    1de0:	02d57593          	andi	a1,a0,45
    1de4:	74b12c23          	sw	a1,1880(sp)

00001de8 <inst_490>:
    1de8:	55555537          	lui	a0,0x55555
    1dec:	55650513          	addi	a0,a0,1366 # 55555556 <absimm+0x10263027>
    1df0:	00257593          	andi	a1,a0,2
    1df4:	74b12e23          	sw	a1,1884(sp)

00001df8 <inst_491>:
    1df8:	55555537          	lui	a0,0x55555
    1dfc:	55650513          	addi	a0,a0,1366 # 55555556 <absimm+0x10263027>
    1e00:	55457593          	andi	a1,a0,1364
    1e04:	76b12023          	sw	a1,1888(sp)

00001e08 <inst_492>:
    1e08:	55555537          	lui	a0,0x55555
    1e0c:	55650513          	addi	a0,a0,1366 # 55555556 <absimm+0x10263027>
    1e10:	00057593          	andi	a1,a0,0
    1e14:	76b12223          	sw	a1,1892(sp)

00001e18 <inst_493>:
    1e18:	55555537          	lui	a0,0x55555
    1e1c:	55650513          	addi	a0,a0,1366 # 55555556 <absimm+0x10263027>
    1e20:	00457593          	andi	a1,a0,4
    1e24:	76b12423          	sw	a1,1896(sp)

00001e28 <inst_494>:
    1e28:	55555537          	lui	a0,0x55555
    1e2c:	55650513          	addi	a0,a0,1366 # 55555556 <absimm+0x10263027>
    1e30:	33257593          	andi	a1,a0,818
    1e34:	76b12623          	sw	a1,1900(sp)

00001e38 <inst_495>:
    1e38:	55555537          	lui	a0,0x55555
    1e3c:	55650513          	addi	a0,a0,1366 # 55555556 <absimm+0x10263027>
    1e40:	66557593          	andi	a1,a0,1637
    1e44:	76b12823          	sw	a1,1904(sp)

00001e48 <inst_496>:
    1e48:	55555537          	lui	a0,0x55555
    1e4c:	55650513          	addi	a0,a0,1366 # 55555556 <absimm+0x10263027>
    1e50:	02c57593          	andi	a1,a0,44
    1e54:	76b12a23          	sw	a1,1908(sp)

00001e58 <inst_497>:
    1e58:	55555537          	lui	a0,0x55555
    1e5c:	55650513          	addi	a0,a0,1366 # 55555556 <absimm+0x10263027>
    1e60:	55657593          	andi	a1,a0,1366
    1e64:	76b12c23          	sw	a1,1912(sp)

00001e68 <inst_498>:
    1e68:	55555537          	lui	a0,0x55555
    1e6c:	55650513          	addi	a0,a0,1366 # 55555556 <absimm+0x10263027>
    1e70:	aab57593          	andi	a1,a0,-1365
    1e74:	76b12e23          	sw	a1,1916(sp)

00001e78 <inst_499>:
    1e78:	55555537          	lui	a0,0x55555
    1e7c:	55650513          	addi	a0,a0,1366 # 55555556 <absimm+0x10263027>
    1e80:	00657593          	andi	a1,a0,6
    1e84:	78b12023          	sw	a1,1920(sp)

00001e88 <inst_500>:
    1e88:	55555537          	lui	a0,0x55555
    1e8c:	55650513          	addi	a0,a0,1366 # 55555556 <absimm+0x10263027>
    1e90:	33457593          	andi	a1,a0,820
    1e94:	78b12223          	sw	a1,1924(sp)

00001e98 <inst_501>:
    1e98:	55555537          	lui	a0,0x55555
    1e9c:	55650513          	addi	a0,a0,1366 # 55555556 <absimm+0x10263027>
    1ea0:	66757593          	andi	a1,a0,1639
    1ea4:	78b12423          	sw	a1,1928(sp)

00001ea8 <inst_502>:
    1ea8:	55555537          	lui	a0,0x55555
    1eac:	55650513          	addi	a0,a0,1366 # 55555556 <absimm+0x10263027>
    1eb0:	fd457593          	andi	a1,a0,-44
    1eb4:	78b12623          	sw	a1,1932(sp)

00001eb8 <inst_503>:
    1eb8:	55555537          	lui	a0,0x55555
    1ebc:	55650513          	addi	a0,a0,1366 # 55555556 <absimm+0x10263027>
    1ec0:	02e57593          	andi	a1,a0,46
    1ec4:	78b12823          	sw	a1,1936(sp)

00001ec8 <inst_504>:
    1ec8:	aaaab537          	lui	a0,0xaaaab
    1ecc:	aab50513          	addi	a0,a0,-1365 # aaaaaaab <absimm+0x657b857c>
    1ed0:	00357593          	andi	a1,a0,3
    1ed4:	78b12a23          	sw	a1,1940(sp)

00001ed8 <inst_505>:
    1ed8:	aaaab537          	lui	a0,0xaaaab
    1edc:	aab50513          	addi	a0,a0,-1365 # aaaaaaab <absimm+0x657b857c>
    1ee0:	55557593          	andi	a1,a0,1365
    1ee4:	78b12c23          	sw	a1,1944(sp)

00001ee8 <inst_506>:
    1ee8:	aaaab537          	lui	a0,0xaaaab
    1eec:	aab50513          	addi	a0,a0,-1365 # aaaaaaab <absimm+0x657b857c>
    1ef0:	aaa57593          	andi	a1,a0,-1366
    1ef4:	78b12e23          	sw	a1,1948(sp)

00001ef8 <inst_507>:
    1ef8:	aaaab537          	lui	a0,0xaaaab
    1efc:	aab50513          	addi	a0,a0,-1365 # aaaaaaab <absimm+0x657b857c>
    1f00:	00557593          	andi	a1,a0,5
    1f04:	7ab12023          	sw	a1,1952(sp)

00001f08 <inst_508>:
    1f08:	aaaab537          	lui	a0,0xaaaab
    1f0c:	aab50513          	addi	a0,a0,-1365 # aaaaaaab <absimm+0x657b857c>
    1f10:	33357593          	andi	a1,a0,819
    1f14:	7ab12223          	sw	a1,1956(sp)

00001f18 <inst_509>:
    1f18:	aaaab537          	lui	a0,0xaaaab
    1f1c:	aab50513          	addi	a0,a0,-1365 # aaaaaaab <absimm+0x657b857c>
    1f20:	66657593          	andi	a1,a0,1638
    1f24:	7ab12423          	sw	a1,1960(sp)

00001f28 <inst_510>:
    1f28:	aaaab537          	lui	a0,0xaaaab
    1f2c:	aab50513          	addi	a0,a0,-1365 # aaaaaaab <absimm+0x657b857c>
    1f30:	fd357593          	andi	a1,a0,-45
    1f34:	7ab12623          	sw	a1,1964(sp)

00001f38 <inst_511>:
    1f38:	aaaab537          	lui	a0,0xaaaab
    1f3c:	aab50513          	addi	a0,a0,-1365 # aaaaaaab <absimm+0x657b857c>
    1f40:	02d57593          	andi	a1,a0,45
    1f44:	7ab12823          	sw	a1,1968(sp)

00001f48 <inst_512>:
    1f48:	aaaab537          	lui	a0,0xaaaab
    1f4c:	aab50513          	addi	a0,a0,-1365 # aaaaaaab <absimm+0x657b857c>
    1f50:	00257593          	andi	a1,a0,2
    1f54:	7ab12a23          	sw	a1,1972(sp)

00001f58 <inst_513>:
    1f58:	aaaab537          	lui	a0,0xaaaab
    1f5c:	aab50513          	addi	a0,a0,-1365 # aaaaaaab <absimm+0x657b857c>
    1f60:	55457593          	andi	a1,a0,1364
    1f64:	7ab12c23          	sw	a1,1976(sp)

00001f68 <inst_514>:
    1f68:	aaaab537          	lui	a0,0xaaaab
    1f6c:	aab50513          	addi	a0,a0,-1365 # aaaaaaab <absimm+0x657b857c>
    1f70:	00057593          	andi	a1,a0,0
    1f74:	7ab12e23          	sw	a1,1980(sp)

00001f78 <inst_515>:
    1f78:	aaaab537          	lui	a0,0xaaaab
    1f7c:	aab50513          	addi	a0,a0,-1365 # aaaaaaab <absimm+0x657b857c>
    1f80:	00457593          	andi	a1,a0,4
    1f84:	7cb12023          	sw	a1,1984(sp)

00001f88 <inst_516>:
    1f88:	aaaab537          	lui	a0,0xaaaab
    1f8c:	aab50513          	addi	a0,a0,-1365 # aaaaaaab <absimm+0x657b857c>
    1f90:	33257593          	andi	a1,a0,818
    1f94:	7cb12223          	sw	a1,1988(sp)

00001f98 <inst_517>:
    1f98:	aaaab537          	lui	a0,0xaaaab
    1f9c:	aab50513          	addi	a0,a0,-1365 # aaaaaaab <absimm+0x657b857c>
    1fa0:	66557593          	andi	a1,a0,1637
    1fa4:	7cb12423          	sw	a1,1992(sp)

00001fa8 <inst_518>:
    1fa8:	aaaab537          	lui	a0,0xaaaab
    1fac:	aab50513          	addi	a0,a0,-1365 # aaaaaaab <absimm+0x657b857c>
    1fb0:	02c57593          	andi	a1,a0,44
    1fb4:	7cb12623          	sw	a1,1996(sp)

00001fb8 <inst_519>:
    1fb8:	aaaab537          	lui	a0,0xaaaab
    1fbc:	aab50513          	addi	a0,a0,-1365 # aaaaaaab <absimm+0x657b857c>
    1fc0:	55657593          	andi	a1,a0,1366
    1fc4:	7cb12823          	sw	a1,2000(sp)

00001fc8 <inst_520>:
    1fc8:	aaaab537          	lui	a0,0xaaaab
    1fcc:	aab50513          	addi	a0,a0,-1365 # aaaaaaab <absimm+0x657b857c>
    1fd0:	aab57593          	andi	a1,a0,-1365
    1fd4:	7cb12a23          	sw	a1,2004(sp)

00001fd8 <inst_521>:
    1fd8:	aaaab537          	lui	a0,0xaaaab
    1fdc:	aab50513          	addi	a0,a0,-1365 # aaaaaaab <absimm+0x657b857c>
    1fe0:	00657593          	andi	a1,a0,6
    1fe4:	7cb12c23          	sw	a1,2008(sp)

00001fe8 <inst_522>:
    1fe8:	aaaab537          	lui	a0,0xaaaab
    1fec:	aab50513          	addi	a0,a0,-1365 # aaaaaaab <absimm+0x657b857c>
    1ff0:	33457593          	andi	a1,a0,820
    1ff4:	7cb12e23          	sw	a1,2012(sp)

00001ff8 <inst_523>:
    1ff8:	aaaab537          	lui	a0,0xaaaab
    1ffc:	aab50513          	addi	a0,a0,-1365 # aaaaaaab <absimm+0x657b857c>
    2000:	66757593          	andi	a1,a0,1639
    2004:	7eb12023          	sw	a1,2016(sp)

00002008 <inst_524>:
    2008:	aaaab537          	lui	a0,0xaaaab
    200c:	aab50513          	addi	a0,a0,-1365 # aaaaaaab <absimm+0x657b857c>
    2010:	fd457593          	andi	a1,a0,-44
    2014:	7eb12223          	sw	a1,2020(sp)

00002018 <inst_525>:
    2018:	aaaab537          	lui	a0,0xaaaab
    201c:	aab50513          	addi	a0,a0,-1365 # aaaaaaab <absimm+0x657b857c>
    2020:	02e57593          	andi	a1,a0,46
    2024:	7eb12423          	sw	a1,2024(sp)

00002028 <inst_526>:
    2028:	00600513          	addi	a0,zero,6
    202c:	00357593          	andi	a1,a0,3
    2030:	7eb12623          	sw	a1,2028(sp)

00002034 <inst_527>:
    2034:	00600513          	addi	a0,zero,6
    2038:	55557593          	andi	a1,a0,1365
    203c:	7eb12823          	sw	a1,2032(sp)

00002040 <inst_528>:
    2040:	00600513          	addi	a0,zero,6
    2044:	aaa57593          	andi	a1,a0,-1366
    2048:	7eb12a23          	sw	a1,2036(sp)

0000204c <inst_529>:
    204c:	00600513          	addi	a0,zero,6
    2050:	00557593          	andi	a1,a0,5
    2054:	7eb12c23          	sw	a1,2040(sp)

00002058 <inst_530>:
    2058:	00600513          	addi	a0,zero,6
    205c:	33357593          	andi	a1,a0,819
    2060:	7eb12e23          	sw	a1,2044(sp)
    2064:	00000013          	addi	zero,zero,0
    2068:	00000013          	addi	zero,zero,0
    206c:	00000013          	addi	zero,zero,0
    2070:	00000013          	addi	zero,zero,0
    2074:	00000013          	addi	zero,zero,0
    2078:	00000013          	addi	zero,zero,0
    207c:	00000013          	addi	zero,zero,0
    2080:	00008117          	auipc	sp,0x8
    2084:	8e010113          	addi	sp,sp,-1824 # 9960 <signature_x2_1>
    2088:	00000013          	addi	zero,zero,0
    208c:	00000013          	addi	zero,zero,0
    2090:	00000013          	addi	zero,zero,0
    2094:	00000013          	addi	zero,zero,0
    2098:	00000013          	addi	zero,zero,0
    209c:	00000013          	addi	zero,zero,0

000020a0 <inst_531>:
    20a0:	00600513          	addi	a0,zero,6
    20a4:	66657593          	andi	a1,a0,1638
    20a8:	00b12023          	sw	a1,0(sp)

000020ac <inst_532>:
    20ac:	00600513          	addi	a0,zero,6
    20b0:	fd357593          	andi	a1,a0,-45
    20b4:	00b12223          	sw	a1,4(sp)

000020b8 <inst_533>:
    20b8:	00600513          	addi	a0,zero,6
    20bc:	02d57593          	andi	a1,a0,45
    20c0:	00b12423          	sw	a1,8(sp)

000020c4 <inst_534>:
    20c4:	00600513          	addi	a0,zero,6
    20c8:	00257593          	andi	a1,a0,2
    20cc:	00b12623          	sw	a1,12(sp)

000020d0 <inst_535>:
    20d0:	00600513          	addi	a0,zero,6
    20d4:	55457593          	andi	a1,a0,1364
    20d8:	00b12823          	sw	a1,16(sp)

000020dc <inst_536>:
    20dc:	00600513          	addi	a0,zero,6
    20e0:	00057593          	andi	a1,a0,0
    20e4:	00b12a23          	sw	a1,20(sp)

000020e8 <inst_537>:
    20e8:	00600513          	addi	a0,zero,6
    20ec:	00457593          	andi	a1,a0,4
    20f0:	00b12c23          	sw	a1,24(sp)

000020f4 <inst_538>:
    20f4:	00600513          	addi	a0,zero,6
    20f8:	33257593          	andi	a1,a0,818
    20fc:	00b12e23          	sw	a1,28(sp)

00002100 <inst_539>:
    2100:	00600513          	addi	a0,zero,6
    2104:	66557593          	andi	a1,a0,1637
    2108:	02b12023          	sw	a1,32(sp)

0000210c <inst_540>:
    210c:	00600513          	addi	a0,zero,6
    2110:	02c57593          	andi	a1,a0,44
    2114:	02b12223          	sw	a1,36(sp)

00002118 <inst_541>:
    2118:	00600513          	addi	a0,zero,6
    211c:	55657593          	andi	a1,a0,1366
    2120:	02b12423          	sw	a1,40(sp)

00002124 <inst_542>:
    2124:	00600513          	addi	a0,zero,6
    2128:	aab57593          	andi	a1,a0,-1365
    212c:	02b12623          	sw	a1,44(sp)

00002130 <inst_543>:
    2130:	00600513          	addi	a0,zero,6
    2134:	00657593          	andi	a1,a0,6
    2138:	02b12823          	sw	a1,48(sp)

0000213c <inst_544>:
    213c:	00600513          	addi	a0,zero,6
    2140:	33457593          	andi	a1,a0,820
    2144:	02b12a23          	sw	a1,52(sp)

00002148 <inst_545>:
    2148:	00600513          	addi	a0,zero,6
    214c:	66757593          	andi	a1,a0,1639
    2150:	02b12c23          	sw	a1,56(sp)

00002154 <inst_546>:
    2154:	00600513          	addi	a0,zero,6
    2158:	fd457593          	andi	a1,a0,-44
    215c:	02b12e23          	sw	a1,60(sp)

00002160 <inst_547>:
    2160:	00600513          	addi	a0,zero,6
    2164:	02e57593          	andi	a1,a0,46
    2168:	04b12023          	sw	a1,64(sp)

0000216c <inst_548>:
    216c:	33333537          	lui	a0,0x33333
    2170:	33450513          	addi	a0,a0,820 # 33333334 <_end+0x3332982c>
    2174:	00357593          	andi	a1,a0,3
    2178:	04b12223          	sw	a1,68(sp)

0000217c <inst_549>:
    217c:	33333537          	lui	a0,0x33333
    2180:	33450513          	addi	a0,a0,820 # 33333334 <_end+0x3332982c>
    2184:	55557593          	andi	a1,a0,1365
    2188:	04b12423          	sw	a1,72(sp)

0000218c <inst_550>:
    218c:	33333537          	lui	a0,0x33333
    2190:	33450513          	addi	a0,a0,820 # 33333334 <_end+0x3332982c>
    2194:	aaa57593          	andi	a1,a0,-1366
    2198:	04b12623          	sw	a1,76(sp)

0000219c <inst_551>:
    219c:	33333537          	lui	a0,0x33333
    21a0:	33450513          	addi	a0,a0,820 # 33333334 <_end+0x3332982c>
    21a4:	00557593          	andi	a1,a0,5
    21a8:	04b12823          	sw	a1,80(sp)

000021ac <inst_552>:
    21ac:	33333537          	lui	a0,0x33333
    21b0:	33450513          	addi	a0,a0,820 # 33333334 <_end+0x3332982c>
    21b4:	33357593          	andi	a1,a0,819
    21b8:	04b12a23          	sw	a1,84(sp)

000021bc <inst_553>:
    21bc:	33333537          	lui	a0,0x33333
    21c0:	33450513          	addi	a0,a0,820 # 33333334 <_end+0x3332982c>
    21c4:	66657593          	andi	a1,a0,1638
    21c8:	04b12c23          	sw	a1,88(sp)

000021cc <inst_554>:
    21cc:	33333537          	lui	a0,0x33333
    21d0:	33450513          	addi	a0,a0,820 # 33333334 <_end+0x3332982c>
    21d4:	fd357593          	andi	a1,a0,-45
    21d8:	04b12e23          	sw	a1,92(sp)

000021dc <inst_555>:
    21dc:	33333537          	lui	a0,0x33333
    21e0:	33450513          	addi	a0,a0,820 # 33333334 <_end+0x3332982c>
    21e4:	02d57593          	andi	a1,a0,45
    21e8:	06b12023          	sw	a1,96(sp)

000021ec <inst_556>:
    21ec:	33333537          	lui	a0,0x33333
    21f0:	33450513          	addi	a0,a0,820 # 33333334 <_end+0x3332982c>
    21f4:	00257593          	andi	a1,a0,2
    21f8:	06b12223          	sw	a1,100(sp)

000021fc <inst_557>:
    21fc:	33333537          	lui	a0,0x33333
    2200:	33450513          	addi	a0,a0,820 # 33333334 <_end+0x3332982c>
    2204:	55457593          	andi	a1,a0,1364
    2208:	06b12423          	sw	a1,104(sp)

0000220c <inst_558>:
    220c:	33333537          	lui	a0,0x33333
    2210:	33450513          	addi	a0,a0,820 # 33333334 <_end+0x3332982c>
    2214:	00057593          	andi	a1,a0,0
    2218:	06b12623          	sw	a1,108(sp)

0000221c <inst_559>:
    221c:	33333537          	lui	a0,0x33333
    2220:	33450513          	addi	a0,a0,820 # 33333334 <_end+0x3332982c>
    2224:	00457593          	andi	a1,a0,4
    2228:	06b12823          	sw	a1,112(sp)

0000222c <inst_560>:
    222c:	01000537          	lui	a0,0x1000
    2230:	00257593          	andi	a1,a0,2
    2234:	06b12a23          	sw	a1,116(sp)

00002238 <inst_561>:
    2238:	ffff5537          	lui	a0,0xffff5
    223c:	afc50513          	addi	a0,a0,-1284 # ffff4afc <immx+0x452e702c>
    2240:	eff57593          	andi	a1,a0,-257
    2244:	06b12c23          	sw	a1,120(sp)

00002248 <cleanup_epilogs>:
    2248:	0200006f          	jal	zero,2268 <exit_cleanup>

0000224c <abort_tests>:
    224c:	17812483          	lw	s1,376(sp)
    2250:	18012303          	lw	t1,384(sp)
    2254:	00930333          	add	t1,t1,s1
    2258:	bad0e337          	lui	t1,0xbad0e
    225c:	ad030313          	addi	t1,t1,-1328 # bad0dad0 <immx>
    2260:	fe64ae23          	sw	t1,-4(s1) # 3ffc <end_sim+0x1d68>
    2264:	0040006f          	jal	zero,2268 <exit_cleanup>

00002268 <exit_cleanup>:
    2268:	00007517          	auipc	a0,0x7
    226c:	ea850513          	addi	a0,a0,-344 # 9110 <begin_signature>
    2270:	00007597          	auipc	a1,0x7
    2274:	77058593          	addi	a1,a1,1904 # 99e0 <end_signature>
    2278:	00008637          	lui	a2,0x8
    227c:	00460613          	addi	a2,a2,4 # 8004 <rvtest_data_begin+0x4>

00002280 <sig_dump_loop>:
    2280:	00052283          	lw	t0,0(a0)
    2284:	00562023          	sw	t0,0(a2)
    2288:	00450513          	addi	a0,a0,4
    228c:	00b55463          	bge	a0,a1,2294 <end_sim>
    2290:	ff1ff06f          	jal	zero,2280 <sig_dump_loop>

00002294 <end_sim>:
    2294:	00008537          	lui	a0,0x8
    2298:	00850513          	addi	a0,a0,8 # 8008 <rvtest_data_begin+0x8>
    229c:	cafed5b7          	lui	a1,0xcafed
    22a0:	afe58593          	addi	a1,a1,-1282 # cafecafe <immx+0x102df02e>
    22a4:	00b52023          	sw	a1,0(a0)
    22a8:	fedff06f          	jal	zero,2294 <end_sim>
