
my.elf:     file format elf32-littleriscv


Disassembly of section .text.init:

00000000 <rvtest_entry_point>:
       0:	7d5c0837          	lui	a6,0x7d5c0
       4:	ddb80813          	addi	a6,a6,-549 # 7d5bfddb <absimm+0x382cd8ac>
       8:	00785893          	srli	a7,a6,0x7
       c:	01985793          	srli	a5,a6,0x19
      10:	00f8e8b3          	or	a7,a7,a5
      14:	0078d913          	srli	s2,a7,0x7
      18:	0198d793          	srli	a5,a7,0x19
      1c:	00f96933          	or	s2,s2,a5
      20:	00795993          	srli	s3,s2,0x7
      24:	01995793          	srli	a5,s2,0x19
      28:	00f9e9b3          	or	s3,s3,a5
      2c:	0079da13          	srli	s4,s3,0x7
      30:	0199d793          	srli	a5,s3,0x19
      34:	00fa6a33          	or	s4,s4,a5
      38:	007a5a93          	srli	s5,s4,0x7
      3c:	019a5793          	srli	a5,s4,0x19
      40:	00faeab3          	or	s5,s5,a5
      44:	007adb13          	srli	s6,s5,0x7
      48:	019ad793          	srli	a5,s5,0x19
      4c:	00fb6b33          	or	s6,s6,a5
      50:	007b5b93          	srli	s7,s6,0x7
      54:	019b5793          	srli	a5,s6,0x19
      58:	00fbebb3          	or	s7,s7,a5
      5c:	007bdc13          	srli	s8,s7,0x7
      60:	019bd793          	srli	a5,s7,0x19
      64:	00fc6c33          	or	s8,s8,a5
      68:	007c5c93          	srli	s9,s8,0x7
      6c:	019c5793          	srli	a5,s8,0x19
      70:	00fcecb3          	or	s9,s9,a5
      74:	007cdd13          	srli	s10,s9,0x7
      78:	019cd793          	srli	a5,s9,0x19
      7c:	00fd6d33          	or	s10,s10,a5
      80:	007d5d93          	srli	s11,s10,0x7
      84:	019d5793          	srli	a5,s10,0x19
      88:	00fdedb3          	or	s11,s11,a5
      8c:	007dde13          	srli	t3,s11,0x7
      90:	019dd793          	srli	a5,s11,0x19
      94:	00fe6e33          	or	t3,t3,a5
      98:	007e5e93          	srli	t4,t3,0x7
      9c:	019e5793          	srli	a5,t3,0x19
      a0:	00feeeb3          	or	t4,t4,a5
      a4:	007edf13          	srli	t5,t4,0x7
      a8:	019ed793          	srli	a5,t4,0x19
      ac:	00ff6f33          	or	t5,t5,a5
      b0:	feedc0b7          	lui	ra,0xfeedc
      b4:	ead08093          	addi	ra,ra,-339 # feedbead <immx+0x441ce3dd>
      b8:	0070d113          	srli	sp,ra,0x7
      bc:	0190d793          	srli	a5,ra,0x19
      c0:	00f16133          	or	sp,sp,a5
      c4:	00715193          	srli	gp,sp,0x7
      c8:	01915793          	srli	a5,sp,0x19
      cc:	00f1e1b3          	or	gp,gp,a5
      d0:	0071d213          	srli	tp,gp,0x7
      d4:	0191d793          	srli	a5,gp,0x19
      d8:	00f26233          	or	tp,tp,a5
      dc:	00725293          	srli	t0,tp,0x7
      e0:	01925793          	srli	a5,tp,0x19
      e4:	00f2e2b3          	or	t0,t0,a5
      e8:	0072d313          	srli	t1,t0,0x7
      ec:	0192d793          	srli	a5,t0,0x19
      f0:	00f36333          	or	t1,t1,a5
      f4:	00735393          	srli	t2,t1,0x7
      f8:	01935793          	srli	a5,t1,0x19
      fc:	00f3e3b3          	or	t2,t2,a5
     100:	0073d413          	srli	s0,t2,0x7
     104:	0193d793          	srli	a5,t2,0x19
     108:	00f46433          	or	s0,s0,a5
     10c:	00745493          	srli	s1,s0,0x7
     110:	01945793          	srli	a5,s0,0x19
     114:	00f4e4b3          	or	s1,s1,a5
     118:	0074d513          	srli	a0,s1,0x7
     11c:	0194d793          	srli	a5,s1,0x19
     120:	00f56533          	or	a0,a0,a5
     124:	00755593          	srli	a1,a0,0x7
     128:	01955793          	srli	a5,a0,0x19
     12c:	00f5e5b3          	or	a1,a1,a5
     130:	0075d613          	srli	a2,a1,0x7
     134:	0195d793          	srli	a5,a1,0x19
     138:	00f66633          	or	a2,a2,a5
     13c:	00765693          	srli	a3,a2,0x7
     140:	01965793          	srli	a5,a2,0x19
     144:	00f6e6b3          	or	a3,a3,a5

00000148 <rvtest_code_begin>:
     148:	00000013          	addi	zero,zero,0
     14c:	00000013          	addi	zero,zero,0
     150:	00000013          	addi	zero,zero,0
     154:	00000013          	addi	zero,zero,0
     158:	00000013          	addi	zero,zero,0
     15c:	00000013          	addi	zero,zero,0
     160:	00009617          	auipc	a2,0x9
     164:	fb460613          	addi	a2,a2,-76 # 9114 <signature_x12_0>
     168:	00000013          	addi	zero,zero,0
     16c:	00000013          	addi	zero,zero,0
     170:	00000013          	addi	zero,zero,0
     174:	00000013          	addi	zero,zero,0
     178:	00000013          	addi	zero,zero,0
     17c:	00000013          	addi	zero,zero,0

00000180 <inst_0>:
     180:	66666937          	lui	s2,0x66666
     184:	66790913          	addi	s2,s2,1639 # 66666667 <absimm+0x21374138>
     188:	66666d37          	lui	s10,0x66666
     18c:	667d0d13          	addi	s10,s10,1639 # 66666667 <absimm+0x21374138>
     190:	01a92d33          	slt	s10,s2,s10
     194:	01a62023          	sw	s10,0(a2)

00000198 <inst_1>:
     198:	33333a37          	lui	s4,0x33333
     19c:	334a0a13          	addi	s4,s4,820 # 33333334 <_end+0x3332972c>
     1a0:	33333a37          	lui	s4,0x33333
     1a4:	334a0a13          	addi	s4,s4,820 # 33333334 <_end+0x3332972c>
     1a8:	014a20b3          	slt	ra,s4,s4
     1ac:	00162223          	sw	ra,4(a2)

000001b0 <inst_2>:
     1b0:	ffffcab7          	lui	s5,0xffffc
     1b4:	fffa8a93          	addi	s5,s5,-1 # ffffbfff <immx+0x452ee52f>
     1b8:	ffffcab7          	lui	s5,0xffffc
     1bc:	fffa8a93          	addi	s5,s5,-1 # ffffbfff <immx+0x452ee52f>
     1c0:	015aaab3          	slt	s5,s5,s5
     1c4:	01562423          	sw	s5,8(a2)

000001c8 <inst_3>:
     1c8:	dff00793          	addi	a5,zero,-513
     1cc:	00500d93          	addi	s11,zero,5
     1d0:	01b7a7b3          	slt	a5,a5,s11
     1d4:	00f62623          	sw	a5,12(a2)

000001d8 <inst_4>:
     1d8:	333332b7          	lui	t0,0x33333
     1dc:	33428293          	addi	t0,t0,820 # 33333334 <_end+0x3332972c>
     1e0:	80000937          	lui	s2,0x80000
     1e4:	0122a3b3          	slt	t2,t0,s2
     1e8:	00762823          	sw	t2,16(a2)

000001ec <inst_5>:
     1ec:	08000cb7          	lui	s9,0x8000
     1f0:	00000993          	addi	s3,zero,0
     1f4:	013ca8b3          	slt	a7,s9,s3
     1f8:	01162a23          	sw	a7,20(a2)

000001fc <inst_6>:
     1fc:	000204b7          	lui	s1,0x20
     200:	80000fb7          	lui	t6,0x80000
     204:	ffff8f93          	addi	t6,t6,-1 # 7fffffff <absimm+0x3ad0dad0>
     208:	01f4abb3          	slt	s7,s1,t6
     20c:	01762c23          	sw	s7,24(a2)

00000210 <inst_7>:
     210:	fffe0137          	lui	sp,0xfffe0
     214:	fff10113          	addi	sp,sp,-1 # fffdffff <immx+0x452d252f>
     218:	00100793          	addi	a5,zero,1
     21c:	00f125b3          	slt	a1,sp,a5
     220:	00b62e23          	sw	a1,28(a2)

00000224 <inst_8>:
     224:	80000e37          	lui	t3,0x80000
     228:	40000693          	addi	a3,zero,1024
     22c:	00de2b33          	slt	s6,t3,a3
     230:	03662023          	sw	s6,32(a2)

00000234 <inst_9>:
     234:	00000513          	addi	a0,zero,0
     238:	00800393          	addi	t2,zero,8
     23c:	00752f33          	slt	t5,a0,t2
     240:	03e62223          	sw	t5,36(a2)

00000244 <inst_10>:
     244:	80000c37          	lui	s8,0x80000
     248:	fffc0c13          	addi	s8,s8,-1 # 7fffffff <absimm+0x3ad0dad0>
     24c:	eff00b13          	addi	s6,zero,-257
     250:	016c22b3          	slt	t0,s8,s6
     254:	02562423          	sw	t0,40(a2)

00000258 <inst_11>:
     258:	00100413          	addi	s0,zero,1
     25c:	dff00193          	addi	gp,zero,-513
     260:	00342c33          	slt	s8,s0,gp
     264:	03862623          	sw	s8,44(a2)

00000268 <inst_12>:
     268:	10000d37          	lui	s10,0x10000
     26c:	00200493          	addi	s1,zero,2
     270:	009d2133          	slt	sp,s10,s1
     274:	02262823          	sw	sp,48(a2)

00000278 <inst_13>:
     278:	00008237          	lui	tp,0x8
     27c:	00400713          	addi	a4,zero,4
     280:	00e22433          	slt	s0,tp,a4
     284:	02862a23          	sw	s0,52(a2)

00000288 <inst_14>:
     288:	fffff337          	lui	t1,0xfffff
     28c:	fff30313          	addi	t1,t1,-1 # ffffefff <immx+0x452f152f>
     290:	01000213          	addi	tp,zero,16
     294:	00432cb3          	slt	s9,t1,tp
     298:	03962c23          	sw	s9,56(a2)
     29c:	00000013          	addi	zero,zero,0
     2a0:	00009797          	auipc	a5,0x9
     2a4:	eb078793          	addi	a5,a5,-336 # 9150 <signature_x15_0>
     2a8:	00000013          	addi	zero,zero,0
     2ac:	00000013          	addi	zero,zero,0
     2b0:	00000013          	addi	zero,zero,0
     2b4:	00000013          	addi	zero,zero,0
     2b8:	00000013          	addi	zero,zero,0
     2bc:	00000013          	addi	zero,zero,0

000002c0 <inst_15>:
     2c0:	01000fb7          	lui	t6,0x1000
     2c4:	02000c93          	addi	s9,zero,32
     2c8:	019fa733          	slt	a4,t6,s9
     2cc:	00e7a023          	sw	a4,0(a5)

000002d0 <inst_16>:
     2d0:	00500713          	addi	a4,zero,5
     2d4:	04000413          	addi	s0,zero,64
     2d8:	00872a33          	slt	s4,a4,s0
     2dc:	0147a223          	sw	s4,4(a5)

000002e0 <inst_17>:
     2e0:	00000393          	addi	t2,zero,0
     2e4:	08000593          	addi	a1,zero,128
     2e8:	00b3a9b3          	slt	s3,t2,a1
     2ec:	0137a423          	sw	s3,8(a5)

000002f0 <inst_18>:
     2f0:	00500993          	addi	s3,zero,5
     2f4:	10000e93          	addi	t4,zero,256
     2f8:	01d9a4b3          	slt	s1,s3,t4
     2fc:	0097a623          	sw	s1,12(a5)

00000300 <inst_19>:
     300:	004001b7          	lui	gp,0x400
     304:	20000b93          	addi	s7,zero,512
     308:	0171a333          	slt	t1,gp,s7
     30c:	0067a823          	sw	t1,16(a5)

00000310 <inst_20>:
     310:	fef00593          	addi	a1,zero,-17
     314:	000010b7          	lui	ra,0x1
     318:	80008093          	addi	ra,ra,-2048 # 800 <inst_83+0x10>
     31c:	0015afb3          	slt	t6,a1,ra
     320:	01f7aa23          	sw	t6,20(a5)

00000324 <inst_21>:
     324:	ff000f37          	lui	t5,0xff000
     328:	ffff0f13          	addi	t5,t5,-1 # feffffff <immx+0x442f252f>
     32c:	00001837          	lui	a6,0x1
     330:	010f2633          	slt	a2,t5,a6
     334:	00c7ac23          	sw	a2,24(a5)

00000338 <inst_22>:
     338:	00000693          	addi	a3,zero,0
     33c:	00002137          	lui	sp,0x2
     340:	0026a833          	slt	a6,a3,sp
     344:	0107ae23          	sw	a6,28(a5)

00000348 <inst_23>:
     348:	02000b13          	addi	s6,zero,32
     34c:	00004637          	lui	a2,0x4
     350:	00cb2533          	slt	a0,s6,a2
     354:	02a7a023          	sw	a0,32(a5)

00000358 <inst_24>:
     358:	ffe00e93          	addi	t4,zero,-2
     35c:	00008c37          	lui	s8,0x8
     360:	018eadb3          	slt	s11,t4,s8
     364:	03b7a223          	sw	s11,36(a5)

00000368 <inst_25>:
     368:	fc000837          	lui	a6,0xfc000
     36c:	fff80813          	addi	a6,a6,-1 # fbffffff <immx+0x412f252f>
     370:	00010f37          	lui	t5,0x10
     374:	01e82233          	slt	tp,a6,t5
     378:	0247a423          	sw	tp,40(a5)

0000037c <inst_26>:
     37c:	000018b7          	lui	a7,0x1
     380:	00020e37          	lui	t3,0x20
     384:	01c8a1b3          	slt	gp,a7,t3
     388:	0237a623          	sw	gp,44(a5)

0000038c <inst_27>:
     38c:	020000b7          	lui	ra,0x2000
     390:	000402b7          	lui	t0,0x40
     394:	0050a6b3          	slt	a3,ra,t0
     398:	02d7a823          	sw	a3,48(a5)

0000039c <inst_28>:
     39c:	ffe00db7          	lui	s11,0xffe00
     3a0:	fffd8d93          	addi	s11,s11,-1 # ffdfffff <immx+0x450f252f>
     3a4:	00080537          	lui	a0,0x80
     3a8:	00ada933          	slt	s2,s11,a0
     3ac:	0327aa23          	sw	s2,52(a5)
     3b0:	00000013          	addi	zero,zero,0
     3b4:	00000013          	addi	zero,zero,0
     3b8:	00000013          	addi	zero,zero,0
     3bc:	00000013          	addi	zero,zero,0
     3c0:	00009097          	auipc	ra,0x9
     3c4:	dc808093          	addi	ra,ra,-568 # 9188 <signature_x1_0>
     3c8:	00000013          	addi	zero,zero,0
     3cc:	00000013          	addi	zero,zero,0
     3d0:	00000013          	addi	zero,zero,0
     3d4:	00000013          	addi	zero,zero,0
     3d8:	00000013          	addi	zero,zero,0
     3dc:	00000013          	addi	zero,zero,0

000003e0 <inst_29>:
     3e0:	00000013          	addi	zero,zero,0
     3e4:	001008b7          	lui	a7,0x100
     3e8:	01102e33          	slt	t3,zero,a7
     3ec:	01c0a023          	sw	t3,0(ra)

000003f0 <inst_30>:
     3f0:	00400613          	addi	a2,zero,4
     3f4:	00000013          	addi	zero,zero,0
     3f8:	00062eb3          	slt	t4,a2,zero
     3fc:	01d0a223          	sw	t4,4(ra)

00000400 <inst_31>:
     400:	00900b93          	addi	s7,zero,9
     404:	00400337          	lui	t1,0x400
     408:	006ba033          	slt	zero,s7,t1
     40c:	0000a423          	sw	zero,8(ra)

00000410 <inst_32>:
     410:	80000537          	lui	a0,0x80000
     414:	008005b7          	lui	a1,0x800
     418:	00b52633          	slt	a2,a0,a1
     41c:	00c0a623          	sw	a2,12(ra)

00000420 <inst_33>:
     420:	f7f00513          	addi	a0,zero,-129
     424:	010005b7          	lui	a1,0x1000
     428:	00b52633          	slt	a2,a0,a1
     42c:	00c0a823          	sw	a2,16(ra)

00000430 <inst_34>:
     430:	00040537          	lui	a0,0x40
     434:	020005b7          	lui	a1,0x2000
     438:	00b52633          	slt	a2,a0,a1
     43c:	00c0aa23          	sw	a2,20(ra)

00000440 <inst_35>:
     440:	aaaab537          	lui	a0,0xaaaab
     444:	aaa50513          	addi	a0,a0,-1366 # aaaaaaaa <absimm+0x657b857b>
     448:	040005b7          	lui	a1,0x4000
     44c:	00b52633          	slt	a2,a0,a1
     450:	00c0ac23          	sw	a2,24(ra)

00000454 <inst_36>:
     454:	eff00513          	addi	a0,zero,-257
     458:	080005b7          	lui	a1,0x8000
     45c:	00b52633          	slt	a2,a0,a1
     460:	00c0ae23          	sw	a2,28(ra)

00000464 <inst_37>:
     464:	02000537          	lui	a0,0x2000
     468:	100005b7          	lui	a1,0x10000
     46c:	00b52633          	slt	a2,a0,a1
     470:	02c0a023          	sw	a2,32(ra)

00000474 <inst_38>:
     474:	ffff8537          	lui	a0,0xffff8
     478:	fff50513          	addi	a0,a0,-1 # ffff7fff <immx+0x452ea52f>
     47c:	200005b7          	lui	a1,0x20000
     480:	00b52633          	slt	a2,a0,a1
     484:	02c0a223          	sw	a2,36(ra)

00000488 <inst_39>:
     488:	02000537          	lui	a0,0x2000
     48c:	400005b7          	lui	a1,0x40000
     490:	00b52633          	slt	a2,a0,a1
     494:	02c0a423          	sw	a2,40(ra)

00000498 <inst_40>:
     498:	33333537          	lui	a0,0x33333
     49c:	33450513          	addi	a0,a0,820 # 33333334 <_end+0x3332972c>
     4a0:	ffe00593          	addi	a1,zero,-2
     4a4:	00b52633          	slt	a2,a0,a1
     4a8:	02c0a623          	sw	a2,44(ra)

000004ac <inst_41>:
     4ac:	00700513          	addi	a0,zero,7
     4b0:	ffd00593          	addi	a1,zero,-3
     4b4:	00b52633          	slt	a2,a0,a1
     4b8:	02c0a823          	sw	a2,48(ra)

000004bc <inst_42>:
     4bc:	fef00513          	addi	a0,zero,-17
     4c0:	ffb00593          	addi	a1,zero,-5
     4c4:	00b52633          	slt	a2,a0,a1
     4c8:	02c0aa23          	sw	a2,52(ra)

000004cc <inst_43>:
     4cc:	00008537          	lui	a0,0x8
     4d0:	fef00593          	addi	a1,zero,-17
     4d4:	00b52633          	slt	a2,a0,a1
     4d8:	02c0ac23          	sw	a2,56(ra)

000004dc <inst_44>:
     4dc:	bff00513          	addi	a0,zero,-1025
     4e0:	fdf00593          	addi	a1,zero,-33
     4e4:	00b52633          	slt	a2,a0,a1
     4e8:	02c0ae23          	sw	a2,60(ra)

000004ec <inst_45>:
     4ec:	fef00513          	addi	a0,zero,-17
     4f0:	fbf00593          	addi	a1,zero,-65
     4f4:	00b52633          	slt	a2,a0,a1
     4f8:	04c0a023          	sw	a2,64(ra)

000004fc <inst_46>:
     4fc:	ffffc537          	lui	a0,0xffffc
     500:	fff50513          	addi	a0,a0,-1 # ffffbfff <immx+0x452ee52f>
     504:	f7f00593          	addi	a1,zero,-129
     508:	00b52633          	slt	a2,a0,a1
     50c:	04c0a223          	sw	a2,68(ra)

00000510 <inst_47>:
     510:	00080537          	lui	a0,0x80
     514:	bff00593          	addi	a1,zero,-1025
     518:	00b52633          	slt	a2,a0,a1
     51c:	04c0a423          	sw	a2,72(ra)

00000520 <inst_48>:
     520:	40000537          	lui	a0,0x40000
     524:	fffff5b7          	lui	a1,0xfffff
     528:	7ff58593          	addi	a1,a1,2047 # fffff7ff <immx+0x452f1d2f>
     52c:	00b52633          	slt	a2,a0,a1
     530:	04c0a623          	sw	a2,76(ra)

00000534 <inst_49>:
     534:	ff800537          	lui	a0,0xff800
     538:	fff50513          	addi	a0,a0,-1 # ff7fffff <immx+0x44af252f>
     53c:	fffff5b7          	lui	a1,0xfffff
     540:	fff58593          	addi	a1,a1,-1 # ffffefff <immx+0x452f152f>
     544:	00b52633          	slt	a2,a0,a1
     548:	04c0a823          	sw	a2,80(ra)

0000054c <inst_50>:
     54c:	00020537          	lui	a0,0x20
     550:	ffffe5b7          	lui	a1,0xffffe
     554:	fff58593          	addi	a1,a1,-1 # ffffdfff <immx+0x452f052f>
     558:	00b52633          	slt	a2,a0,a1
     55c:	04c0aa23          	sw	a2,84(ra)

00000560 <inst_51>:
     560:	00900513          	addi	a0,zero,9
     564:	ffffc5b7          	lui	a1,0xffffc
     568:	fff58593          	addi	a1,a1,-1 # ffffbfff <immx+0x452ee52f>
     56c:	00b52633          	slt	a2,a0,a1
     570:	04c0ac23          	sw	a2,88(ra)

00000574 <inst_52>:
     574:	00300513          	addi	a0,zero,3
     578:	ffff85b7          	lui	a1,0xffff8
     57c:	fff58593          	addi	a1,a1,-1 # ffff7fff <immx+0x452ea52f>
     580:	00b52633          	slt	a2,a0,a1
     584:	04c0ae23          	sw	a2,92(ra)

00000588 <inst_53>:
     588:	f0000537          	lui	a0,0xf0000
     58c:	fff50513          	addi	a0,a0,-1 # efffffff <immx+0x352f252f>
     590:	ffff05b7          	lui	a1,0xffff0
     594:	fff58593          	addi	a1,a1,-1 # fffeffff <immx+0x452e252f>
     598:	00b52633          	slt	a2,a0,a1
     59c:	06c0a023          	sw	a2,96(ra)

000005a0 <inst_54>:
     5a0:	0000b537          	lui	a0,0xb
     5a4:	50550513          	addi	a0,a0,1285 # b505 <_end+0x18fd>
     5a8:	fffe05b7          	lui	a1,0xfffe0
     5ac:	fff58593          	addi	a1,a1,-1 # fffdffff <immx+0x452d252f>
     5b0:	00b52633          	slt	a2,a0,a1
     5b4:	06c0a223          	sw	a2,100(ra)

000005b8 <inst_55>:
     5b8:	40000513          	addi	a0,zero,1024
     5bc:	fffc05b7          	lui	a1,0xfffc0
     5c0:	fff58593          	addi	a1,a1,-1 # fffbffff <immx+0x452b252f>
     5c4:	00b52633          	slt	a2,a0,a1
     5c8:	06c0a423          	sw	a2,104(ra)

000005cc <inst_56>:
     5cc:	ffff5537          	lui	a0,0xffff5
     5d0:	afd50513          	addi	a0,a0,-1283 # ffff4afd <immx+0x452e702d>
     5d4:	fff805b7          	lui	a1,0xfff80
     5d8:	fff58593          	addi	a1,a1,-1 # fff7ffff <immx+0x4527252f>
     5dc:	00b52633          	slt	a2,a0,a1
     5e0:	06c0a623          	sw	a2,108(ra)

000005e4 <inst_57>:
     5e4:	33333537          	lui	a0,0x33333
     5e8:	33350513          	addi	a0,a0,819 # 33333333 <_end+0x3332972b>
     5ec:	fff005b7          	lui	a1,0xfff00
     5f0:	fff58593          	addi	a1,a1,-1 # ffefffff <immx+0x451f252f>
     5f4:	00b52633          	slt	a2,a0,a1
     5f8:	06c0a823          	sw	a2,112(ra)

000005fc <inst_58>:
     5fc:	00001537          	lui	a0,0x1
     600:	ffe005b7          	lui	a1,0xffe00
     604:	fff58593          	addi	a1,a1,-1 # ffdfffff <immx+0x450f252f>
     608:	00b52633          	slt	a2,a0,a1
     60c:	06c0aa23          	sw	a2,116(ra)

00000610 <inst_59>:
     610:	fffe0537          	lui	a0,0xfffe0
     614:	fff50513          	addi	a0,a0,-1 # fffdffff <immx+0x452d252f>
     618:	ffc005b7          	lui	a1,0xffc00
     61c:	fff58593          	addi	a1,a1,-1 # ffbfffff <immx+0x44ef252f>
     620:	00b52633          	slt	a2,a0,a1
     624:	06c0ac23          	sw	a2,120(ra)

00000628 <inst_60>:
     628:	bff00513          	addi	a0,zero,-1025
     62c:	ff8005b7          	lui	a1,0xff800
     630:	fff58593          	addi	a1,a1,-1 # ff7fffff <immx+0x44af252f>
     634:	00b52633          	slt	a2,a0,a1
     638:	06c0ae23          	sw	a2,124(ra)

0000063c <inst_61>:
     63c:	02000513          	addi	a0,zero,32
     640:	ff0005b7          	lui	a1,0xff000
     644:	fff58593          	addi	a1,a1,-1 # feffffff <immx+0x442f252f>
     648:	00b52633          	slt	a2,a0,a1
     64c:	08c0a023          	sw	a2,128(ra)

00000650 <inst_62>:
     650:	00200537          	lui	a0,0x200
     654:	fe0005b7          	lui	a1,0xfe000
     658:	fff58593          	addi	a1,a1,-1 # fdffffff <immx+0x432f252f>
     65c:	00b52633          	slt	a2,a0,a1
     660:	08c0a223          	sw	a2,132(ra)

00000664 <inst_63>:
     664:	55555537          	lui	a0,0x55555
     668:	55550513          	addi	a0,a0,1365 # 55555555 <absimm+0x10263026>
     66c:	fc0005b7          	lui	a1,0xfc000
     670:	fff58593          	addi	a1,a1,-1 # fbffffff <immx+0x412f252f>
     674:	00b52633          	slt	a2,a0,a1
     678:	08c0a423          	sw	a2,136(ra)

0000067c <inst_64>:
     67c:	ffa00513          	addi	a0,zero,-6
     680:	f80005b7          	lui	a1,0xf8000
     684:	fff58593          	addi	a1,a1,-1 # f7ffffff <immx+0x3d2f252f>
     688:	00b52633          	slt	a2,a0,a1
     68c:	08c0a623          	sw	a2,140(ra)

00000690 <inst_65>:
     690:	55555537          	lui	a0,0x55555
     694:	55550513          	addi	a0,a0,1365 # 55555555 <absimm+0x10263026>
     698:	f00005b7          	lui	a1,0xf0000
     69c:	fff58593          	addi	a1,a1,-1 # efffffff <immx+0x352f252f>
     6a0:	00b52633          	slt	a2,a0,a1
     6a4:	08c0a823          	sw	a2,144(ra)

000006a8 <inst_66>:
     6a8:	ffffe537          	lui	a0,0xffffe
     6ac:	fff50513          	addi	a0,a0,-1 # ffffdfff <immx+0x452f052f>
     6b0:	e00005b7          	lui	a1,0xe0000
     6b4:	fff58593          	addi	a1,a1,-1 # dfffffff <immx+0x252f252f>
     6b8:	00b52633          	slt	a2,a0,a1
     6bc:	08c0aa23          	sw	a2,148(ra)

000006c0 <inst_67>:
     6c0:	55555537          	lui	a0,0x55555
     6c4:	55650513          	addi	a0,a0,1366 # 55555556 <absimm+0x10263027>
     6c8:	c00005b7          	lui	a1,0xc0000
     6cc:	fff58593          	addi	a1,a1,-1 # bfffffff <immx+0x52f252f>
     6d0:	00b52633          	slt	a2,a0,a1
     6d4:	08c0ac23          	sw	a2,152(ra)

000006d8 <inst_68>:
     6d8:	00200513          	addi	a0,zero,2
     6dc:	555555b7          	lui	a1,0x55555
     6e0:	55558593          	addi	a1,a1,1365 # 55555555 <absimm+0x10263026>
     6e4:	00b52633          	slt	a2,a0,a1
     6e8:	08c0ae23          	sw	a2,156(ra)

000006ec <inst_69>:
     6ec:	00300513          	addi	a0,zero,3
     6f0:	aaaab5b7          	lui	a1,0xaaaab
     6f4:	aaa58593          	addi	a1,a1,-1366 # aaaaaaaa <absimm+0x657b857b>
     6f8:	00b52633          	slt	a2,a0,a1
     6fc:	0ac0a023          	sw	a2,160(ra)

00000700 <inst_70>:
     700:	00800513          	addi	a0,zero,8
     704:	10000593          	addi	a1,zero,256
     708:	00b52633          	slt	a2,a0,a1
     70c:	0ac0a223          	sw	a2,164(ra)

00000710 <inst_71>:
     710:	01000513          	addi	a0,zero,16
     714:	555555b7          	lui	a1,0x55555
     718:	55658593          	addi	a1,a1,1366 # 55555556 <absimm+0x10263027>
     71c:	00b52633          	slt	a2,a0,a1
     720:	0ac0a423          	sw	a2,168(ra)

00000724 <inst_72>:
     724:	04000513          	addi	a0,zero,64
     728:	ffff55b7          	lui	a1,0xffff5
     72c:	afc58593          	addi	a1,a1,-1284 # ffff4afc <immx+0x452e702c>
     730:	00b52633          	slt	a2,a0,a1
     734:	0ac0a623          	sw	a2,172(ra)

00000738 <inst_73>:
     738:	08000513          	addi	a0,zero,128
     73c:	ffffe5b7          	lui	a1,0xffffe
     740:	fff58593          	addi	a1,a1,-1 # ffffdfff <immx+0x452f052f>
     744:	00b52633          	slt	a2,a0,a1
     748:	0ac0a823          	sw	a2,176(ra)

0000074c <inst_74>:
     74c:	10000513          	addi	a0,zero,256
     750:	c00005b7          	lui	a1,0xc0000
     754:	fff58593          	addi	a1,a1,-1 # bfffffff <immx+0x52f252f>
     758:	00b52633          	slt	a2,a0,a1
     75c:	0ac0aa23          	sw	a2,180(ra)

00000760 <inst_75>:
     760:	20000513          	addi	a0,zero,512
     764:	fbf00593          	addi	a1,zero,-65
     768:	00b52633          	slt	a2,a0,a1
     76c:	0ac0ac23          	sw	a2,184(ra)

00000770 <inst_76>:
     770:	00001537          	lui	a0,0x1
     774:	80050513          	addi	a0,a0,-2048 # 800 <inst_83+0x10>
     778:	000405b7          	lui	a1,0x40
     77c:	00b52633          	slt	a2,a0,a1
     780:	0ac0ae23          	sw	a2,188(ra)

00000784 <inst_77>:
     784:	00002537          	lui	a0,0x2
     788:	aaaab5b7          	lui	a1,0xaaaab
     78c:	aab58593          	addi	a1,a1,-1365 # aaaaaaab <absimm+0x657b857c>
     790:	00b52633          	slt	a2,a0,a1
     794:	0cc0a023          	sw	a2,192(ra)

00000798 <inst_78>:
     798:	00004537          	lui	a0,0x4
     79c:	fef00593          	addi	a1,zero,-17
     7a0:	00b52633          	slt	a2,a0,a1
     7a4:	0cc0a223          	sw	a2,196(ra)

000007a8 <inst_79>:
     7a8:	00010537          	lui	a0,0x10
     7ac:	00500593          	addi	a1,zero,5
     7b0:	00b52633          	slt	a2,a0,a1
     7b4:	0cc0a423          	sw	a2,200(ra)

000007b8 <inst_80>:
     7b8:	00100537          	lui	a0,0x100
     7bc:	ff0005b7          	lui	a1,0xff000
     7c0:	fff58593          	addi	a1,a1,-1 # feffffff <immx+0x442f252f>
     7c4:	00b52633          	slt	a2,a0,a1
     7c8:	0cc0a623          	sw	a2,204(ra)

000007cc <inst_81>:
     7cc:	00800537          	lui	a0,0x800
     7d0:	333335b7          	lui	a1,0x33333
     7d4:	33458593          	addi	a1,a1,820 # 33333334 <_end+0x3332972c>
     7d8:	00b52633          	slt	a2,a0,a1
     7dc:	0cc0a823          	sw	a2,208(ra)

000007e0 <inst_82>:
     7e0:	04000537          	lui	a0,0x4000
     7e4:	000045b7          	lui	a1,0x4
     7e8:	00b52633          	slt	a2,a0,a1
     7ec:	0cc0aa23          	sw	a2,212(ra)

000007f0 <inst_83>:
     7f0:	20000537          	lui	a0,0x20000
     7f4:	fe0005b7          	lui	a1,0xfe000
     7f8:	fff58593          	addi	a1,a1,-1 # fdffffff <immx+0x432f252f>
     7fc:	00b52633          	slt	a2,a0,a1
     800:	0cc0ac23          	sw	a2,216(ra)

00000804 <inst_84>:
     804:	ffd00513          	addi	a0,zero,-3
     808:	ffff55b7          	lui	a1,0xffff5
     80c:	afc58593          	addi	a1,a1,-1284 # ffff4afc <immx+0x452e702c>
     810:	00b52633          	slt	a2,a0,a1
     814:	0cc0ae23          	sw	a2,220(ra)

00000818 <inst_85>:
     818:	ffb00513          	addi	a0,zero,-5
     81c:	40000593          	addi	a1,zero,1024
     820:	00b52633          	slt	a2,a0,a1
     824:	0ec0a023          	sw	a2,224(ra)

00000828 <inst_86>:
     828:	ff700513          	addi	a0,zero,-9
     82c:	666665b7          	lui	a1,0x66666
     830:	66758593          	addi	a1,a1,1639 # 66666667 <absimm+0x21374138>
     834:	00b52633          	slt	a2,a0,a1
     838:	0ec0a223          	sw	a2,228(ra)

0000083c <inst_87>:
     83c:	fdf00513          	addi	a0,zero,-33
     840:	fffc05b7          	lui	a1,0xfffc0
     844:	fff58593          	addi	a1,a1,-1 # fffbffff <immx+0x452b252f>
     848:	00b52633          	slt	a2,a0,a1
     84c:	0ec0a423          	sw	a2,232(ra)

00000850 <inst_88>:
     850:	fbf00513          	addi	a0,zero,-65
     854:	400005b7          	lui	a1,0x40000
     858:	00b52633          	slt	a2,a0,a1
     85c:	0ec0a623          	sw	a2,236(ra)

00000860 <inst_89>:
     860:	fffff537          	lui	a0,0xfffff
     864:	7ff50513          	addi	a0,a0,2047 # fffff7ff <immx+0x452f1d2f>
     868:	00800593          	addi	a1,zero,8
     86c:	00b52633          	slt	a2,a0,a1
     870:	0ec0a823          	sw	a2,240(ra)

00000874 <inst_90>:
     874:	ffff0537          	lui	a0,0xffff0
     878:	fff50513          	addi	a0,a0,-1 # fffeffff <immx+0x452e252f>
     87c:	fffc05b7          	lui	a1,0xfffc0
     880:	fff58593          	addi	a1,a1,-1 # fffbffff <immx+0x452b252f>
     884:	00b52633          	slt	a2,a0,a1
     888:	0ec0aa23          	sw	a2,244(ra)

0000088c <inst_91>:
     88c:	fffc0537          	lui	a0,0xfffc0
     890:	fff50513          	addi	a0,a0,-1 # fffbffff <immx+0x452b252f>
     894:	e00005b7          	lui	a1,0xe0000
     898:	fff58593          	addi	a1,a1,-1 # dfffffff <immx+0x252f252f>
     89c:	00b52633          	slt	a2,a0,a1
     8a0:	0ec0ac23          	sw	a2,248(ra)

000008a4 <inst_92>:
     8a4:	fff80537          	lui	a0,0xfff80
     8a8:	fff50513          	addi	a0,a0,-1 # fff7ffff <immx+0x4527252f>
     8ac:	fef00593          	addi	a1,zero,-17
     8b0:	00b52633          	slt	a2,a0,a1
     8b4:	0ec0ae23          	sw	a2,252(ra)

000008b8 <inst_93>:
     8b8:	fff00537          	lui	a0,0xfff00
     8bc:	fff50513          	addi	a0,a0,-1 # ffefffff <immx+0x451f252f>
     8c0:	0000b5b7          	lui	a1,0xb
     8c4:	50458593          	addi	a1,a1,1284 # b504 <_end+0x18fc>
     8c8:	00b52633          	slt	a2,a0,a1
     8cc:	10c0a023          	sw	a2,256(ra)

000008d0 <inst_94>:
     8d0:	ffc00537          	lui	a0,0xffc00
     8d4:	fff50513          	addi	a0,a0,-1 # ffbfffff <immx+0x44ef252f>
     8d8:	00200593          	addi	a1,zero,2
     8dc:	00b52633          	slt	a2,a0,a1
     8e0:	10c0a223          	sw	a2,260(ra)

000008e4 <inst_95>:
     8e4:	fe000537          	lui	a0,0xfe000
     8e8:	fff50513          	addi	a0,a0,-1 # fdffffff <immx+0x432f252f>
     8ec:	000015b7          	lui	a1,0x1
     8f0:	00b52633          	slt	a2,a0,a1
     8f4:	10c0a423          	sw	a2,264(ra)

000008f8 <inst_96>:
     8f8:	f8000537          	lui	a0,0xf8000
     8fc:	fff50513          	addi	a0,a0,-1 # f7ffffff <immx+0x3d2f252f>
     900:	000015b7          	lui	a1,0x1
     904:	80058593          	addi	a1,a1,-2048 # 800 <inst_83+0x10>
     908:	00b52633          	slt	a2,a0,a1
     90c:	10c0a623          	sw	a2,268(ra)

00000910 <inst_97>:
     910:	e0000537          	lui	a0,0xe0000
     914:	fff50513          	addi	a0,a0,-1 # dfffffff <immx+0x252f252f>
     918:	666665b7          	lui	a1,0x66666
     91c:	66658593          	addi	a1,a1,1638 # 66666666 <absimm+0x21374137>
     920:	00b52633          	slt	a2,a0,a1
     924:	10c0a823          	sw	a2,272(ra)

00000928 <inst_98>:
     928:	c0000537          	lui	a0,0xc0000
     92c:	fff50513          	addi	a0,a0,-1 # bfffffff <immx+0x52f252f>
     930:	ffff55b7          	lui	a1,0xffff5
     934:	afc58593          	addi	a1,a1,-1284 # ffff4afc <immx+0x452e702c>
     938:	00b52633          	slt	a2,a0,a1
     93c:	10c0aa23          	sw	a2,276(ra)

00000940 <inst_99>:
     940:	00300513          	addi	a0,zero,3
     944:	00300593          	addi	a1,zero,3
     948:	00b52633          	slt	a2,a0,a1
     94c:	10c0ac23          	sw	a2,280(ra)

00000950 <inst_100>:
     950:	00300513          	addi	a0,zero,3
     954:	555555b7          	lui	a1,0x55555
     958:	55558593          	addi	a1,a1,1365 # 55555555 <absimm+0x10263026>
     95c:	00b52633          	slt	a2,a0,a1
     960:	10c0ae23          	sw	a2,284(ra)

00000964 <inst_101>:
     964:	00300513          	addi	a0,zero,3
     968:	00500593          	addi	a1,zero,5
     96c:	00b52633          	slt	a2,a0,a1
     970:	12c0a023          	sw	a2,288(ra)

00000974 <inst_102>:
     974:	00300513          	addi	a0,zero,3
     978:	333335b7          	lui	a1,0x33333
     97c:	33358593          	addi	a1,a1,819 # 33333333 <_end+0x3332972b>
     980:	00b52633          	slt	a2,a0,a1
     984:	12c0a223          	sw	a2,292(ra)

00000988 <inst_103>:
     988:	00300513          	addi	a0,zero,3
     98c:	666665b7          	lui	a1,0x66666
     990:	66658593          	addi	a1,a1,1638 # 66666666 <absimm+0x21374137>
     994:	00b52633          	slt	a2,a0,a1
     998:	12c0a423          	sw	a2,296(ra)

0000099c <inst_104>:
     99c:	00300513          	addi	a0,zero,3
     9a0:	ffff55b7          	lui	a1,0xffff5
     9a4:	afc58593          	addi	a1,a1,-1284 # ffff4afc <immx+0x452e702c>
     9a8:	00b52633          	slt	a2,a0,a1
     9ac:	12c0a623          	sw	a2,300(ra)

000009b0 <inst_105>:
     9b0:	00300513          	addi	a0,zero,3
     9b4:	0000b5b7          	lui	a1,0xb
     9b8:	50458593          	addi	a1,a1,1284 # b504 <_end+0x18fc>
     9bc:	00b52633          	slt	a2,a0,a1
     9c0:	12c0a823          	sw	a2,304(ra)

000009c4 <inst_106>:
     9c4:	00300513          	addi	a0,zero,3
     9c8:	00200593          	addi	a1,zero,2
     9cc:	00b52633          	slt	a2,a0,a1
     9d0:	12c0aa23          	sw	a2,308(ra)

000009d4 <inst_107>:
     9d4:	00300513          	addi	a0,zero,3
     9d8:	555555b7          	lui	a1,0x55555
     9dc:	55458593          	addi	a1,a1,1364 # 55555554 <absimm+0x10263025>
     9e0:	00b52633          	slt	a2,a0,a1
     9e4:	12c0ac23          	sw	a2,312(ra)

000009e8 <inst_108>:
     9e8:	00300513          	addi	a0,zero,3
     9ec:	00000593          	addi	a1,zero,0
     9f0:	00b52633          	slt	a2,a0,a1
     9f4:	12c0ae23          	sw	a2,316(ra)

000009f8 <inst_109>:
     9f8:	00300513          	addi	a0,zero,3
     9fc:	00400593          	addi	a1,zero,4
     a00:	00b52633          	slt	a2,a0,a1
     a04:	14c0a023          	sw	a2,320(ra)

00000a08 <inst_110>:
     a08:	00300513          	addi	a0,zero,3
     a0c:	333335b7          	lui	a1,0x33333
     a10:	33258593          	addi	a1,a1,818 # 33333332 <_end+0x3332972a>
     a14:	00b52633          	slt	a2,a0,a1
     a18:	14c0a223          	sw	a2,324(ra)

00000a1c <inst_111>:
     a1c:	00300513          	addi	a0,zero,3
     a20:	666665b7          	lui	a1,0x66666
     a24:	66558593          	addi	a1,a1,1637 # 66666665 <absimm+0x21374136>
     a28:	00b52633          	slt	a2,a0,a1
     a2c:	14c0a423          	sw	a2,328(ra)

00000a30 <inst_112>:
     a30:	00300513          	addi	a0,zero,3
     a34:	0000b5b7          	lui	a1,0xb
     a38:	50358593          	addi	a1,a1,1283 # b503 <_end+0x18fb>
     a3c:	00b52633          	slt	a2,a0,a1
     a40:	14c0a623          	sw	a2,332(ra)

00000a44 <inst_113>:
     a44:	00300513          	addi	a0,zero,3
     a48:	555555b7          	lui	a1,0x55555
     a4c:	55658593          	addi	a1,a1,1366 # 55555556 <absimm+0x10263027>
     a50:	00b52633          	slt	a2,a0,a1
     a54:	14c0a823          	sw	a2,336(ra)

00000a58 <inst_114>:
     a58:	00300513          	addi	a0,zero,3
     a5c:	aaaab5b7          	lui	a1,0xaaaab
     a60:	aab58593          	addi	a1,a1,-1365 # aaaaaaab <absimm+0x657b857c>
     a64:	00b52633          	slt	a2,a0,a1
     a68:	14c0aa23          	sw	a2,340(ra)

00000a6c <inst_115>:
     a6c:	00300513          	addi	a0,zero,3
     a70:	00600593          	addi	a1,zero,6
     a74:	00b52633          	slt	a2,a0,a1
     a78:	14c0ac23          	sw	a2,344(ra)

00000a7c <inst_116>:
     a7c:	00300513          	addi	a0,zero,3
     a80:	333335b7          	lui	a1,0x33333
     a84:	33458593          	addi	a1,a1,820 # 33333334 <_end+0x3332972c>
     a88:	00b52633          	slt	a2,a0,a1
     a8c:	14c0ae23          	sw	a2,348(ra)

00000a90 <inst_117>:
     a90:	00300513          	addi	a0,zero,3
     a94:	666665b7          	lui	a1,0x66666
     a98:	66758593          	addi	a1,a1,1639 # 66666667 <absimm+0x21374138>
     a9c:	00b52633          	slt	a2,a0,a1
     aa0:	16c0a023          	sw	a2,352(ra)

00000aa4 <inst_118>:
     aa4:	00300513          	addi	a0,zero,3
     aa8:	ffff55b7          	lui	a1,0xffff5
     aac:	afd58593          	addi	a1,a1,-1283 # ffff4afd <immx+0x452e702d>
     ab0:	00b52633          	slt	a2,a0,a1
     ab4:	16c0a223          	sw	a2,356(ra)

00000ab8 <inst_119>:
     ab8:	00300513          	addi	a0,zero,3
     abc:	0000b5b7          	lui	a1,0xb
     ac0:	50558593          	addi	a1,a1,1285 # b505 <_end+0x18fd>
     ac4:	00b52633          	slt	a2,a0,a1
     ac8:	16c0a423          	sw	a2,360(ra)

00000acc <inst_120>:
     acc:	55555537          	lui	a0,0x55555
     ad0:	55550513          	addi	a0,a0,1365 # 55555555 <absimm+0x10263026>
     ad4:	00300593          	addi	a1,zero,3
     ad8:	00b52633          	slt	a2,a0,a1
     adc:	16c0a623          	sw	a2,364(ra)

00000ae0 <inst_121>:
     ae0:	55555537          	lui	a0,0x55555
     ae4:	55550513          	addi	a0,a0,1365 # 55555555 <absimm+0x10263026>
     ae8:	555555b7          	lui	a1,0x55555
     aec:	55558593          	addi	a1,a1,1365 # 55555555 <absimm+0x10263026>
     af0:	00b52633          	slt	a2,a0,a1
     af4:	16c0a823          	sw	a2,368(ra)

00000af8 <inst_122>:
     af8:	55555537          	lui	a0,0x55555
     afc:	55550513          	addi	a0,a0,1365 # 55555555 <absimm+0x10263026>
     b00:	aaaab5b7          	lui	a1,0xaaaab
     b04:	aaa58593          	addi	a1,a1,-1366 # aaaaaaaa <absimm+0x657b857b>
     b08:	00b52633          	slt	a2,a0,a1
     b0c:	16c0aa23          	sw	a2,372(ra)

00000b10 <inst_123>:
     b10:	55555537          	lui	a0,0x55555
     b14:	55550513          	addi	a0,a0,1365 # 55555555 <absimm+0x10263026>
     b18:	00500593          	addi	a1,zero,5
     b1c:	00b52633          	slt	a2,a0,a1
     b20:	16c0ac23          	sw	a2,376(ra)

00000b24 <inst_124>:
     b24:	55555537          	lui	a0,0x55555
     b28:	55550513          	addi	a0,a0,1365 # 55555555 <absimm+0x10263026>
     b2c:	333335b7          	lui	a1,0x33333
     b30:	33358593          	addi	a1,a1,819 # 33333333 <_end+0x3332972b>
     b34:	00b52633          	slt	a2,a0,a1
     b38:	16c0ae23          	sw	a2,380(ra)

00000b3c <inst_125>:
     b3c:	55555537          	lui	a0,0x55555
     b40:	55550513          	addi	a0,a0,1365 # 55555555 <absimm+0x10263026>
     b44:	666665b7          	lui	a1,0x66666
     b48:	66658593          	addi	a1,a1,1638 # 66666666 <absimm+0x21374137>
     b4c:	00b52633          	slt	a2,a0,a1
     b50:	18c0a023          	sw	a2,384(ra)

00000b54 <inst_126>:
     b54:	55555537          	lui	a0,0x55555
     b58:	55550513          	addi	a0,a0,1365 # 55555555 <absimm+0x10263026>
     b5c:	ffff55b7          	lui	a1,0xffff5
     b60:	afc58593          	addi	a1,a1,-1284 # ffff4afc <immx+0x452e702c>
     b64:	00b52633          	slt	a2,a0,a1
     b68:	18c0a223          	sw	a2,388(ra)

00000b6c <inst_127>:
     b6c:	55555537          	lui	a0,0x55555
     b70:	55550513          	addi	a0,a0,1365 # 55555555 <absimm+0x10263026>
     b74:	0000b5b7          	lui	a1,0xb
     b78:	50458593          	addi	a1,a1,1284 # b504 <_end+0x18fc>
     b7c:	00b52633          	slt	a2,a0,a1
     b80:	18c0a423          	sw	a2,392(ra)

00000b84 <inst_128>:
     b84:	55555537          	lui	a0,0x55555
     b88:	55550513          	addi	a0,a0,1365 # 55555555 <absimm+0x10263026>
     b8c:	00200593          	addi	a1,zero,2
     b90:	00b52633          	slt	a2,a0,a1
     b94:	18c0a623          	sw	a2,396(ra)

00000b98 <inst_129>:
     b98:	55555537          	lui	a0,0x55555
     b9c:	55550513          	addi	a0,a0,1365 # 55555555 <absimm+0x10263026>
     ba0:	555555b7          	lui	a1,0x55555
     ba4:	55458593          	addi	a1,a1,1364 # 55555554 <absimm+0x10263025>
     ba8:	00b52633          	slt	a2,a0,a1
     bac:	18c0a823          	sw	a2,400(ra)

00000bb0 <inst_130>:
     bb0:	55555537          	lui	a0,0x55555
     bb4:	55550513          	addi	a0,a0,1365 # 55555555 <absimm+0x10263026>
     bb8:	00000593          	addi	a1,zero,0
     bbc:	00b52633          	slt	a2,a0,a1
     bc0:	18c0aa23          	sw	a2,404(ra)

00000bc4 <inst_131>:
     bc4:	55555537          	lui	a0,0x55555
     bc8:	55550513          	addi	a0,a0,1365 # 55555555 <absimm+0x10263026>
     bcc:	00400593          	addi	a1,zero,4
     bd0:	00b52633          	slt	a2,a0,a1
     bd4:	18c0ac23          	sw	a2,408(ra)

00000bd8 <inst_132>:
     bd8:	55555537          	lui	a0,0x55555
     bdc:	55550513          	addi	a0,a0,1365 # 55555555 <absimm+0x10263026>
     be0:	333335b7          	lui	a1,0x33333
     be4:	33258593          	addi	a1,a1,818 # 33333332 <_end+0x3332972a>
     be8:	00b52633          	slt	a2,a0,a1
     bec:	18c0ae23          	sw	a2,412(ra)

00000bf0 <inst_133>:
     bf0:	55555537          	lui	a0,0x55555
     bf4:	55550513          	addi	a0,a0,1365 # 55555555 <absimm+0x10263026>
     bf8:	666665b7          	lui	a1,0x66666
     bfc:	66558593          	addi	a1,a1,1637 # 66666665 <absimm+0x21374136>
     c00:	00b52633          	slt	a2,a0,a1
     c04:	1ac0a023          	sw	a2,416(ra)

00000c08 <inst_134>:
     c08:	55555537          	lui	a0,0x55555
     c0c:	55550513          	addi	a0,a0,1365 # 55555555 <absimm+0x10263026>
     c10:	0000b5b7          	lui	a1,0xb
     c14:	50358593          	addi	a1,a1,1283 # b503 <_end+0x18fb>
     c18:	00b52633          	slt	a2,a0,a1
     c1c:	1ac0a223          	sw	a2,420(ra)

00000c20 <inst_135>:
     c20:	55555537          	lui	a0,0x55555
     c24:	55550513          	addi	a0,a0,1365 # 55555555 <absimm+0x10263026>
     c28:	555555b7          	lui	a1,0x55555
     c2c:	55658593          	addi	a1,a1,1366 # 55555556 <absimm+0x10263027>
     c30:	00b52633          	slt	a2,a0,a1
     c34:	1ac0a423          	sw	a2,424(ra)

00000c38 <inst_136>:
     c38:	55555537          	lui	a0,0x55555
     c3c:	55550513          	addi	a0,a0,1365 # 55555555 <absimm+0x10263026>
     c40:	aaaab5b7          	lui	a1,0xaaaab
     c44:	aab58593          	addi	a1,a1,-1365 # aaaaaaab <absimm+0x657b857c>
     c48:	00b52633          	slt	a2,a0,a1
     c4c:	1ac0a623          	sw	a2,428(ra)

00000c50 <inst_137>:
     c50:	55555537          	lui	a0,0x55555
     c54:	55550513          	addi	a0,a0,1365 # 55555555 <absimm+0x10263026>
     c58:	00600593          	addi	a1,zero,6
     c5c:	00b52633          	slt	a2,a0,a1
     c60:	1ac0a823          	sw	a2,432(ra)

00000c64 <inst_138>:
     c64:	55555537          	lui	a0,0x55555
     c68:	55550513          	addi	a0,a0,1365 # 55555555 <absimm+0x10263026>
     c6c:	333335b7          	lui	a1,0x33333
     c70:	33458593          	addi	a1,a1,820 # 33333334 <_end+0x3332972c>
     c74:	00b52633          	slt	a2,a0,a1
     c78:	1ac0aa23          	sw	a2,436(ra)

00000c7c <inst_139>:
     c7c:	55555537          	lui	a0,0x55555
     c80:	55550513          	addi	a0,a0,1365 # 55555555 <absimm+0x10263026>
     c84:	666665b7          	lui	a1,0x66666
     c88:	66758593          	addi	a1,a1,1639 # 66666667 <absimm+0x21374138>
     c8c:	00b52633          	slt	a2,a0,a1
     c90:	1ac0ac23          	sw	a2,440(ra)

00000c94 <inst_140>:
     c94:	55555537          	lui	a0,0x55555
     c98:	55550513          	addi	a0,a0,1365 # 55555555 <absimm+0x10263026>
     c9c:	ffff55b7          	lui	a1,0xffff5
     ca0:	afd58593          	addi	a1,a1,-1283 # ffff4afd <immx+0x452e702d>
     ca4:	00b52633          	slt	a2,a0,a1
     ca8:	1ac0ae23          	sw	a2,444(ra)

00000cac <inst_141>:
     cac:	55555537          	lui	a0,0x55555
     cb0:	55550513          	addi	a0,a0,1365 # 55555555 <absimm+0x10263026>
     cb4:	0000b5b7          	lui	a1,0xb
     cb8:	50558593          	addi	a1,a1,1285 # b505 <_end+0x18fd>
     cbc:	00b52633          	slt	a2,a0,a1
     cc0:	1cc0a023          	sw	a2,448(ra)

00000cc4 <inst_142>:
     cc4:	aaaab537          	lui	a0,0xaaaab
     cc8:	aaa50513          	addi	a0,a0,-1366 # aaaaaaaa <absimm+0x657b857b>
     ccc:	00300593          	addi	a1,zero,3
     cd0:	00b52633          	slt	a2,a0,a1
     cd4:	1cc0a223          	sw	a2,452(ra)

00000cd8 <inst_143>:
     cd8:	aaaab537          	lui	a0,0xaaaab
     cdc:	aaa50513          	addi	a0,a0,-1366 # aaaaaaaa <absimm+0x657b857b>
     ce0:	555555b7          	lui	a1,0x55555
     ce4:	55558593          	addi	a1,a1,1365 # 55555555 <absimm+0x10263026>
     ce8:	00b52633          	slt	a2,a0,a1
     cec:	1cc0a423          	sw	a2,456(ra)

00000cf0 <inst_144>:
     cf0:	aaaab537          	lui	a0,0xaaaab
     cf4:	aaa50513          	addi	a0,a0,-1366 # aaaaaaaa <absimm+0x657b857b>
     cf8:	aaaab5b7          	lui	a1,0xaaaab
     cfc:	aaa58593          	addi	a1,a1,-1366 # aaaaaaaa <absimm+0x657b857b>
     d00:	00b52633          	slt	a2,a0,a1
     d04:	1cc0a623          	sw	a2,460(ra)

00000d08 <inst_145>:
     d08:	aaaab537          	lui	a0,0xaaaab
     d0c:	aaa50513          	addi	a0,a0,-1366 # aaaaaaaa <absimm+0x657b857b>
     d10:	00500593          	addi	a1,zero,5
     d14:	00b52633          	slt	a2,a0,a1
     d18:	1cc0a823          	sw	a2,464(ra)

00000d1c <inst_146>:
     d1c:	aaaab537          	lui	a0,0xaaaab
     d20:	aaa50513          	addi	a0,a0,-1366 # aaaaaaaa <absimm+0x657b857b>
     d24:	333335b7          	lui	a1,0x33333
     d28:	33358593          	addi	a1,a1,819 # 33333333 <_end+0x3332972b>
     d2c:	00b52633          	slt	a2,a0,a1
     d30:	1cc0aa23          	sw	a2,468(ra)

00000d34 <inst_147>:
     d34:	aaaab537          	lui	a0,0xaaaab
     d38:	aaa50513          	addi	a0,a0,-1366 # aaaaaaaa <absimm+0x657b857b>
     d3c:	666665b7          	lui	a1,0x66666
     d40:	66658593          	addi	a1,a1,1638 # 66666666 <absimm+0x21374137>
     d44:	00b52633          	slt	a2,a0,a1
     d48:	1cc0ac23          	sw	a2,472(ra)

00000d4c <inst_148>:
     d4c:	aaaab537          	lui	a0,0xaaaab
     d50:	aaa50513          	addi	a0,a0,-1366 # aaaaaaaa <absimm+0x657b857b>
     d54:	ffff55b7          	lui	a1,0xffff5
     d58:	afc58593          	addi	a1,a1,-1284 # ffff4afc <immx+0x452e702c>
     d5c:	00b52633          	slt	a2,a0,a1
     d60:	1cc0ae23          	sw	a2,476(ra)

00000d64 <inst_149>:
     d64:	aaaab537          	lui	a0,0xaaaab
     d68:	aaa50513          	addi	a0,a0,-1366 # aaaaaaaa <absimm+0x657b857b>
     d6c:	0000b5b7          	lui	a1,0xb
     d70:	50458593          	addi	a1,a1,1284 # b504 <_end+0x18fc>
     d74:	00b52633          	slt	a2,a0,a1
     d78:	1ec0a023          	sw	a2,480(ra)

00000d7c <inst_150>:
     d7c:	aaaab537          	lui	a0,0xaaaab
     d80:	aaa50513          	addi	a0,a0,-1366 # aaaaaaaa <absimm+0x657b857b>
     d84:	00200593          	addi	a1,zero,2
     d88:	00b52633          	slt	a2,a0,a1
     d8c:	1ec0a223          	sw	a2,484(ra)

00000d90 <inst_151>:
     d90:	aaaab537          	lui	a0,0xaaaab
     d94:	aaa50513          	addi	a0,a0,-1366 # aaaaaaaa <absimm+0x657b857b>
     d98:	555555b7          	lui	a1,0x55555
     d9c:	55458593          	addi	a1,a1,1364 # 55555554 <absimm+0x10263025>
     da0:	00b52633          	slt	a2,a0,a1
     da4:	1ec0a423          	sw	a2,488(ra)

00000da8 <inst_152>:
     da8:	aaaab537          	lui	a0,0xaaaab
     dac:	aaa50513          	addi	a0,a0,-1366 # aaaaaaaa <absimm+0x657b857b>
     db0:	00000593          	addi	a1,zero,0
     db4:	00b52633          	slt	a2,a0,a1
     db8:	1ec0a623          	sw	a2,492(ra)

00000dbc <inst_153>:
     dbc:	aaaab537          	lui	a0,0xaaaab
     dc0:	aaa50513          	addi	a0,a0,-1366 # aaaaaaaa <absimm+0x657b857b>
     dc4:	00400593          	addi	a1,zero,4
     dc8:	00b52633          	slt	a2,a0,a1
     dcc:	1ec0a823          	sw	a2,496(ra)

00000dd0 <inst_154>:
     dd0:	aaaab537          	lui	a0,0xaaaab
     dd4:	aaa50513          	addi	a0,a0,-1366 # aaaaaaaa <absimm+0x657b857b>
     dd8:	333335b7          	lui	a1,0x33333
     ddc:	33258593          	addi	a1,a1,818 # 33333332 <_end+0x3332972a>
     de0:	00b52633          	slt	a2,a0,a1
     de4:	1ec0aa23          	sw	a2,500(ra)

00000de8 <inst_155>:
     de8:	aaaab537          	lui	a0,0xaaaab
     dec:	aaa50513          	addi	a0,a0,-1366 # aaaaaaaa <absimm+0x657b857b>
     df0:	666665b7          	lui	a1,0x66666
     df4:	66558593          	addi	a1,a1,1637 # 66666665 <absimm+0x21374136>
     df8:	00b52633          	slt	a2,a0,a1
     dfc:	1ec0ac23          	sw	a2,504(ra)

00000e00 <inst_156>:
     e00:	aaaab537          	lui	a0,0xaaaab
     e04:	aaa50513          	addi	a0,a0,-1366 # aaaaaaaa <absimm+0x657b857b>
     e08:	0000b5b7          	lui	a1,0xb
     e0c:	50358593          	addi	a1,a1,1283 # b503 <_end+0x18fb>
     e10:	00b52633          	slt	a2,a0,a1
     e14:	1ec0ae23          	sw	a2,508(ra)

00000e18 <inst_157>:
     e18:	aaaab537          	lui	a0,0xaaaab
     e1c:	aaa50513          	addi	a0,a0,-1366 # aaaaaaaa <absimm+0x657b857b>
     e20:	555555b7          	lui	a1,0x55555
     e24:	55658593          	addi	a1,a1,1366 # 55555556 <absimm+0x10263027>
     e28:	00b52633          	slt	a2,a0,a1
     e2c:	20c0a023          	sw	a2,512(ra)

00000e30 <inst_158>:
     e30:	aaaab537          	lui	a0,0xaaaab
     e34:	aaa50513          	addi	a0,a0,-1366 # aaaaaaaa <absimm+0x657b857b>
     e38:	aaaab5b7          	lui	a1,0xaaaab
     e3c:	aab58593          	addi	a1,a1,-1365 # aaaaaaab <absimm+0x657b857c>
     e40:	00b52633          	slt	a2,a0,a1
     e44:	20c0a223          	sw	a2,516(ra)

00000e48 <inst_159>:
     e48:	aaaab537          	lui	a0,0xaaaab
     e4c:	aaa50513          	addi	a0,a0,-1366 # aaaaaaaa <absimm+0x657b857b>
     e50:	00600593          	addi	a1,zero,6
     e54:	00b52633          	slt	a2,a0,a1
     e58:	20c0a423          	sw	a2,520(ra)

00000e5c <inst_160>:
     e5c:	aaaab537          	lui	a0,0xaaaab
     e60:	aaa50513          	addi	a0,a0,-1366 # aaaaaaaa <absimm+0x657b857b>
     e64:	333335b7          	lui	a1,0x33333
     e68:	33458593          	addi	a1,a1,820 # 33333334 <_end+0x3332972c>
     e6c:	00b52633          	slt	a2,a0,a1
     e70:	20c0a623          	sw	a2,524(ra)

00000e74 <inst_161>:
     e74:	aaaab537          	lui	a0,0xaaaab
     e78:	aaa50513          	addi	a0,a0,-1366 # aaaaaaaa <absimm+0x657b857b>
     e7c:	666665b7          	lui	a1,0x66666
     e80:	66758593          	addi	a1,a1,1639 # 66666667 <absimm+0x21374138>
     e84:	00b52633          	slt	a2,a0,a1
     e88:	20c0a823          	sw	a2,528(ra)

00000e8c <inst_162>:
     e8c:	aaaab537          	lui	a0,0xaaaab
     e90:	aaa50513          	addi	a0,a0,-1366 # aaaaaaaa <absimm+0x657b857b>
     e94:	ffff55b7          	lui	a1,0xffff5
     e98:	afd58593          	addi	a1,a1,-1283 # ffff4afd <immx+0x452e702d>
     e9c:	00b52633          	slt	a2,a0,a1
     ea0:	20c0aa23          	sw	a2,532(ra)

00000ea4 <inst_163>:
     ea4:	aaaab537          	lui	a0,0xaaaab
     ea8:	aaa50513          	addi	a0,a0,-1366 # aaaaaaaa <absimm+0x657b857b>
     eac:	0000b5b7          	lui	a1,0xb
     eb0:	50558593          	addi	a1,a1,1285 # b505 <_end+0x18fd>
     eb4:	00b52633          	slt	a2,a0,a1
     eb8:	20c0ac23          	sw	a2,536(ra)

00000ebc <inst_164>:
     ebc:	00500513          	addi	a0,zero,5
     ec0:	00300593          	addi	a1,zero,3
     ec4:	00b52633          	slt	a2,a0,a1
     ec8:	20c0ae23          	sw	a2,540(ra)

00000ecc <inst_165>:
     ecc:	00500513          	addi	a0,zero,5
     ed0:	555555b7          	lui	a1,0x55555
     ed4:	55558593          	addi	a1,a1,1365 # 55555555 <absimm+0x10263026>
     ed8:	00b52633          	slt	a2,a0,a1
     edc:	22c0a023          	sw	a2,544(ra)

00000ee0 <inst_166>:
     ee0:	00500513          	addi	a0,zero,5
     ee4:	aaaab5b7          	lui	a1,0xaaaab
     ee8:	aaa58593          	addi	a1,a1,-1366 # aaaaaaaa <absimm+0x657b857b>
     eec:	00b52633          	slt	a2,a0,a1
     ef0:	22c0a223          	sw	a2,548(ra)

00000ef4 <inst_167>:
     ef4:	00500513          	addi	a0,zero,5
     ef8:	00500593          	addi	a1,zero,5
     efc:	00b52633          	slt	a2,a0,a1
     f00:	22c0a423          	sw	a2,552(ra)

00000f04 <inst_168>:
     f04:	00500513          	addi	a0,zero,5
     f08:	333335b7          	lui	a1,0x33333
     f0c:	33358593          	addi	a1,a1,819 # 33333333 <_end+0x3332972b>
     f10:	00b52633          	slt	a2,a0,a1
     f14:	22c0a623          	sw	a2,556(ra)

00000f18 <inst_169>:
     f18:	00500513          	addi	a0,zero,5
     f1c:	666665b7          	lui	a1,0x66666
     f20:	66658593          	addi	a1,a1,1638 # 66666666 <absimm+0x21374137>
     f24:	00b52633          	slt	a2,a0,a1
     f28:	22c0a823          	sw	a2,560(ra)

00000f2c <inst_170>:
     f2c:	00500513          	addi	a0,zero,5
     f30:	ffff55b7          	lui	a1,0xffff5
     f34:	afc58593          	addi	a1,a1,-1284 # ffff4afc <immx+0x452e702c>
     f38:	00b52633          	slt	a2,a0,a1
     f3c:	22c0aa23          	sw	a2,564(ra)

00000f40 <inst_171>:
     f40:	00500513          	addi	a0,zero,5
     f44:	0000b5b7          	lui	a1,0xb
     f48:	50458593          	addi	a1,a1,1284 # b504 <_end+0x18fc>
     f4c:	00b52633          	slt	a2,a0,a1
     f50:	22c0ac23          	sw	a2,568(ra)

00000f54 <inst_172>:
     f54:	00500513          	addi	a0,zero,5
     f58:	00200593          	addi	a1,zero,2
     f5c:	00b52633          	slt	a2,a0,a1
     f60:	22c0ae23          	sw	a2,572(ra)

00000f64 <inst_173>:
     f64:	00500513          	addi	a0,zero,5
     f68:	555555b7          	lui	a1,0x55555
     f6c:	55458593          	addi	a1,a1,1364 # 55555554 <absimm+0x10263025>
     f70:	00b52633          	slt	a2,a0,a1
     f74:	24c0a023          	sw	a2,576(ra)

00000f78 <inst_174>:
     f78:	00500513          	addi	a0,zero,5
     f7c:	00000593          	addi	a1,zero,0
     f80:	00b52633          	slt	a2,a0,a1
     f84:	24c0a223          	sw	a2,580(ra)

00000f88 <inst_175>:
     f88:	00500513          	addi	a0,zero,5
     f8c:	00400593          	addi	a1,zero,4
     f90:	00b52633          	slt	a2,a0,a1
     f94:	24c0a423          	sw	a2,584(ra)

00000f98 <inst_176>:
     f98:	00500513          	addi	a0,zero,5
     f9c:	333335b7          	lui	a1,0x33333
     fa0:	33258593          	addi	a1,a1,818 # 33333332 <_end+0x3332972a>
     fa4:	00b52633          	slt	a2,a0,a1
     fa8:	24c0a623          	sw	a2,588(ra)

00000fac <inst_177>:
     fac:	00500513          	addi	a0,zero,5
     fb0:	666665b7          	lui	a1,0x66666
     fb4:	66558593          	addi	a1,a1,1637 # 66666665 <absimm+0x21374136>
     fb8:	00b52633          	slt	a2,a0,a1
     fbc:	24c0a823          	sw	a2,592(ra)

00000fc0 <inst_178>:
     fc0:	00500513          	addi	a0,zero,5
     fc4:	0000b5b7          	lui	a1,0xb
     fc8:	50358593          	addi	a1,a1,1283 # b503 <_end+0x18fb>
     fcc:	00b52633          	slt	a2,a0,a1
     fd0:	24c0aa23          	sw	a2,596(ra)

00000fd4 <inst_179>:
     fd4:	00500513          	addi	a0,zero,5
     fd8:	555555b7          	lui	a1,0x55555
     fdc:	55658593          	addi	a1,a1,1366 # 55555556 <absimm+0x10263027>
     fe0:	00b52633          	slt	a2,a0,a1
     fe4:	24c0ac23          	sw	a2,600(ra)

00000fe8 <inst_180>:
     fe8:	00500513          	addi	a0,zero,5
     fec:	aaaab5b7          	lui	a1,0xaaaab
     ff0:	aab58593          	addi	a1,a1,-1365 # aaaaaaab <absimm+0x657b857c>
     ff4:	00b52633          	slt	a2,a0,a1
     ff8:	24c0ae23          	sw	a2,604(ra)

00000ffc <inst_181>:
     ffc:	00500513          	addi	a0,zero,5
    1000:	00600593          	addi	a1,zero,6
    1004:	00b52633          	slt	a2,a0,a1
    1008:	26c0a023          	sw	a2,608(ra)

0000100c <inst_182>:
    100c:	00500513          	addi	a0,zero,5
    1010:	333335b7          	lui	a1,0x33333
    1014:	33458593          	addi	a1,a1,820 # 33333334 <_end+0x3332972c>
    1018:	00b52633          	slt	a2,a0,a1
    101c:	26c0a223          	sw	a2,612(ra)

00001020 <inst_183>:
    1020:	00500513          	addi	a0,zero,5
    1024:	666665b7          	lui	a1,0x66666
    1028:	66758593          	addi	a1,a1,1639 # 66666667 <absimm+0x21374138>
    102c:	00b52633          	slt	a2,a0,a1
    1030:	26c0a423          	sw	a2,616(ra)

00001034 <inst_184>:
    1034:	00500513          	addi	a0,zero,5
    1038:	ffff55b7          	lui	a1,0xffff5
    103c:	afd58593          	addi	a1,a1,-1283 # ffff4afd <immx+0x452e702d>
    1040:	00b52633          	slt	a2,a0,a1
    1044:	26c0a623          	sw	a2,620(ra)

00001048 <inst_185>:
    1048:	00500513          	addi	a0,zero,5
    104c:	0000b5b7          	lui	a1,0xb
    1050:	50558593          	addi	a1,a1,1285 # b505 <_end+0x18fd>
    1054:	00b52633          	slt	a2,a0,a1
    1058:	26c0a823          	sw	a2,624(ra)

0000105c <inst_186>:
    105c:	33333537          	lui	a0,0x33333
    1060:	33350513          	addi	a0,a0,819 # 33333333 <_end+0x3332972b>
    1064:	00300593          	addi	a1,zero,3
    1068:	00b52633          	slt	a2,a0,a1
    106c:	26c0aa23          	sw	a2,628(ra)

00001070 <inst_187>:
    1070:	33333537          	lui	a0,0x33333
    1074:	33350513          	addi	a0,a0,819 # 33333333 <_end+0x3332972b>
    1078:	555555b7          	lui	a1,0x55555
    107c:	55558593          	addi	a1,a1,1365 # 55555555 <absimm+0x10263026>
    1080:	00b52633          	slt	a2,a0,a1
    1084:	26c0ac23          	sw	a2,632(ra)

00001088 <inst_188>:
    1088:	33333537          	lui	a0,0x33333
    108c:	33350513          	addi	a0,a0,819 # 33333333 <_end+0x3332972b>
    1090:	aaaab5b7          	lui	a1,0xaaaab
    1094:	aaa58593          	addi	a1,a1,-1366 # aaaaaaaa <absimm+0x657b857b>
    1098:	00b52633          	slt	a2,a0,a1
    109c:	26c0ae23          	sw	a2,636(ra)

000010a0 <inst_189>:
    10a0:	33333537          	lui	a0,0x33333
    10a4:	33350513          	addi	a0,a0,819 # 33333333 <_end+0x3332972b>
    10a8:	00500593          	addi	a1,zero,5
    10ac:	00b52633          	slt	a2,a0,a1
    10b0:	28c0a023          	sw	a2,640(ra)

000010b4 <inst_190>:
    10b4:	33333537          	lui	a0,0x33333
    10b8:	33350513          	addi	a0,a0,819 # 33333333 <_end+0x3332972b>
    10bc:	333335b7          	lui	a1,0x33333
    10c0:	33358593          	addi	a1,a1,819 # 33333333 <_end+0x3332972b>
    10c4:	00b52633          	slt	a2,a0,a1
    10c8:	28c0a223          	sw	a2,644(ra)

000010cc <inst_191>:
    10cc:	33333537          	lui	a0,0x33333
    10d0:	33350513          	addi	a0,a0,819 # 33333333 <_end+0x3332972b>
    10d4:	666665b7          	lui	a1,0x66666
    10d8:	66658593          	addi	a1,a1,1638 # 66666666 <absimm+0x21374137>
    10dc:	00b52633          	slt	a2,a0,a1
    10e0:	28c0a423          	sw	a2,648(ra)

000010e4 <inst_192>:
    10e4:	33333537          	lui	a0,0x33333
    10e8:	33350513          	addi	a0,a0,819 # 33333333 <_end+0x3332972b>
    10ec:	ffff55b7          	lui	a1,0xffff5
    10f0:	afc58593          	addi	a1,a1,-1284 # ffff4afc <immx+0x452e702c>
    10f4:	00b52633          	slt	a2,a0,a1
    10f8:	28c0a623          	sw	a2,652(ra)

000010fc <inst_193>:
    10fc:	33333537          	lui	a0,0x33333
    1100:	33350513          	addi	a0,a0,819 # 33333333 <_end+0x3332972b>
    1104:	0000b5b7          	lui	a1,0xb
    1108:	50458593          	addi	a1,a1,1284 # b504 <_end+0x18fc>
    110c:	00b52633          	slt	a2,a0,a1
    1110:	28c0a823          	sw	a2,656(ra)

00001114 <inst_194>:
    1114:	33333537          	lui	a0,0x33333
    1118:	33350513          	addi	a0,a0,819 # 33333333 <_end+0x3332972b>
    111c:	00200593          	addi	a1,zero,2
    1120:	00b52633          	slt	a2,a0,a1
    1124:	28c0aa23          	sw	a2,660(ra)

00001128 <inst_195>:
    1128:	33333537          	lui	a0,0x33333
    112c:	33350513          	addi	a0,a0,819 # 33333333 <_end+0x3332972b>
    1130:	555555b7          	lui	a1,0x55555
    1134:	55458593          	addi	a1,a1,1364 # 55555554 <absimm+0x10263025>
    1138:	00b52633          	slt	a2,a0,a1
    113c:	28c0ac23          	sw	a2,664(ra)

00001140 <inst_196>:
    1140:	33333537          	lui	a0,0x33333
    1144:	33350513          	addi	a0,a0,819 # 33333333 <_end+0x3332972b>
    1148:	00000593          	addi	a1,zero,0
    114c:	00b52633          	slt	a2,a0,a1
    1150:	28c0ae23          	sw	a2,668(ra)

00001154 <inst_197>:
    1154:	33333537          	lui	a0,0x33333
    1158:	33350513          	addi	a0,a0,819 # 33333333 <_end+0x3332972b>
    115c:	00400593          	addi	a1,zero,4
    1160:	00b52633          	slt	a2,a0,a1
    1164:	2ac0a023          	sw	a2,672(ra)

00001168 <inst_198>:
    1168:	33333537          	lui	a0,0x33333
    116c:	33350513          	addi	a0,a0,819 # 33333333 <_end+0x3332972b>
    1170:	333335b7          	lui	a1,0x33333
    1174:	33258593          	addi	a1,a1,818 # 33333332 <_end+0x3332972a>
    1178:	00b52633          	slt	a2,a0,a1
    117c:	2ac0a223          	sw	a2,676(ra)

00001180 <inst_199>:
    1180:	33333537          	lui	a0,0x33333
    1184:	33350513          	addi	a0,a0,819 # 33333333 <_end+0x3332972b>
    1188:	666665b7          	lui	a1,0x66666
    118c:	66558593          	addi	a1,a1,1637 # 66666665 <absimm+0x21374136>
    1190:	00b52633          	slt	a2,a0,a1
    1194:	2ac0a423          	sw	a2,680(ra)

00001198 <inst_200>:
    1198:	33333537          	lui	a0,0x33333
    119c:	33350513          	addi	a0,a0,819 # 33333333 <_end+0x3332972b>
    11a0:	0000b5b7          	lui	a1,0xb
    11a4:	50358593          	addi	a1,a1,1283 # b503 <_end+0x18fb>
    11a8:	00b52633          	slt	a2,a0,a1
    11ac:	2ac0a623          	sw	a2,684(ra)

000011b0 <inst_201>:
    11b0:	33333537          	lui	a0,0x33333
    11b4:	33350513          	addi	a0,a0,819 # 33333333 <_end+0x3332972b>
    11b8:	555555b7          	lui	a1,0x55555
    11bc:	55658593          	addi	a1,a1,1366 # 55555556 <absimm+0x10263027>
    11c0:	00b52633          	slt	a2,a0,a1
    11c4:	2ac0a823          	sw	a2,688(ra)

000011c8 <inst_202>:
    11c8:	33333537          	lui	a0,0x33333
    11cc:	33350513          	addi	a0,a0,819 # 33333333 <_end+0x3332972b>
    11d0:	aaaab5b7          	lui	a1,0xaaaab
    11d4:	aab58593          	addi	a1,a1,-1365 # aaaaaaab <absimm+0x657b857c>
    11d8:	00b52633          	slt	a2,a0,a1
    11dc:	2ac0aa23          	sw	a2,692(ra)

000011e0 <inst_203>:
    11e0:	33333537          	lui	a0,0x33333
    11e4:	33350513          	addi	a0,a0,819 # 33333333 <_end+0x3332972b>
    11e8:	00600593          	addi	a1,zero,6
    11ec:	00b52633          	slt	a2,a0,a1
    11f0:	2ac0ac23          	sw	a2,696(ra)

000011f4 <inst_204>:
    11f4:	33333537          	lui	a0,0x33333
    11f8:	33350513          	addi	a0,a0,819 # 33333333 <_end+0x3332972b>
    11fc:	333335b7          	lui	a1,0x33333
    1200:	33458593          	addi	a1,a1,820 # 33333334 <_end+0x3332972c>
    1204:	00b52633          	slt	a2,a0,a1
    1208:	2ac0ae23          	sw	a2,700(ra)

0000120c <inst_205>:
    120c:	33333537          	lui	a0,0x33333
    1210:	33350513          	addi	a0,a0,819 # 33333333 <_end+0x3332972b>
    1214:	666665b7          	lui	a1,0x66666
    1218:	66758593          	addi	a1,a1,1639 # 66666667 <absimm+0x21374138>
    121c:	00b52633          	slt	a2,a0,a1
    1220:	2cc0a023          	sw	a2,704(ra)

00001224 <inst_206>:
    1224:	33333537          	lui	a0,0x33333
    1228:	33350513          	addi	a0,a0,819 # 33333333 <_end+0x3332972b>
    122c:	ffff55b7          	lui	a1,0xffff5
    1230:	afd58593          	addi	a1,a1,-1283 # ffff4afd <immx+0x452e702d>
    1234:	00b52633          	slt	a2,a0,a1
    1238:	2cc0a223          	sw	a2,708(ra)

0000123c <inst_207>:
    123c:	33333537          	lui	a0,0x33333
    1240:	33350513          	addi	a0,a0,819 # 33333333 <_end+0x3332972b>
    1244:	0000b5b7          	lui	a1,0xb
    1248:	50558593          	addi	a1,a1,1285 # b505 <_end+0x18fd>
    124c:	00b52633          	slt	a2,a0,a1
    1250:	2cc0a423          	sw	a2,712(ra)

00001254 <inst_208>:
    1254:	66666537          	lui	a0,0x66666
    1258:	66650513          	addi	a0,a0,1638 # 66666666 <absimm+0x21374137>
    125c:	00300593          	addi	a1,zero,3
    1260:	00b52633          	slt	a2,a0,a1
    1264:	2cc0a623          	sw	a2,716(ra)

00001268 <inst_209>:
    1268:	66666537          	lui	a0,0x66666
    126c:	66650513          	addi	a0,a0,1638 # 66666666 <absimm+0x21374137>
    1270:	555555b7          	lui	a1,0x55555
    1274:	55558593          	addi	a1,a1,1365 # 55555555 <absimm+0x10263026>
    1278:	00b52633          	slt	a2,a0,a1
    127c:	2cc0a823          	sw	a2,720(ra)

00001280 <inst_210>:
    1280:	66666537          	lui	a0,0x66666
    1284:	66650513          	addi	a0,a0,1638 # 66666666 <absimm+0x21374137>
    1288:	aaaab5b7          	lui	a1,0xaaaab
    128c:	aaa58593          	addi	a1,a1,-1366 # aaaaaaaa <absimm+0x657b857b>
    1290:	00b52633          	slt	a2,a0,a1
    1294:	2cc0aa23          	sw	a2,724(ra)

00001298 <inst_211>:
    1298:	66666537          	lui	a0,0x66666
    129c:	66650513          	addi	a0,a0,1638 # 66666666 <absimm+0x21374137>
    12a0:	00500593          	addi	a1,zero,5
    12a4:	00b52633          	slt	a2,a0,a1
    12a8:	2cc0ac23          	sw	a2,728(ra)

000012ac <inst_212>:
    12ac:	66666537          	lui	a0,0x66666
    12b0:	66650513          	addi	a0,a0,1638 # 66666666 <absimm+0x21374137>
    12b4:	333335b7          	lui	a1,0x33333
    12b8:	33358593          	addi	a1,a1,819 # 33333333 <_end+0x3332972b>
    12bc:	00b52633          	slt	a2,a0,a1
    12c0:	2cc0ae23          	sw	a2,732(ra)

000012c4 <inst_213>:
    12c4:	66666537          	lui	a0,0x66666
    12c8:	66650513          	addi	a0,a0,1638 # 66666666 <absimm+0x21374137>
    12cc:	666665b7          	lui	a1,0x66666
    12d0:	66658593          	addi	a1,a1,1638 # 66666666 <absimm+0x21374137>
    12d4:	00b52633          	slt	a2,a0,a1
    12d8:	2ec0a023          	sw	a2,736(ra)

000012dc <inst_214>:
    12dc:	66666537          	lui	a0,0x66666
    12e0:	66650513          	addi	a0,a0,1638 # 66666666 <absimm+0x21374137>
    12e4:	ffff55b7          	lui	a1,0xffff5
    12e8:	afc58593          	addi	a1,a1,-1284 # ffff4afc <immx+0x452e702c>
    12ec:	00b52633          	slt	a2,a0,a1
    12f0:	2ec0a223          	sw	a2,740(ra)

000012f4 <inst_215>:
    12f4:	66666537          	lui	a0,0x66666
    12f8:	66650513          	addi	a0,a0,1638 # 66666666 <absimm+0x21374137>
    12fc:	0000b5b7          	lui	a1,0xb
    1300:	50458593          	addi	a1,a1,1284 # b504 <_end+0x18fc>
    1304:	00b52633          	slt	a2,a0,a1
    1308:	2ec0a423          	sw	a2,744(ra)

0000130c <inst_216>:
    130c:	66666537          	lui	a0,0x66666
    1310:	66650513          	addi	a0,a0,1638 # 66666666 <absimm+0x21374137>
    1314:	00200593          	addi	a1,zero,2
    1318:	00b52633          	slt	a2,a0,a1
    131c:	2ec0a623          	sw	a2,748(ra)

00001320 <inst_217>:
    1320:	66666537          	lui	a0,0x66666
    1324:	66650513          	addi	a0,a0,1638 # 66666666 <absimm+0x21374137>
    1328:	555555b7          	lui	a1,0x55555
    132c:	55458593          	addi	a1,a1,1364 # 55555554 <absimm+0x10263025>
    1330:	00b52633          	slt	a2,a0,a1
    1334:	2ec0a823          	sw	a2,752(ra)

00001338 <inst_218>:
    1338:	66666537          	lui	a0,0x66666
    133c:	66650513          	addi	a0,a0,1638 # 66666666 <absimm+0x21374137>
    1340:	00000593          	addi	a1,zero,0
    1344:	00b52633          	slt	a2,a0,a1
    1348:	2ec0aa23          	sw	a2,756(ra)

0000134c <inst_219>:
    134c:	66666537          	lui	a0,0x66666
    1350:	66650513          	addi	a0,a0,1638 # 66666666 <absimm+0x21374137>
    1354:	00400593          	addi	a1,zero,4
    1358:	00b52633          	slt	a2,a0,a1
    135c:	2ec0ac23          	sw	a2,760(ra)

00001360 <inst_220>:
    1360:	66666537          	lui	a0,0x66666
    1364:	66650513          	addi	a0,a0,1638 # 66666666 <absimm+0x21374137>
    1368:	333335b7          	lui	a1,0x33333
    136c:	33258593          	addi	a1,a1,818 # 33333332 <_end+0x3332972a>
    1370:	00b52633          	slt	a2,a0,a1
    1374:	2ec0ae23          	sw	a2,764(ra)

00001378 <inst_221>:
    1378:	66666537          	lui	a0,0x66666
    137c:	66650513          	addi	a0,a0,1638 # 66666666 <absimm+0x21374137>
    1380:	666665b7          	lui	a1,0x66666
    1384:	66558593          	addi	a1,a1,1637 # 66666665 <absimm+0x21374136>
    1388:	00b52633          	slt	a2,a0,a1
    138c:	30c0a023          	sw	a2,768(ra)

00001390 <inst_222>:
    1390:	66666537          	lui	a0,0x66666
    1394:	66650513          	addi	a0,a0,1638 # 66666666 <absimm+0x21374137>
    1398:	0000b5b7          	lui	a1,0xb
    139c:	50358593          	addi	a1,a1,1283 # b503 <_end+0x18fb>
    13a0:	00b52633          	slt	a2,a0,a1
    13a4:	30c0a223          	sw	a2,772(ra)

000013a8 <inst_223>:
    13a8:	66666537          	lui	a0,0x66666
    13ac:	66650513          	addi	a0,a0,1638 # 66666666 <absimm+0x21374137>
    13b0:	555555b7          	lui	a1,0x55555
    13b4:	55658593          	addi	a1,a1,1366 # 55555556 <absimm+0x10263027>
    13b8:	00b52633          	slt	a2,a0,a1
    13bc:	30c0a423          	sw	a2,776(ra)

000013c0 <inst_224>:
    13c0:	66666537          	lui	a0,0x66666
    13c4:	66650513          	addi	a0,a0,1638 # 66666666 <absimm+0x21374137>
    13c8:	aaaab5b7          	lui	a1,0xaaaab
    13cc:	aab58593          	addi	a1,a1,-1365 # aaaaaaab <absimm+0x657b857c>
    13d0:	00b52633          	slt	a2,a0,a1
    13d4:	30c0a623          	sw	a2,780(ra)

000013d8 <inst_225>:
    13d8:	66666537          	lui	a0,0x66666
    13dc:	66650513          	addi	a0,a0,1638 # 66666666 <absimm+0x21374137>
    13e0:	00600593          	addi	a1,zero,6
    13e4:	00b52633          	slt	a2,a0,a1
    13e8:	30c0a823          	sw	a2,784(ra)

000013ec <inst_226>:
    13ec:	66666537          	lui	a0,0x66666
    13f0:	66650513          	addi	a0,a0,1638 # 66666666 <absimm+0x21374137>
    13f4:	333335b7          	lui	a1,0x33333
    13f8:	33458593          	addi	a1,a1,820 # 33333334 <_end+0x3332972c>
    13fc:	00b52633          	slt	a2,a0,a1
    1400:	30c0aa23          	sw	a2,788(ra)

00001404 <inst_227>:
    1404:	66666537          	lui	a0,0x66666
    1408:	66650513          	addi	a0,a0,1638 # 66666666 <absimm+0x21374137>
    140c:	666665b7          	lui	a1,0x66666
    1410:	66758593          	addi	a1,a1,1639 # 66666667 <absimm+0x21374138>
    1414:	00b52633          	slt	a2,a0,a1
    1418:	30c0ac23          	sw	a2,792(ra)

0000141c <inst_228>:
    141c:	66666537          	lui	a0,0x66666
    1420:	66650513          	addi	a0,a0,1638 # 66666666 <absimm+0x21374137>
    1424:	ffff55b7          	lui	a1,0xffff5
    1428:	afd58593          	addi	a1,a1,-1283 # ffff4afd <immx+0x452e702d>
    142c:	00b52633          	slt	a2,a0,a1
    1430:	30c0ae23          	sw	a2,796(ra)

00001434 <inst_229>:
    1434:	66666537          	lui	a0,0x66666
    1438:	66650513          	addi	a0,a0,1638 # 66666666 <absimm+0x21374137>
    143c:	0000b5b7          	lui	a1,0xb
    1440:	50558593          	addi	a1,a1,1285 # b505 <_end+0x18fd>
    1444:	00b52633          	slt	a2,a0,a1
    1448:	32c0a023          	sw	a2,800(ra)

0000144c <inst_230>:
    144c:	ffff5537          	lui	a0,0xffff5
    1450:	afc50513          	addi	a0,a0,-1284 # ffff4afc <immx+0x452e702c>
    1454:	00300593          	addi	a1,zero,3
    1458:	00b52633          	slt	a2,a0,a1
    145c:	32c0a223          	sw	a2,804(ra)

00001460 <inst_231>:
    1460:	ffff5537          	lui	a0,0xffff5
    1464:	afc50513          	addi	a0,a0,-1284 # ffff4afc <immx+0x452e702c>
    1468:	555555b7          	lui	a1,0x55555
    146c:	55558593          	addi	a1,a1,1365 # 55555555 <absimm+0x10263026>
    1470:	00b52633          	slt	a2,a0,a1
    1474:	32c0a423          	sw	a2,808(ra)

00001478 <inst_232>:
    1478:	ffff5537          	lui	a0,0xffff5
    147c:	afc50513          	addi	a0,a0,-1284 # ffff4afc <immx+0x452e702c>
    1480:	aaaab5b7          	lui	a1,0xaaaab
    1484:	aaa58593          	addi	a1,a1,-1366 # aaaaaaaa <absimm+0x657b857b>
    1488:	00b52633          	slt	a2,a0,a1
    148c:	32c0a623          	sw	a2,812(ra)

00001490 <inst_233>:
    1490:	ffff5537          	lui	a0,0xffff5
    1494:	afc50513          	addi	a0,a0,-1284 # ffff4afc <immx+0x452e702c>
    1498:	00500593          	addi	a1,zero,5
    149c:	00b52633          	slt	a2,a0,a1
    14a0:	32c0a823          	sw	a2,816(ra)

000014a4 <inst_234>:
    14a4:	ffff5537          	lui	a0,0xffff5
    14a8:	afc50513          	addi	a0,a0,-1284 # ffff4afc <immx+0x452e702c>
    14ac:	333335b7          	lui	a1,0x33333
    14b0:	33358593          	addi	a1,a1,819 # 33333333 <_end+0x3332972b>
    14b4:	00b52633          	slt	a2,a0,a1
    14b8:	32c0aa23          	sw	a2,820(ra)

000014bc <inst_235>:
    14bc:	ffff5537          	lui	a0,0xffff5
    14c0:	afc50513          	addi	a0,a0,-1284 # ffff4afc <immx+0x452e702c>
    14c4:	666665b7          	lui	a1,0x66666
    14c8:	66658593          	addi	a1,a1,1638 # 66666666 <absimm+0x21374137>
    14cc:	00b52633          	slt	a2,a0,a1
    14d0:	32c0ac23          	sw	a2,824(ra)

000014d4 <inst_236>:
    14d4:	ffff5537          	lui	a0,0xffff5
    14d8:	afc50513          	addi	a0,a0,-1284 # ffff4afc <immx+0x452e702c>
    14dc:	ffff55b7          	lui	a1,0xffff5
    14e0:	afc58593          	addi	a1,a1,-1284 # ffff4afc <immx+0x452e702c>
    14e4:	00b52633          	slt	a2,a0,a1
    14e8:	32c0ae23          	sw	a2,828(ra)

000014ec <inst_237>:
    14ec:	ffff5537          	lui	a0,0xffff5
    14f0:	afc50513          	addi	a0,a0,-1284 # ffff4afc <immx+0x452e702c>
    14f4:	0000b5b7          	lui	a1,0xb
    14f8:	50458593          	addi	a1,a1,1284 # b504 <_end+0x18fc>
    14fc:	00b52633          	slt	a2,a0,a1
    1500:	34c0a023          	sw	a2,832(ra)

00001504 <inst_238>:
    1504:	ffff5537          	lui	a0,0xffff5
    1508:	afc50513          	addi	a0,a0,-1284 # ffff4afc <immx+0x452e702c>
    150c:	00200593          	addi	a1,zero,2
    1510:	00b52633          	slt	a2,a0,a1
    1514:	34c0a223          	sw	a2,836(ra)

00001518 <inst_239>:
    1518:	ffff5537          	lui	a0,0xffff5
    151c:	afc50513          	addi	a0,a0,-1284 # ffff4afc <immx+0x452e702c>
    1520:	555555b7          	lui	a1,0x55555
    1524:	55458593          	addi	a1,a1,1364 # 55555554 <absimm+0x10263025>
    1528:	00b52633          	slt	a2,a0,a1
    152c:	34c0a423          	sw	a2,840(ra)

00001530 <inst_240>:
    1530:	ffff5537          	lui	a0,0xffff5
    1534:	afc50513          	addi	a0,a0,-1284 # ffff4afc <immx+0x452e702c>
    1538:	00000593          	addi	a1,zero,0
    153c:	00b52633          	slt	a2,a0,a1
    1540:	34c0a623          	sw	a2,844(ra)

00001544 <inst_241>:
    1544:	ffff5537          	lui	a0,0xffff5
    1548:	afc50513          	addi	a0,a0,-1284 # ffff4afc <immx+0x452e702c>
    154c:	00400593          	addi	a1,zero,4
    1550:	00b52633          	slt	a2,a0,a1
    1554:	34c0a823          	sw	a2,848(ra)

00001558 <inst_242>:
    1558:	ffff5537          	lui	a0,0xffff5
    155c:	afc50513          	addi	a0,a0,-1284 # ffff4afc <immx+0x452e702c>
    1560:	333335b7          	lui	a1,0x33333
    1564:	33258593          	addi	a1,a1,818 # 33333332 <_end+0x3332972a>
    1568:	00b52633          	slt	a2,a0,a1
    156c:	34c0aa23          	sw	a2,852(ra)

00001570 <inst_243>:
    1570:	ffff5537          	lui	a0,0xffff5
    1574:	afc50513          	addi	a0,a0,-1284 # ffff4afc <immx+0x452e702c>
    1578:	666665b7          	lui	a1,0x66666
    157c:	66558593          	addi	a1,a1,1637 # 66666665 <absimm+0x21374136>
    1580:	00b52633          	slt	a2,a0,a1
    1584:	34c0ac23          	sw	a2,856(ra)

00001588 <inst_244>:
    1588:	ffff5537          	lui	a0,0xffff5
    158c:	afc50513          	addi	a0,a0,-1284 # ffff4afc <immx+0x452e702c>
    1590:	0000b5b7          	lui	a1,0xb
    1594:	50358593          	addi	a1,a1,1283 # b503 <_end+0x18fb>
    1598:	00b52633          	slt	a2,a0,a1
    159c:	34c0ae23          	sw	a2,860(ra)

000015a0 <inst_245>:
    15a0:	ffff5537          	lui	a0,0xffff5
    15a4:	afc50513          	addi	a0,a0,-1284 # ffff4afc <immx+0x452e702c>
    15a8:	555555b7          	lui	a1,0x55555
    15ac:	55658593          	addi	a1,a1,1366 # 55555556 <absimm+0x10263027>
    15b0:	00b52633          	slt	a2,a0,a1
    15b4:	36c0a023          	sw	a2,864(ra)

000015b8 <inst_246>:
    15b8:	ffff5537          	lui	a0,0xffff5
    15bc:	afc50513          	addi	a0,a0,-1284 # ffff4afc <immx+0x452e702c>
    15c0:	aaaab5b7          	lui	a1,0xaaaab
    15c4:	aab58593          	addi	a1,a1,-1365 # aaaaaaab <absimm+0x657b857c>
    15c8:	00b52633          	slt	a2,a0,a1
    15cc:	36c0a223          	sw	a2,868(ra)

000015d0 <inst_247>:
    15d0:	ffff5537          	lui	a0,0xffff5
    15d4:	afc50513          	addi	a0,a0,-1284 # ffff4afc <immx+0x452e702c>
    15d8:	00600593          	addi	a1,zero,6
    15dc:	00b52633          	slt	a2,a0,a1
    15e0:	36c0a423          	sw	a2,872(ra)

000015e4 <inst_248>:
    15e4:	ffff5537          	lui	a0,0xffff5
    15e8:	afc50513          	addi	a0,a0,-1284 # ffff4afc <immx+0x452e702c>
    15ec:	333335b7          	lui	a1,0x33333
    15f0:	33458593          	addi	a1,a1,820 # 33333334 <_end+0x3332972c>
    15f4:	00b52633          	slt	a2,a0,a1
    15f8:	36c0a623          	sw	a2,876(ra)

000015fc <inst_249>:
    15fc:	ffff5537          	lui	a0,0xffff5
    1600:	afc50513          	addi	a0,a0,-1284 # ffff4afc <immx+0x452e702c>
    1604:	666665b7          	lui	a1,0x66666
    1608:	66758593          	addi	a1,a1,1639 # 66666667 <absimm+0x21374138>
    160c:	00b52633          	slt	a2,a0,a1
    1610:	36c0a823          	sw	a2,880(ra)

00001614 <inst_250>:
    1614:	ffff5537          	lui	a0,0xffff5
    1618:	afc50513          	addi	a0,a0,-1284 # ffff4afc <immx+0x452e702c>
    161c:	ffff55b7          	lui	a1,0xffff5
    1620:	afd58593          	addi	a1,a1,-1283 # ffff4afd <immx+0x452e702d>
    1624:	00b52633          	slt	a2,a0,a1
    1628:	36c0aa23          	sw	a2,884(ra)

0000162c <inst_251>:
    162c:	ffff5537          	lui	a0,0xffff5
    1630:	afc50513          	addi	a0,a0,-1284 # ffff4afc <immx+0x452e702c>
    1634:	0000b5b7          	lui	a1,0xb
    1638:	50558593          	addi	a1,a1,1285 # b505 <_end+0x18fd>
    163c:	00b52633          	slt	a2,a0,a1
    1640:	36c0ac23          	sw	a2,888(ra)

00001644 <inst_252>:
    1644:	0000b537          	lui	a0,0xb
    1648:	50450513          	addi	a0,a0,1284 # b504 <_end+0x18fc>
    164c:	00300593          	addi	a1,zero,3
    1650:	00b52633          	slt	a2,a0,a1
    1654:	36c0ae23          	sw	a2,892(ra)

00001658 <inst_253>:
    1658:	0000b537          	lui	a0,0xb
    165c:	50450513          	addi	a0,a0,1284 # b504 <_end+0x18fc>
    1660:	555555b7          	lui	a1,0x55555
    1664:	55558593          	addi	a1,a1,1365 # 55555555 <absimm+0x10263026>
    1668:	00b52633          	slt	a2,a0,a1
    166c:	38c0a023          	sw	a2,896(ra)

00001670 <inst_254>:
    1670:	0000b537          	lui	a0,0xb
    1674:	50450513          	addi	a0,a0,1284 # b504 <_end+0x18fc>
    1678:	aaaab5b7          	lui	a1,0xaaaab
    167c:	aaa58593          	addi	a1,a1,-1366 # aaaaaaaa <absimm+0x657b857b>
    1680:	00b52633          	slt	a2,a0,a1
    1684:	38c0a223          	sw	a2,900(ra)

00001688 <inst_255>:
    1688:	0000b537          	lui	a0,0xb
    168c:	50450513          	addi	a0,a0,1284 # b504 <_end+0x18fc>
    1690:	00500593          	addi	a1,zero,5
    1694:	00b52633          	slt	a2,a0,a1
    1698:	38c0a423          	sw	a2,904(ra)

0000169c <inst_256>:
    169c:	0000b537          	lui	a0,0xb
    16a0:	50450513          	addi	a0,a0,1284 # b504 <_end+0x18fc>
    16a4:	333335b7          	lui	a1,0x33333
    16a8:	33358593          	addi	a1,a1,819 # 33333333 <_end+0x3332972b>
    16ac:	00b52633          	slt	a2,a0,a1
    16b0:	38c0a623          	sw	a2,908(ra)

000016b4 <inst_257>:
    16b4:	0000b537          	lui	a0,0xb
    16b8:	50450513          	addi	a0,a0,1284 # b504 <_end+0x18fc>
    16bc:	666665b7          	lui	a1,0x66666
    16c0:	66658593          	addi	a1,a1,1638 # 66666666 <absimm+0x21374137>
    16c4:	00b52633          	slt	a2,a0,a1
    16c8:	38c0a823          	sw	a2,912(ra)

000016cc <inst_258>:
    16cc:	0000b537          	lui	a0,0xb
    16d0:	50450513          	addi	a0,a0,1284 # b504 <_end+0x18fc>
    16d4:	ffff55b7          	lui	a1,0xffff5
    16d8:	afc58593          	addi	a1,a1,-1284 # ffff4afc <immx+0x452e702c>
    16dc:	00b52633          	slt	a2,a0,a1
    16e0:	38c0aa23          	sw	a2,916(ra)

000016e4 <inst_259>:
    16e4:	0000b537          	lui	a0,0xb
    16e8:	50450513          	addi	a0,a0,1284 # b504 <_end+0x18fc>
    16ec:	0000b5b7          	lui	a1,0xb
    16f0:	50458593          	addi	a1,a1,1284 # b504 <_end+0x18fc>
    16f4:	00b52633          	slt	a2,a0,a1
    16f8:	38c0ac23          	sw	a2,920(ra)

000016fc <inst_260>:
    16fc:	0000b537          	lui	a0,0xb
    1700:	50450513          	addi	a0,a0,1284 # b504 <_end+0x18fc>
    1704:	00200593          	addi	a1,zero,2
    1708:	00b52633          	slt	a2,a0,a1
    170c:	38c0ae23          	sw	a2,924(ra)

00001710 <inst_261>:
    1710:	0000b537          	lui	a0,0xb
    1714:	50450513          	addi	a0,a0,1284 # b504 <_end+0x18fc>
    1718:	555555b7          	lui	a1,0x55555
    171c:	55458593          	addi	a1,a1,1364 # 55555554 <absimm+0x10263025>
    1720:	00b52633          	slt	a2,a0,a1
    1724:	3ac0a023          	sw	a2,928(ra)

00001728 <inst_262>:
    1728:	0000b537          	lui	a0,0xb
    172c:	50450513          	addi	a0,a0,1284 # b504 <_end+0x18fc>
    1730:	00000593          	addi	a1,zero,0
    1734:	00b52633          	slt	a2,a0,a1
    1738:	3ac0a223          	sw	a2,932(ra)

0000173c <inst_263>:
    173c:	0000b537          	lui	a0,0xb
    1740:	50450513          	addi	a0,a0,1284 # b504 <_end+0x18fc>
    1744:	00400593          	addi	a1,zero,4
    1748:	00b52633          	slt	a2,a0,a1
    174c:	3ac0a423          	sw	a2,936(ra)

00001750 <inst_264>:
    1750:	0000b537          	lui	a0,0xb
    1754:	50450513          	addi	a0,a0,1284 # b504 <_end+0x18fc>
    1758:	333335b7          	lui	a1,0x33333
    175c:	33258593          	addi	a1,a1,818 # 33333332 <_end+0x3332972a>
    1760:	00b52633          	slt	a2,a0,a1
    1764:	3ac0a623          	sw	a2,940(ra)

00001768 <inst_265>:
    1768:	0000b537          	lui	a0,0xb
    176c:	50450513          	addi	a0,a0,1284 # b504 <_end+0x18fc>
    1770:	666665b7          	lui	a1,0x66666
    1774:	66558593          	addi	a1,a1,1637 # 66666665 <absimm+0x21374136>
    1778:	00b52633          	slt	a2,a0,a1
    177c:	3ac0a823          	sw	a2,944(ra)

00001780 <inst_266>:
    1780:	0000b537          	lui	a0,0xb
    1784:	50450513          	addi	a0,a0,1284 # b504 <_end+0x18fc>
    1788:	0000b5b7          	lui	a1,0xb
    178c:	50358593          	addi	a1,a1,1283 # b503 <_end+0x18fb>
    1790:	00b52633          	slt	a2,a0,a1
    1794:	3ac0aa23          	sw	a2,948(ra)

00001798 <inst_267>:
    1798:	0000b537          	lui	a0,0xb
    179c:	50450513          	addi	a0,a0,1284 # b504 <_end+0x18fc>
    17a0:	555555b7          	lui	a1,0x55555
    17a4:	55658593          	addi	a1,a1,1366 # 55555556 <absimm+0x10263027>
    17a8:	00b52633          	slt	a2,a0,a1
    17ac:	3ac0ac23          	sw	a2,952(ra)

000017b0 <inst_268>:
    17b0:	0000b537          	lui	a0,0xb
    17b4:	50450513          	addi	a0,a0,1284 # b504 <_end+0x18fc>
    17b8:	aaaab5b7          	lui	a1,0xaaaab
    17bc:	aab58593          	addi	a1,a1,-1365 # aaaaaaab <absimm+0x657b857c>
    17c0:	00b52633          	slt	a2,a0,a1
    17c4:	3ac0ae23          	sw	a2,956(ra)

000017c8 <inst_269>:
    17c8:	0000b537          	lui	a0,0xb
    17cc:	50450513          	addi	a0,a0,1284 # b504 <_end+0x18fc>
    17d0:	00600593          	addi	a1,zero,6
    17d4:	00b52633          	slt	a2,a0,a1
    17d8:	3cc0a023          	sw	a2,960(ra)

000017dc <inst_270>:
    17dc:	0000b537          	lui	a0,0xb
    17e0:	50450513          	addi	a0,a0,1284 # b504 <_end+0x18fc>
    17e4:	333335b7          	lui	a1,0x33333
    17e8:	33458593          	addi	a1,a1,820 # 33333334 <_end+0x3332972c>
    17ec:	00b52633          	slt	a2,a0,a1
    17f0:	3cc0a223          	sw	a2,964(ra)

000017f4 <inst_271>:
    17f4:	0000b537          	lui	a0,0xb
    17f8:	50450513          	addi	a0,a0,1284 # b504 <_end+0x18fc>
    17fc:	666665b7          	lui	a1,0x66666
    1800:	66758593          	addi	a1,a1,1639 # 66666667 <absimm+0x21374138>
    1804:	00b52633          	slt	a2,a0,a1
    1808:	3cc0a423          	sw	a2,968(ra)

0000180c <inst_272>:
    180c:	0000b537          	lui	a0,0xb
    1810:	50450513          	addi	a0,a0,1284 # b504 <_end+0x18fc>
    1814:	ffff55b7          	lui	a1,0xffff5
    1818:	afd58593          	addi	a1,a1,-1283 # ffff4afd <immx+0x452e702d>
    181c:	00b52633          	slt	a2,a0,a1
    1820:	3cc0a623          	sw	a2,972(ra)

00001824 <inst_273>:
    1824:	0000b537          	lui	a0,0xb
    1828:	50450513          	addi	a0,a0,1284 # b504 <_end+0x18fc>
    182c:	0000b5b7          	lui	a1,0xb
    1830:	50558593          	addi	a1,a1,1285 # b505 <_end+0x18fd>
    1834:	00b52633          	slt	a2,a0,a1
    1838:	3cc0a823          	sw	a2,976(ra)

0000183c <inst_274>:
    183c:	00200513          	addi	a0,zero,2
    1840:	00300593          	addi	a1,zero,3
    1844:	00b52633          	slt	a2,a0,a1
    1848:	3cc0aa23          	sw	a2,980(ra)

0000184c <inst_275>:
    184c:	00200513          	addi	a0,zero,2
    1850:	aaaab5b7          	lui	a1,0xaaaab
    1854:	aaa58593          	addi	a1,a1,-1366 # aaaaaaaa <absimm+0x657b857b>
    1858:	00b52633          	slt	a2,a0,a1
    185c:	3cc0ac23          	sw	a2,984(ra)

00001860 <inst_276>:
    1860:	00200513          	addi	a0,zero,2
    1864:	00500593          	addi	a1,zero,5
    1868:	00b52633          	slt	a2,a0,a1
    186c:	3cc0ae23          	sw	a2,988(ra)

00001870 <inst_277>:
    1870:	00200513          	addi	a0,zero,2
    1874:	333335b7          	lui	a1,0x33333
    1878:	33358593          	addi	a1,a1,819 # 33333333 <_end+0x3332972b>
    187c:	00b52633          	slt	a2,a0,a1
    1880:	3ec0a023          	sw	a2,992(ra)

00001884 <inst_278>:
    1884:	00200513          	addi	a0,zero,2
    1888:	666665b7          	lui	a1,0x66666
    188c:	66658593          	addi	a1,a1,1638 # 66666666 <absimm+0x21374137>
    1890:	00b52633          	slt	a2,a0,a1
    1894:	3ec0a223          	sw	a2,996(ra)

00001898 <inst_279>:
    1898:	00200513          	addi	a0,zero,2
    189c:	ffff55b7          	lui	a1,0xffff5
    18a0:	afc58593          	addi	a1,a1,-1284 # ffff4afc <immx+0x452e702c>
    18a4:	00b52633          	slt	a2,a0,a1
    18a8:	3ec0a423          	sw	a2,1000(ra)

000018ac <inst_280>:
    18ac:	00200513          	addi	a0,zero,2
    18b0:	0000b5b7          	lui	a1,0xb
    18b4:	50458593          	addi	a1,a1,1284 # b504 <_end+0x18fc>
    18b8:	00b52633          	slt	a2,a0,a1
    18bc:	3ec0a623          	sw	a2,1004(ra)

000018c0 <inst_281>:
    18c0:	00200513          	addi	a0,zero,2
    18c4:	00200593          	addi	a1,zero,2
    18c8:	00b52633          	slt	a2,a0,a1
    18cc:	3ec0a823          	sw	a2,1008(ra)

000018d0 <inst_282>:
    18d0:	00200513          	addi	a0,zero,2
    18d4:	555555b7          	lui	a1,0x55555
    18d8:	55458593          	addi	a1,a1,1364 # 55555554 <absimm+0x10263025>
    18dc:	00b52633          	slt	a2,a0,a1
    18e0:	3ec0aa23          	sw	a2,1012(ra)

000018e4 <inst_283>:
    18e4:	00200513          	addi	a0,zero,2
    18e8:	00000593          	addi	a1,zero,0
    18ec:	00b52633          	slt	a2,a0,a1
    18f0:	3ec0ac23          	sw	a2,1016(ra)

000018f4 <inst_284>:
    18f4:	00200513          	addi	a0,zero,2
    18f8:	00400593          	addi	a1,zero,4
    18fc:	00b52633          	slt	a2,a0,a1
    1900:	3ec0ae23          	sw	a2,1020(ra)

00001904 <inst_285>:
    1904:	00200513          	addi	a0,zero,2
    1908:	333335b7          	lui	a1,0x33333
    190c:	33258593          	addi	a1,a1,818 # 33333332 <_end+0x3332972a>
    1910:	00b52633          	slt	a2,a0,a1
    1914:	40c0a023          	sw	a2,1024(ra)

00001918 <inst_286>:
    1918:	00200513          	addi	a0,zero,2
    191c:	666665b7          	lui	a1,0x66666
    1920:	66558593          	addi	a1,a1,1637 # 66666665 <absimm+0x21374136>
    1924:	00b52633          	slt	a2,a0,a1
    1928:	40c0a223          	sw	a2,1028(ra)

0000192c <inst_287>:
    192c:	00200513          	addi	a0,zero,2
    1930:	0000b5b7          	lui	a1,0xb
    1934:	50358593          	addi	a1,a1,1283 # b503 <_end+0x18fb>
    1938:	00b52633          	slt	a2,a0,a1
    193c:	40c0a423          	sw	a2,1032(ra)

00001940 <inst_288>:
    1940:	00200513          	addi	a0,zero,2
    1944:	555555b7          	lui	a1,0x55555
    1948:	55658593          	addi	a1,a1,1366 # 55555556 <absimm+0x10263027>
    194c:	00b52633          	slt	a2,a0,a1
    1950:	40c0a623          	sw	a2,1036(ra)

00001954 <inst_289>:
    1954:	00200513          	addi	a0,zero,2
    1958:	aaaab5b7          	lui	a1,0xaaaab
    195c:	aab58593          	addi	a1,a1,-1365 # aaaaaaab <absimm+0x657b857c>
    1960:	00b52633          	slt	a2,a0,a1
    1964:	40c0a823          	sw	a2,1040(ra)

00001968 <inst_290>:
    1968:	00200513          	addi	a0,zero,2
    196c:	00600593          	addi	a1,zero,6
    1970:	00b52633          	slt	a2,a0,a1
    1974:	40c0aa23          	sw	a2,1044(ra)

00001978 <inst_291>:
    1978:	00200513          	addi	a0,zero,2
    197c:	333335b7          	lui	a1,0x33333
    1980:	33458593          	addi	a1,a1,820 # 33333334 <_end+0x3332972c>
    1984:	00b52633          	slt	a2,a0,a1
    1988:	40c0ac23          	sw	a2,1048(ra)

0000198c <inst_292>:
    198c:	00200513          	addi	a0,zero,2
    1990:	666665b7          	lui	a1,0x66666
    1994:	66758593          	addi	a1,a1,1639 # 66666667 <absimm+0x21374138>
    1998:	00b52633          	slt	a2,a0,a1
    199c:	40c0ae23          	sw	a2,1052(ra)

000019a0 <inst_293>:
    19a0:	00200513          	addi	a0,zero,2
    19a4:	ffff55b7          	lui	a1,0xffff5
    19a8:	afd58593          	addi	a1,a1,-1283 # ffff4afd <immx+0x452e702d>
    19ac:	00b52633          	slt	a2,a0,a1
    19b0:	42c0a023          	sw	a2,1056(ra)

000019b4 <inst_294>:
    19b4:	00200513          	addi	a0,zero,2
    19b8:	0000b5b7          	lui	a1,0xb
    19bc:	50558593          	addi	a1,a1,1285 # b505 <_end+0x18fd>
    19c0:	00b52633          	slt	a2,a0,a1
    19c4:	42c0a223          	sw	a2,1060(ra)

000019c8 <inst_295>:
    19c8:	55555537          	lui	a0,0x55555
    19cc:	55450513          	addi	a0,a0,1364 # 55555554 <absimm+0x10263025>
    19d0:	00300593          	addi	a1,zero,3
    19d4:	00b52633          	slt	a2,a0,a1
    19d8:	42c0a423          	sw	a2,1064(ra)

000019dc <inst_296>:
    19dc:	55555537          	lui	a0,0x55555
    19e0:	55450513          	addi	a0,a0,1364 # 55555554 <absimm+0x10263025>
    19e4:	555555b7          	lui	a1,0x55555
    19e8:	55558593          	addi	a1,a1,1365 # 55555555 <absimm+0x10263026>
    19ec:	00b52633          	slt	a2,a0,a1
    19f0:	42c0a623          	sw	a2,1068(ra)

000019f4 <inst_297>:
    19f4:	55555537          	lui	a0,0x55555
    19f8:	55450513          	addi	a0,a0,1364 # 55555554 <absimm+0x10263025>
    19fc:	aaaab5b7          	lui	a1,0xaaaab
    1a00:	aaa58593          	addi	a1,a1,-1366 # aaaaaaaa <absimm+0x657b857b>
    1a04:	00b52633          	slt	a2,a0,a1
    1a08:	42c0a823          	sw	a2,1072(ra)

00001a0c <inst_298>:
    1a0c:	55555537          	lui	a0,0x55555
    1a10:	55450513          	addi	a0,a0,1364 # 55555554 <absimm+0x10263025>
    1a14:	00500593          	addi	a1,zero,5
    1a18:	00b52633          	slt	a2,a0,a1
    1a1c:	42c0aa23          	sw	a2,1076(ra)

00001a20 <inst_299>:
    1a20:	55555537          	lui	a0,0x55555
    1a24:	55450513          	addi	a0,a0,1364 # 55555554 <absimm+0x10263025>
    1a28:	333335b7          	lui	a1,0x33333
    1a2c:	33358593          	addi	a1,a1,819 # 33333333 <_end+0x3332972b>
    1a30:	00b52633          	slt	a2,a0,a1
    1a34:	42c0ac23          	sw	a2,1080(ra)

00001a38 <inst_300>:
    1a38:	55555537          	lui	a0,0x55555
    1a3c:	55450513          	addi	a0,a0,1364 # 55555554 <absimm+0x10263025>
    1a40:	666665b7          	lui	a1,0x66666
    1a44:	66658593          	addi	a1,a1,1638 # 66666666 <absimm+0x21374137>
    1a48:	00b52633          	slt	a2,a0,a1
    1a4c:	42c0ae23          	sw	a2,1084(ra)

00001a50 <inst_301>:
    1a50:	55555537          	lui	a0,0x55555
    1a54:	55450513          	addi	a0,a0,1364 # 55555554 <absimm+0x10263025>
    1a58:	ffff55b7          	lui	a1,0xffff5
    1a5c:	afc58593          	addi	a1,a1,-1284 # ffff4afc <immx+0x452e702c>
    1a60:	00b52633          	slt	a2,a0,a1
    1a64:	44c0a023          	sw	a2,1088(ra)

00001a68 <inst_302>:
    1a68:	55555537          	lui	a0,0x55555
    1a6c:	55450513          	addi	a0,a0,1364 # 55555554 <absimm+0x10263025>
    1a70:	0000b5b7          	lui	a1,0xb
    1a74:	50458593          	addi	a1,a1,1284 # b504 <_end+0x18fc>
    1a78:	00b52633          	slt	a2,a0,a1
    1a7c:	44c0a223          	sw	a2,1092(ra)

00001a80 <inst_303>:
    1a80:	55555537          	lui	a0,0x55555
    1a84:	55450513          	addi	a0,a0,1364 # 55555554 <absimm+0x10263025>
    1a88:	00200593          	addi	a1,zero,2
    1a8c:	00b52633          	slt	a2,a0,a1
    1a90:	44c0a423          	sw	a2,1096(ra)

00001a94 <inst_304>:
    1a94:	55555537          	lui	a0,0x55555
    1a98:	55450513          	addi	a0,a0,1364 # 55555554 <absimm+0x10263025>
    1a9c:	555555b7          	lui	a1,0x55555
    1aa0:	55458593          	addi	a1,a1,1364 # 55555554 <absimm+0x10263025>
    1aa4:	00b52633          	slt	a2,a0,a1
    1aa8:	44c0a623          	sw	a2,1100(ra)

00001aac <inst_305>:
    1aac:	55555537          	lui	a0,0x55555
    1ab0:	55450513          	addi	a0,a0,1364 # 55555554 <absimm+0x10263025>
    1ab4:	00000593          	addi	a1,zero,0
    1ab8:	00b52633          	slt	a2,a0,a1
    1abc:	44c0a823          	sw	a2,1104(ra)

00001ac0 <inst_306>:
    1ac0:	55555537          	lui	a0,0x55555
    1ac4:	55450513          	addi	a0,a0,1364 # 55555554 <absimm+0x10263025>
    1ac8:	00400593          	addi	a1,zero,4
    1acc:	00b52633          	slt	a2,a0,a1
    1ad0:	44c0aa23          	sw	a2,1108(ra)

00001ad4 <inst_307>:
    1ad4:	55555537          	lui	a0,0x55555
    1ad8:	55450513          	addi	a0,a0,1364 # 55555554 <absimm+0x10263025>
    1adc:	333335b7          	lui	a1,0x33333
    1ae0:	33258593          	addi	a1,a1,818 # 33333332 <_end+0x3332972a>
    1ae4:	00b52633          	slt	a2,a0,a1
    1ae8:	44c0ac23          	sw	a2,1112(ra)

00001aec <inst_308>:
    1aec:	55555537          	lui	a0,0x55555
    1af0:	55450513          	addi	a0,a0,1364 # 55555554 <absimm+0x10263025>
    1af4:	666665b7          	lui	a1,0x66666
    1af8:	66558593          	addi	a1,a1,1637 # 66666665 <absimm+0x21374136>
    1afc:	00b52633          	slt	a2,a0,a1
    1b00:	44c0ae23          	sw	a2,1116(ra)

00001b04 <inst_309>:
    1b04:	55555537          	lui	a0,0x55555
    1b08:	55450513          	addi	a0,a0,1364 # 55555554 <absimm+0x10263025>
    1b0c:	0000b5b7          	lui	a1,0xb
    1b10:	50358593          	addi	a1,a1,1283 # b503 <_end+0x18fb>
    1b14:	00b52633          	slt	a2,a0,a1
    1b18:	46c0a023          	sw	a2,1120(ra)

00001b1c <inst_310>:
    1b1c:	55555537          	lui	a0,0x55555
    1b20:	55450513          	addi	a0,a0,1364 # 55555554 <absimm+0x10263025>
    1b24:	555555b7          	lui	a1,0x55555
    1b28:	55658593          	addi	a1,a1,1366 # 55555556 <absimm+0x10263027>
    1b2c:	00b52633          	slt	a2,a0,a1
    1b30:	46c0a223          	sw	a2,1124(ra)

00001b34 <inst_311>:
    1b34:	55555537          	lui	a0,0x55555
    1b38:	55450513          	addi	a0,a0,1364 # 55555554 <absimm+0x10263025>
    1b3c:	aaaab5b7          	lui	a1,0xaaaab
    1b40:	aab58593          	addi	a1,a1,-1365 # aaaaaaab <absimm+0x657b857c>
    1b44:	00b52633          	slt	a2,a0,a1
    1b48:	46c0a423          	sw	a2,1128(ra)

00001b4c <inst_312>:
    1b4c:	55555537          	lui	a0,0x55555
    1b50:	55450513          	addi	a0,a0,1364 # 55555554 <absimm+0x10263025>
    1b54:	00600593          	addi	a1,zero,6
    1b58:	00b52633          	slt	a2,a0,a1
    1b5c:	46c0a623          	sw	a2,1132(ra)

00001b60 <inst_313>:
    1b60:	55555537          	lui	a0,0x55555
    1b64:	55450513          	addi	a0,a0,1364 # 55555554 <absimm+0x10263025>
    1b68:	333335b7          	lui	a1,0x33333
    1b6c:	33458593          	addi	a1,a1,820 # 33333334 <_end+0x3332972c>
    1b70:	00b52633          	slt	a2,a0,a1
    1b74:	46c0a823          	sw	a2,1136(ra)

00001b78 <inst_314>:
    1b78:	55555537          	lui	a0,0x55555
    1b7c:	55450513          	addi	a0,a0,1364 # 55555554 <absimm+0x10263025>
    1b80:	666665b7          	lui	a1,0x66666
    1b84:	66758593          	addi	a1,a1,1639 # 66666667 <absimm+0x21374138>
    1b88:	00b52633          	slt	a2,a0,a1
    1b8c:	46c0aa23          	sw	a2,1140(ra)

00001b90 <inst_315>:
    1b90:	55555537          	lui	a0,0x55555
    1b94:	55450513          	addi	a0,a0,1364 # 55555554 <absimm+0x10263025>
    1b98:	ffff55b7          	lui	a1,0xffff5
    1b9c:	afd58593          	addi	a1,a1,-1283 # ffff4afd <immx+0x452e702d>
    1ba0:	00b52633          	slt	a2,a0,a1
    1ba4:	46c0ac23          	sw	a2,1144(ra)

00001ba8 <inst_316>:
    1ba8:	55555537          	lui	a0,0x55555
    1bac:	55450513          	addi	a0,a0,1364 # 55555554 <absimm+0x10263025>
    1bb0:	0000b5b7          	lui	a1,0xb
    1bb4:	50558593          	addi	a1,a1,1285 # b505 <_end+0x18fd>
    1bb8:	00b52633          	slt	a2,a0,a1
    1bbc:	46c0ae23          	sw	a2,1148(ra)

00001bc0 <inst_317>:
    1bc0:	00000513          	addi	a0,zero,0
    1bc4:	00300593          	addi	a1,zero,3
    1bc8:	00b52633          	slt	a2,a0,a1
    1bcc:	48c0a023          	sw	a2,1152(ra)

00001bd0 <inst_318>:
    1bd0:	00000513          	addi	a0,zero,0
    1bd4:	555555b7          	lui	a1,0x55555
    1bd8:	55558593          	addi	a1,a1,1365 # 55555555 <absimm+0x10263026>
    1bdc:	00b52633          	slt	a2,a0,a1
    1be0:	48c0a223          	sw	a2,1156(ra)

00001be4 <inst_319>:
    1be4:	00000513          	addi	a0,zero,0
    1be8:	aaaab5b7          	lui	a1,0xaaaab
    1bec:	aaa58593          	addi	a1,a1,-1366 # aaaaaaaa <absimm+0x657b857b>
    1bf0:	00b52633          	slt	a2,a0,a1
    1bf4:	48c0a423          	sw	a2,1160(ra)

00001bf8 <inst_320>:
    1bf8:	00000513          	addi	a0,zero,0
    1bfc:	00500593          	addi	a1,zero,5
    1c00:	00b52633          	slt	a2,a0,a1
    1c04:	48c0a623          	sw	a2,1164(ra)

00001c08 <inst_321>:
    1c08:	00000513          	addi	a0,zero,0
    1c0c:	333335b7          	lui	a1,0x33333
    1c10:	33358593          	addi	a1,a1,819 # 33333333 <_end+0x3332972b>
    1c14:	00b52633          	slt	a2,a0,a1
    1c18:	48c0a823          	sw	a2,1168(ra)

00001c1c <inst_322>:
    1c1c:	00000513          	addi	a0,zero,0
    1c20:	666665b7          	lui	a1,0x66666
    1c24:	66658593          	addi	a1,a1,1638 # 66666666 <absimm+0x21374137>
    1c28:	00b52633          	slt	a2,a0,a1
    1c2c:	48c0aa23          	sw	a2,1172(ra)

00001c30 <inst_323>:
    1c30:	00000513          	addi	a0,zero,0
    1c34:	ffff55b7          	lui	a1,0xffff5
    1c38:	afc58593          	addi	a1,a1,-1284 # ffff4afc <immx+0x452e702c>
    1c3c:	00b52633          	slt	a2,a0,a1
    1c40:	48c0ac23          	sw	a2,1176(ra)

00001c44 <inst_324>:
    1c44:	00000513          	addi	a0,zero,0
    1c48:	0000b5b7          	lui	a1,0xb
    1c4c:	50458593          	addi	a1,a1,1284 # b504 <_end+0x18fc>
    1c50:	00b52633          	slt	a2,a0,a1
    1c54:	48c0ae23          	sw	a2,1180(ra)

00001c58 <inst_325>:
    1c58:	aaaab537          	lui	a0,0xaaaab
    1c5c:	aab50513          	addi	a0,a0,-1365 # aaaaaaab <absimm+0x657b857c>
    1c60:	aaaab5b7          	lui	a1,0xaaaab
    1c64:	aab58593          	addi	a1,a1,-1365 # aaaaaaab <absimm+0x657b857c>
    1c68:	00b52633          	slt	a2,a0,a1
    1c6c:	4ac0a023          	sw	a2,1184(ra)

00001c70 <inst_326>:
    1c70:	aaaab537          	lui	a0,0xaaaab
    1c74:	aab50513          	addi	a0,a0,-1365 # aaaaaaab <absimm+0x657b857c>
    1c78:	00600593          	addi	a1,zero,6
    1c7c:	00b52633          	slt	a2,a0,a1
    1c80:	4ac0a223          	sw	a2,1188(ra)

00001c84 <inst_327>:
    1c84:	aaaab537          	lui	a0,0xaaaab
    1c88:	aab50513          	addi	a0,a0,-1365 # aaaaaaab <absimm+0x657b857c>
    1c8c:	333335b7          	lui	a1,0x33333
    1c90:	33458593          	addi	a1,a1,820 # 33333334 <_end+0x3332972c>
    1c94:	00b52633          	slt	a2,a0,a1
    1c98:	4ac0a423          	sw	a2,1192(ra)

00001c9c <inst_328>:
    1c9c:	aaaab537          	lui	a0,0xaaaab
    1ca0:	aab50513          	addi	a0,a0,-1365 # aaaaaaab <absimm+0x657b857c>
    1ca4:	666665b7          	lui	a1,0x66666
    1ca8:	66758593          	addi	a1,a1,1639 # 66666667 <absimm+0x21374138>
    1cac:	00b52633          	slt	a2,a0,a1
    1cb0:	4ac0a623          	sw	a2,1196(ra)

00001cb4 <inst_329>:
    1cb4:	aaaab537          	lui	a0,0xaaaab
    1cb8:	aab50513          	addi	a0,a0,-1365 # aaaaaaab <absimm+0x657b857c>
    1cbc:	ffff55b7          	lui	a1,0xffff5
    1cc0:	afd58593          	addi	a1,a1,-1283 # ffff4afd <immx+0x452e702d>
    1cc4:	00b52633          	slt	a2,a0,a1
    1cc8:	4ac0a823          	sw	a2,1200(ra)

00001ccc <inst_330>:
    1ccc:	aaaab537          	lui	a0,0xaaaab
    1cd0:	aab50513          	addi	a0,a0,-1365 # aaaaaaab <absimm+0x657b857c>
    1cd4:	0000b5b7          	lui	a1,0xb
    1cd8:	50558593          	addi	a1,a1,1285 # b505 <_end+0x18fd>
    1cdc:	00b52633          	slt	a2,a0,a1
    1ce0:	4ac0aa23          	sw	a2,1204(ra)

00001ce4 <inst_331>:
    1ce4:	00600513          	addi	a0,zero,6
    1ce8:	00300593          	addi	a1,zero,3
    1cec:	00b52633          	slt	a2,a0,a1
    1cf0:	4ac0ac23          	sw	a2,1208(ra)

00001cf4 <inst_332>:
    1cf4:	00600513          	addi	a0,zero,6
    1cf8:	555555b7          	lui	a1,0x55555
    1cfc:	55558593          	addi	a1,a1,1365 # 55555555 <absimm+0x10263026>
    1d00:	00b52633          	slt	a2,a0,a1
    1d04:	4ac0ae23          	sw	a2,1212(ra)

00001d08 <inst_333>:
    1d08:	00600513          	addi	a0,zero,6
    1d0c:	aaaab5b7          	lui	a1,0xaaaab
    1d10:	aaa58593          	addi	a1,a1,-1366 # aaaaaaaa <absimm+0x657b857b>
    1d14:	00b52633          	slt	a2,a0,a1
    1d18:	4cc0a023          	sw	a2,1216(ra)

00001d1c <inst_334>:
    1d1c:	00600513          	addi	a0,zero,6
    1d20:	00500593          	addi	a1,zero,5
    1d24:	00b52633          	slt	a2,a0,a1
    1d28:	4cc0a223          	sw	a2,1220(ra)

00001d2c <inst_335>:
    1d2c:	00600513          	addi	a0,zero,6
    1d30:	333335b7          	lui	a1,0x33333
    1d34:	33358593          	addi	a1,a1,819 # 33333333 <_end+0x3332972b>
    1d38:	00b52633          	slt	a2,a0,a1
    1d3c:	4cc0a423          	sw	a2,1224(ra)

00001d40 <inst_336>:
    1d40:	00600513          	addi	a0,zero,6
    1d44:	666665b7          	lui	a1,0x66666
    1d48:	66658593          	addi	a1,a1,1638 # 66666666 <absimm+0x21374137>
    1d4c:	00b52633          	slt	a2,a0,a1
    1d50:	4cc0a623          	sw	a2,1228(ra)

00001d54 <inst_337>:
    1d54:	00600513          	addi	a0,zero,6
    1d58:	ffff55b7          	lui	a1,0xffff5
    1d5c:	afc58593          	addi	a1,a1,-1284 # ffff4afc <immx+0x452e702c>
    1d60:	00b52633          	slt	a2,a0,a1
    1d64:	4cc0a823          	sw	a2,1232(ra)

00001d68 <inst_338>:
    1d68:	00600513          	addi	a0,zero,6
    1d6c:	0000b5b7          	lui	a1,0xb
    1d70:	50458593          	addi	a1,a1,1284 # b504 <_end+0x18fc>
    1d74:	00b52633          	slt	a2,a0,a1
    1d78:	4cc0aa23          	sw	a2,1236(ra)

00001d7c <inst_339>:
    1d7c:	00600513          	addi	a0,zero,6
    1d80:	00200593          	addi	a1,zero,2
    1d84:	00b52633          	slt	a2,a0,a1
    1d88:	4cc0ac23          	sw	a2,1240(ra)

00001d8c <inst_340>:
    1d8c:	00600513          	addi	a0,zero,6
    1d90:	555555b7          	lui	a1,0x55555
    1d94:	55458593          	addi	a1,a1,1364 # 55555554 <absimm+0x10263025>
    1d98:	00b52633          	slt	a2,a0,a1
    1d9c:	4cc0ae23          	sw	a2,1244(ra)

00001da0 <inst_341>:
    1da0:	00600513          	addi	a0,zero,6
    1da4:	00000593          	addi	a1,zero,0
    1da8:	00b52633          	slt	a2,a0,a1
    1dac:	4ec0a023          	sw	a2,1248(ra)

00001db0 <inst_342>:
    1db0:	00600513          	addi	a0,zero,6
    1db4:	00400593          	addi	a1,zero,4
    1db8:	00b52633          	slt	a2,a0,a1
    1dbc:	4ec0a223          	sw	a2,1252(ra)

00001dc0 <inst_343>:
    1dc0:	00600513          	addi	a0,zero,6
    1dc4:	333335b7          	lui	a1,0x33333
    1dc8:	33258593          	addi	a1,a1,818 # 33333332 <_end+0x3332972a>
    1dcc:	00b52633          	slt	a2,a0,a1
    1dd0:	4ec0a423          	sw	a2,1256(ra)

00001dd4 <inst_344>:
    1dd4:	00600513          	addi	a0,zero,6
    1dd8:	666665b7          	lui	a1,0x66666
    1ddc:	66558593          	addi	a1,a1,1637 # 66666665 <absimm+0x21374136>
    1de0:	00b52633          	slt	a2,a0,a1
    1de4:	4ec0a623          	sw	a2,1260(ra)

00001de8 <inst_345>:
    1de8:	00600513          	addi	a0,zero,6
    1dec:	0000b5b7          	lui	a1,0xb
    1df0:	50358593          	addi	a1,a1,1283 # b503 <_end+0x18fb>
    1df4:	00b52633          	slt	a2,a0,a1
    1df8:	4ec0a823          	sw	a2,1264(ra)

00001dfc <inst_346>:
    1dfc:	00600513          	addi	a0,zero,6
    1e00:	555555b7          	lui	a1,0x55555
    1e04:	55658593          	addi	a1,a1,1366 # 55555556 <absimm+0x10263027>
    1e08:	00b52633          	slt	a2,a0,a1
    1e0c:	4ec0aa23          	sw	a2,1268(ra)

00001e10 <inst_347>:
    1e10:	00600513          	addi	a0,zero,6
    1e14:	aaaab5b7          	lui	a1,0xaaaab
    1e18:	aab58593          	addi	a1,a1,-1365 # aaaaaaab <absimm+0x657b857c>
    1e1c:	00b52633          	slt	a2,a0,a1
    1e20:	4ec0ac23          	sw	a2,1272(ra)

00001e24 <inst_348>:
    1e24:	00600513          	addi	a0,zero,6
    1e28:	00600593          	addi	a1,zero,6
    1e2c:	00b52633          	slt	a2,a0,a1
    1e30:	4ec0ae23          	sw	a2,1276(ra)

00001e34 <inst_349>:
    1e34:	00600513          	addi	a0,zero,6
    1e38:	333335b7          	lui	a1,0x33333
    1e3c:	33458593          	addi	a1,a1,820 # 33333334 <_end+0x3332972c>
    1e40:	00b52633          	slt	a2,a0,a1
    1e44:	50c0a023          	sw	a2,1280(ra)

00001e48 <inst_350>:
    1e48:	00600513          	addi	a0,zero,6
    1e4c:	666665b7          	lui	a1,0x66666
    1e50:	66758593          	addi	a1,a1,1639 # 66666667 <absimm+0x21374138>
    1e54:	00b52633          	slt	a2,a0,a1
    1e58:	50c0a223          	sw	a2,1284(ra)

00001e5c <inst_351>:
    1e5c:	00600513          	addi	a0,zero,6
    1e60:	ffff55b7          	lui	a1,0xffff5
    1e64:	afd58593          	addi	a1,a1,-1283 # ffff4afd <immx+0x452e702d>
    1e68:	00b52633          	slt	a2,a0,a1
    1e6c:	50c0a423          	sw	a2,1288(ra)

00001e70 <inst_352>:
    1e70:	00600513          	addi	a0,zero,6
    1e74:	0000b5b7          	lui	a1,0xb
    1e78:	50558593          	addi	a1,a1,1285 # b505 <_end+0x18fd>
    1e7c:	00b52633          	slt	a2,a0,a1
    1e80:	50c0a623          	sw	a2,1292(ra)

00001e84 <inst_353>:
    1e84:	33333537          	lui	a0,0x33333
    1e88:	33450513          	addi	a0,a0,820 # 33333334 <_end+0x3332972c>
    1e8c:	00300593          	addi	a1,zero,3
    1e90:	00b52633          	slt	a2,a0,a1
    1e94:	50c0a823          	sw	a2,1296(ra)

00001e98 <inst_354>:
    1e98:	33333537          	lui	a0,0x33333
    1e9c:	33450513          	addi	a0,a0,820 # 33333334 <_end+0x3332972c>
    1ea0:	555555b7          	lui	a1,0x55555
    1ea4:	55558593          	addi	a1,a1,1365 # 55555555 <absimm+0x10263026>
    1ea8:	00b52633          	slt	a2,a0,a1
    1eac:	50c0aa23          	sw	a2,1300(ra)

00001eb0 <inst_355>:
    1eb0:	33333537          	lui	a0,0x33333
    1eb4:	33450513          	addi	a0,a0,820 # 33333334 <_end+0x3332972c>
    1eb8:	aaaab5b7          	lui	a1,0xaaaab
    1ebc:	aaa58593          	addi	a1,a1,-1366 # aaaaaaaa <absimm+0x657b857b>
    1ec0:	00b52633          	slt	a2,a0,a1
    1ec4:	50c0ac23          	sw	a2,1304(ra)

00001ec8 <inst_356>:
    1ec8:	33333537          	lui	a0,0x33333
    1ecc:	33450513          	addi	a0,a0,820 # 33333334 <_end+0x3332972c>
    1ed0:	00500593          	addi	a1,zero,5
    1ed4:	00b52633          	slt	a2,a0,a1
    1ed8:	50c0ae23          	sw	a2,1308(ra)

00001edc <inst_357>:
    1edc:	33333537          	lui	a0,0x33333
    1ee0:	33450513          	addi	a0,a0,820 # 33333334 <_end+0x3332972c>
    1ee4:	333335b7          	lui	a1,0x33333
    1ee8:	33358593          	addi	a1,a1,819 # 33333333 <_end+0x3332972b>
    1eec:	00b52633          	slt	a2,a0,a1
    1ef0:	52c0a023          	sw	a2,1312(ra)

00001ef4 <inst_358>:
    1ef4:	33333537          	lui	a0,0x33333
    1ef8:	33450513          	addi	a0,a0,820 # 33333334 <_end+0x3332972c>
    1efc:	666665b7          	lui	a1,0x66666
    1f00:	66658593          	addi	a1,a1,1638 # 66666666 <absimm+0x21374137>
    1f04:	00b52633          	slt	a2,a0,a1
    1f08:	52c0a223          	sw	a2,1316(ra)

00001f0c <inst_359>:
    1f0c:	33333537          	lui	a0,0x33333
    1f10:	33450513          	addi	a0,a0,820 # 33333334 <_end+0x3332972c>
    1f14:	ffff55b7          	lui	a1,0xffff5
    1f18:	afc58593          	addi	a1,a1,-1284 # ffff4afc <immx+0x452e702c>
    1f1c:	00b52633          	slt	a2,a0,a1
    1f20:	52c0a423          	sw	a2,1320(ra)

00001f24 <inst_360>:
    1f24:	33333537          	lui	a0,0x33333
    1f28:	33450513          	addi	a0,a0,820 # 33333334 <_end+0x3332972c>
    1f2c:	0000b5b7          	lui	a1,0xb
    1f30:	50458593          	addi	a1,a1,1284 # b504 <_end+0x18fc>
    1f34:	00b52633          	slt	a2,a0,a1
    1f38:	52c0a623          	sw	a2,1324(ra)

00001f3c <inst_361>:
    1f3c:	33333537          	lui	a0,0x33333
    1f40:	33450513          	addi	a0,a0,820 # 33333334 <_end+0x3332972c>
    1f44:	00200593          	addi	a1,zero,2
    1f48:	00b52633          	slt	a2,a0,a1
    1f4c:	52c0a823          	sw	a2,1328(ra)

00001f50 <inst_362>:
    1f50:	33333537          	lui	a0,0x33333
    1f54:	33450513          	addi	a0,a0,820 # 33333334 <_end+0x3332972c>
    1f58:	555555b7          	lui	a1,0x55555
    1f5c:	55458593          	addi	a1,a1,1364 # 55555554 <absimm+0x10263025>
    1f60:	00b52633          	slt	a2,a0,a1
    1f64:	52c0aa23          	sw	a2,1332(ra)

00001f68 <inst_363>:
    1f68:	33333537          	lui	a0,0x33333
    1f6c:	33450513          	addi	a0,a0,820 # 33333334 <_end+0x3332972c>
    1f70:	00000593          	addi	a1,zero,0
    1f74:	00b52633          	slt	a2,a0,a1
    1f78:	52c0ac23          	sw	a2,1336(ra)

00001f7c <inst_364>:
    1f7c:	33333537          	lui	a0,0x33333
    1f80:	33450513          	addi	a0,a0,820 # 33333334 <_end+0x3332972c>
    1f84:	00400593          	addi	a1,zero,4
    1f88:	00b52633          	slt	a2,a0,a1
    1f8c:	52c0ae23          	sw	a2,1340(ra)

00001f90 <inst_365>:
    1f90:	33333537          	lui	a0,0x33333
    1f94:	33450513          	addi	a0,a0,820 # 33333334 <_end+0x3332972c>
    1f98:	333335b7          	lui	a1,0x33333
    1f9c:	33258593          	addi	a1,a1,818 # 33333332 <_end+0x3332972a>
    1fa0:	00b52633          	slt	a2,a0,a1
    1fa4:	54c0a023          	sw	a2,1344(ra)

00001fa8 <inst_366>:
    1fa8:	33333537          	lui	a0,0x33333
    1fac:	33450513          	addi	a0,a0,820 # 33333334 <_end+0x3332972c>
    1fb0:	666665b7          	lui	a1,0x66666
    1fb4:	66558593          	addi	a1,a1,1637 # 66666665 <absimm+0x21374136>
    1fb8:	00b52633          	slt	a2,a0,a1
    1fbc:	54c0a223          	sw	a2,1348(ra)

00001fc0 <inst_367>:
    1fc0:	33333537          	lui	a0,0x33333
    1fc4:	33450513          	addi	a0,a0,820 # 33333334 <_end+0x3332972c>
    1fc8:	0000b5b7          	lui	a1,0xb
    1fcc:	50358593          	addi	a1,a1,1283 # b503 <_end+0x18fb>
    1fd0:	00b52633          	slt	a2,a0,a1
    1fd4:	54c0a423          	sw	a2,1352(ra)

00001fd8 <inst_368>:
    1fd8:	33333537          	lui	a0,0x33333
    1fdc:	33450513          	addi	a0,a0,820 # 33333334 <_end+0x3332972c>
    1fe0:	555555b7          	lui	a1,0x55555
    1fe4:	55658593          	addi	a1,a1,1366 # 55555556 <absimm+0x10263027>
    1fe8:	00b52633          	slt	a2,a0,a1
    1fec:	54c0a623          	sw	a2,1356(ra)

00001ff0 <inst_369>:
    1ff0:	33333537          	lui	a0,0x33333
    1ff4:	33450513          	addi	a0,a0,820 # 33333334 <_end+0x3332972c>
    1ff8:	aaaab5b7          	lui	a1,0xaaaab
    1ffc:	aab58593          	addi	a1,a1,-1365 # aaaaaaab <absimm+0x657b857c>
    2000:	00b52633          	slt	a2,a0,a1
    2004:	54c0a823          	sw	a2,1360(ra)

00002008 <inst_370>:
    2008:	33333537          	lui	a0,0x33333
    200c:	33450513          	addi	a0,a0,820 # 33333334 <_end+0x3332972c>
    2010:	00600593          	addi	a1,zero,6
    2014:	00b52633          	slt	a2,a0,a1
    2018:	54c0aa23          	sw	a2,1364(ra)

0000201c <inst_371>:
    201c:	33333537          	lui	a0,0x33333
    2020:	33450513          	addi	a0,a0,820 # 33333334 <_end+0x3332972c>
    2024:	333335b7          	lui	a1,0x33333
    2028:	33458593          	addi	a1,a1,820 # 33333334 <_end+0x3332972c>
    202c:	00b52633          	slt	a2,a0,a1
    2030:	54c0ac23          	sw	a2,1368(ra)

00002034 <inst_372>:
    2034:	33333537          	lui	a0,0x33333
    2038:	33450513          	addi	a0,a0,820 # 33333334 <_end+0x3332972c>
    203c:	666665b7          	lui	a1,0x66666
    2040:	66758593          	addi	a1,a1,1639 # 66666667 <absimm+0x21374138>
    2044:	00b52633          	slt	a2,a0,a1
    2048:	54c0ae23          	sw	a2,1372(ra)

0000204c <inst_373>:
    204c:	33333537          	lui	a0,0x33333
    2050:	33450513          	addi	a0,a0,820 # 33333334 <_end+0x3332972c>
    2054:	ffff55b7          	lui	a1,0xffff5
    2058:	afd58593          	addi	a1,a1,-1283 # ffff4afd <immx+0x452e702d>
    205c:	00b52633          	slt	a2,a0,a1
    2060:	56c0a023          	sw	a2,1376(ra)

00002064 <inst_374>:
    2064:	33333537          	lui	a0,0x33333
    2068:	33450513          	addi	a0,a0,820 # 33333334 <_end+0x3332972c>
    206c:	0000b5b7          	lui	a1,0xb
    2070:	50558593          	addi	a1,a1,1285 # b505 <_end+0x18fd>
    2074:	00b52633          	slt	a2,a0,a1
    2078:	56c0a223          	sw	a2,1380(ra)

0000207c <inst_375>:
    207c:	66666537          	lui	a0,0x66666
    2080:	66750513          	addi	a0,a0,1639 # 66666667 <absimm+0x21374138>
    2084:	00300593          	addi	a1,zero,3
    2088:	00b52633          	slt	a2,a0,a1
    208c:	56c0a423          	sw	a2,1384(ra)

00002090 <inst_376>:
    2090:	66666537          	lui	a0,0x66666
    2094:	66750513          	addi	a0,a0,1639 # 66666667 <absimm+0x21374138>
    2098:	555555b7          	lui	a1,0x55555
    209c:	55558593          	addi	a1,a1,1365 # 55555555 <absimm+0x10263026>
    20a0:	00b52633          	slt	a2,a0,a1
    20a4:	56c0a623          	sw	a2,1388(ra)

000020a8 <inst_377>:
    20a8:	66666537          	lui	a0,0x66666
    20ac:	66750513          	addi	a0,a0,1639 # 66666667 <absimm+0x21374138>
    20b0:	aaaab5b7          	lui	a1,0xaaaab
    20b4:	aaa58593          	addi	a1,a1,-1366 # aaaaaaaa <absimm+0x657b857b>
    20b8:	00b52633          	slt	a2,a0,a1
    20bc:	56c0a823          	sw	a2,1392(ra)

000020c0 <inst_378>:
    20c0:	66666537          	lui	a0,0x66666
    20c4:	66750513          	addi	a0,a0,1639 # 66666667 <absimm+0x21374138>
    20c8:	00500593          	addi	a1,zero,5
    20cc:	00b52633          	slt	a2,a0,a1
    20d0:	56c0aa23          	sw	a2,1396(ra)

000020d4 <inst_379>:
    20d4:	66666537          	lui	a0,0x66666
    20d8:	66750513          	addi	a0,a0,1639 # 66666667 <absimm+0x21374138>
    20dc:	333335b7          	lui	a1,0x33333
    20e0:	33358593          	addi	a1,a1,819 # 33333333 <_end+0x3332972b>
    20e4:	00b52633          	slt	a2,a0,a1
    20e8:	56c0ac23          	sw	a2,1400(ra)

000020ec <inst_380>:
    20ec:	66666537          	lui	a0,0x66666
    20f0:	66750513          	addi	a0,a0,1639 # 66666667 <absimm+0x21374138>
    20f4:	666665b7          	lui	a1,0x66666
    20f8:	66658593          	addi	a1,a1,1638 # 66666666 <absimm+0x21374137>
    20fc:	00b52633          	slt	a2,a0,a1
    2100:	56c0ae23          	sw	a2,1404(ra)

00002104 <inst_381>:
    2104:	66666537          	lui	a0,0x66666
    2108:	66750513          	addi	a0,a0,1639 # 66666667 <absimm+0x21374138>
    210c:	ffff55b7          	lui	a1,0xffff5
    2110:	afc58593          	addi	a1,a1,-1284 # ffff4afc <immx+0x452e702c>
    2114:	00b52633          	slt	a2,a0,a1
    2118:	58c0a023          	sw	a2,1408(ra)

0000211c <inst_382>:
    211c:	66666537          	lui	a0,0x66666
    2120:	66750513          	addi	a0,a0,1639 # 66666667 <absimm+0x21374138>
    2124:	0000b5b7          	lui	a1,0xb
    2128:	50458593          	addi	a1,a1,1284 # b504 <_end+0x18fc>
    212c:	00b52633          	slt	a2,a0,a1
    2130:	58c0a223          	sw	a2,1412(ra)

00002134 <inst_383>:
    2134:	66666537          	lui	a0,0x66666
    2138:	66750513          	addi	a0,a0,1639 # 66666667 <absimm+0x21374138>
    213c:	00200593          	addi	a1,zero,2
    2140:	00b52633          	slt	a2,a0,a1
    2144:	58c0a423          	sw	a2,1416(ra)

00002148 <inst_384>:
    2148:	66666537          	lui	a0,0x66666
    214c:	66750513          	addi	a0,a0,1639 # 66666667 <absimm+0x21374138>
    2150:	555555b7          	lui	a1,0x55555
    2154:	55458593          	addi	a1,a1,1364 # 55555554 <absimm+0x10263025>
    2158:	00b52633          	slt	a2,a0,a1
    215c:	58c0a623          	sw	a2,1420(ra)

00002160 <inst_385>:
    2160:	66666537          	lui	a0,0x66666
    2164:	66750513          	addi	a0,a0,1639 # 66666667 <absimm+0x21374138>
    2168:	00000593          	addi	a1,zero,0
    216c:	00b52633          	slt	a2,a0,a1
    2170:	58c0a823          	sw	a2,1424(ra)

00002174 <inst_386>:
    2174:	66666537          	lui	a0,0x66666
    2178:	66750513          	addi	a0,a0,1639 # 66666667 <absimm+0x21374138>
    217c:	00400593          	addi	a1,zero,4
    2180:	00b52633          	slt	a2,a0,a1
    2184:	58c0aa23          	sw	a2,1428(ra)

00002188 <inst_387>:
    2188:	66666537          	lui	a0,0x66666
    218c:	66750513          	addi	a0,a0,1639 # 66666667 <absimm+0x21374138>
    2190:	333335b7          	lui	a1,0x33333
    2194:	33258593          	addi	a1,a1,818 # 33333332 <_end+0x3332972a>
    2198:	00b52633          	slt	a2,a0,a1
    219c:	58c0ac23          	sw	a2,1432(ra)

000021a0 <inst_388>:
    21a0:	66666537          	lui	a0,0x66666
    21a4:	66750513          	addi	a0,a0,1639 # 66666667 <absimm+0x21374138>
    21a8:	666665b7          	lui	a1,0x66666
    21ac:	66558593          	addi	a1,a1,1637 # 66666665 <absimm+0x21374136>
    21b0:	00b52633          	slt	a2,a0,a1
    21b4:	58c0ae23          	sw	a2,1436(ra)

000021b8 <inst_389>:
    21b8:	66666537          	lui	a0,0x66666
    21bc:	66750513          	addi	a0,a0,1639 # 66666667 <absimm+0x21374138>
    21c0:	0000b5b7          	lui	a1,0xb
    21c4:	50358593          	addi	a1,a1,1283 # b503 <_end+0x18fb>
    21c8:	00b52633          	slt	a2,a0,a1
    21cc:	5ac0a023          	sw	a2,1440(ra)

000021d0 <inst_390>:
    21d0:	66666537          	lui	a0,0x66666
    21d4:	66750513          	addi	a0,a0,1639 # 66666667 <absimm+0x21374138>
    21d8:	555555b7          	lui	a1,0x55555
    21dc:	55658593          	addi	a1,a1,1366 # 55555556 <absimm+0x10263027>
    21e0:	00b52633          	slt	a2,a0,a1
    21e4:	5ac0a223          	sw	a2,1444(ra)

000021e8 <inst_391>:
    21e8:	66666537          	lui	a0,0x66666
    21ec:	66750513          	addi	a0,a0,1639 # 66666667 <absimm+0x21374138>
    21f0:	aaaab5b7          	lui	a1,0xaaaab
    21f4:	aab58593          	addi	a1,a1,-1365 # aaaaaaab <absimm+0x657b857c>
    21f8:	00b52633          	slt	a2,a0,a1
    21fc:	5ac0a423          	sw	a2,1448(ra)

00002200 <inst_392>:
    2200:	66666537          	lui	a0,0x66666
    2204:	66750513          	addi	a0,a0,1639 # 66666667 <absimm+0x21374138>
    2208:	00600593          	addi	a1,zero,6
    220c:	00b52633          	slt	a2,a0,a1
    2210:	5ac0a623          	sw	a2,1452(ra)

00002214 <inst_393>:
    2214:	66666537          	lui	a0,0x66666
    2218:	66750513          	addi	a0,a0,1639 # 66666667 <absimm+0x21374138>
    221c:	333335b7          	lui	a1,0x33333
    2220:	33458593          	addi	a1,a1,820 # 33333334 <_end+0x3332972c>
    2224:	00b52633          	slt	a2,a0,a1
    2228:	5ac0a823          	sw	a2,1456(ra)

0000222c <inst_394>:
    222c:	66666537          	lui	a0,0x66666
    2230:	66750513          	addi	a0,a0,1639 # 66666667 <absimm+0x21374138>
    2234:	ffff55b7          	lui	a1,0xffff5
    2238:	afd58593          	addi	a1,a1,-1283 # ffff4afd <immx+0x452e702d>
    223c:	00b52633          	slt	a2,a0,a1
    2240:	5ac0aa23          	sw	a2,1460(ra)

00002244 <inst_395>:
    2244:	66666537          	lui	a0,0x66666
    2248:	66750513          	addi	a0,a0,1639 # 66666667 <absimm+0x21374138>
    224c:	0000b5b7          	lui	a1,0xb
    2250:	50558593          	addi	a1,a1,1285 # b505 <_end+0x18fd>
    2254:	00b52633          	slt	a2,a0,a1
    2258:	5ac0ac23          	sw	a2,1464(ra)

0000225c <inst_396>:
    225c:	ffff5537          	lui	a0,0xffff5
    2260:	afd50513          	addi	a0,a0,-1283 # ffff4afd <immx+0x452e702d>
    2264:	00300593          	addi	a1,zero,3
    2268:	00b52633          	slt	a2,a0,a1
    226c:	5ac0ae23          	sw	a2,1468(ra)

00002270 <inst_397>:
    2270:	ffff5537          	lui	a0,0xffff5
    2274:	afd50513          	addi	a0,a0,-1283 # ffff4afd <immx+0x452e702d>
    2278:	555555b7          	lui	a1,0x55555
    227c:	55558593          	addi	a1,a1,1365 # 55555555 <absimm+0x10263026>
    2280:	00b52633          	slt	a2,a0,a1
    2284:	5cc0a023          	sw	a2,1472(ra)

00002288 <inst_398>:
    2288:	ffff5537          	lui	a0,0xffff5
    228c:	afd50513          	addi	a0,a0,-1283 # ffff4afd <immx+0x452e702d>
    2290:	aaaab5b7          	lui	a1,0xaaaab
    2294:	aaa58593          	addi	a1,a1,-1366 # aaaaaaaa <absimm+0x657b857b>
    2298:	00b52633          	slt	a2,a0,a1
    229c:	5cc0a223          	sw	a2,1476(ra)

000022a0 <inst_399>:
    22a0:	ffff5537          	lui	a0,0xffff5
    22a4:	afd50513          	addi	a0,a0,-1283 # ffff4afd <immx+0x452e702d>
    22a8:	00500593          	addi	a1,zero,5
    22ac:	00b52633          	slt	a2,a0,a1
    22b0:	5cc0a423          	sw	a2,1480(ra)

000022b4 <inst_400>:
    22b4:	ffff5537          	lui	a0,0xffff5
    22b8:	afd50513          	addi	a0,a0,-1283 # ffff4afd <immx+0x452e702d>
    22bc:	333335b7          	lui	a1,0x33333
    22c0:	33358593          	addi	a1,a1,819 # 33333333 <_end+0x3332972b>
    22c4:	00b52633          	slt	a2,a0,a1
    22c8:	5cc0a623          	sw	a2,1484(ra)

000022cc <inst_401>:
    22cc:	ffff5537          	lui	a0,0xffff5
    22d0:	afd50513          	addi	a0,a0,-1283 # ffff4afd <immx+0x452e702d>
    22d4:	666665b7          	lui	a1,0x66666
    22d8:	66658593          	addi	a1,a1,1638 # 66666666 <absimm+0x21374137>
    22dc:	00b52633          	slt	a2,a0,a1
    22e0:	5cc0a823          	sw	a2,1488(ra)

000022e4 <inst_402>:
    22e4:	ffff5537          	lui	a0,0xffff5
    22e8:	afd50513          	addi	a0,a0,-1283 # ffff4afd <immx+0x452e702d>
    22ec:	ffff55b7          	lui	a1,0xffff5
    22f0:	afc58593          	addi	a1,a1,-1284 # ffff4afc <immx+0x452e702c>
    22f4:	00b52633          	slt	a2,a0,a1
    22f8:	5cc0aa23          	sw	a2,1492(ra)

000022fc <inst_403>:
    22fc:	ffff5537          	lui	a0,0xffff5
    2300:	afd50513          	addi	a0,a0,-1283 # ffff4afd <immx+0x452e702d>
    2304:	0000b5b7          	lui	a1,0xb
    2308:	50458593          	addi	a1,a1,1284 # b504 <_end+0x18fc>
    230c:	00b52633          	slt	a2,a0,a1
    2310:	5cc0ac23          	sw	a2,1496(ra)

00002314 <inst_404>:
    2314:	ffff5537          	lui	a0,0xffff5
    2318:	afd50513          	addi	a0,a0,-1283 # ffff4afd <immx+0x452e702d>
    231c:	00200593          	addi	a1,zero,2
    2320:	00b52633          	slt	a2,a0,a1
    2324:	5cc0ae23          	sw	a2,1500(ra)

00002328 <inst_405>:
    2328:	ffff5537          	lui	a0,0xffff5
    232c:	afd50513          	addi	a0,a0,-1283 # ffff4afd <immx+0x452e702d>
    2330:	555555b7          	lui	a1,0x55555
    2334:	55458593          	addi	a1,a1,1364 # 55555554 <absimm+0x10263025>
    2338:	00b52633          	slt	a2,a0,a1
    233c:	5ec0a023          	sw	a2,1504(ra)

00002340 <inst_406>:
    2340:	ffff5537          	lui	a0,0xffff5
    2344:	afd50513          	addi	a0,a0,-1283 # ffff4afd <immx+0x452e702d>
    2348:	00000593          	addi	a1,zero,0
    234c:	00b52633          	slt	a2,a0,a1
    2350:	5ec0a223          	sw	a2,1508(ra)

00002354 <inst_407>:
    2354:	ffff5537          	lui	a0,0xffff5
    2358:	afd50513          	addi	a0,a0,-1283 # ffff4afd <immx+0x452e702d>
    235c:	00400593          	addi	a1,zero,4
    2360:	00b52633          	slt	a2,a0,a1
    2364:	5ec0a423          	sw	a2,1512(ra)

00002368 <inst_408>:
    2368:	ffff5537          	lui	a0,0xffff5
    236c:	afd50513          	addi	a0,a0,-1283 # ffff4afd <immx+0x452e702d>
    2370:	333335b7          	lui	a1,0x33333
    2374:	33258593          	addi	a1,a1,818 # 33333332 <_end+0x3332972a>
    2378:	00b52633          	slt	a2,a0,a1
    237c:	5ec0a623          	sw	a2,1516(ra)

00002380 <inst_409>:
    2380:	ffff5537          	lui	a0,0xffff5
    2384:	afd50513          	addi	a0,a0,-1283 # ffff4afd <immx+0x452e702d>
    2388:	666665b7          	lui	a1,0x66666
    238c:	66558593          	addi	a1,a1,1637 # 66666665 <absimm+0x21374136>
    2390:	00b52633          	slt	a2,a0,a1
    2394:	5ec0a823          	sw	a2,1520(ra)

00002398 <inst_410>:
    2398:	ffff5537          	lui	a0,0xffff5
    239c:	afd50513          	addi	a0,a0,-1283 # ffff4afd <immx+0x452e702d>
    23a0:	0000b5b7          	lui	a1,0xb
    23a4:	50358593          	addi	a1,a1,1283 # b503 <_end+0x18fb>
    23a8:	00b52633          	slt	a2,a0,a1
    23ac:	5ec0aa23          	sw	a2,1524(ra)

000023b0 <inst_411>:
    23b0:	ffff5537          	lui	a0,0xffff5
    23b4:	afd50513          	addi	a0,a0,-1283 # ffff4afd <immx+0x452e702d>
    23b8:	555555b7          	lui	a1,0x55555
    23bc:	55658593          	addi	a1,a1,1366 # 55555556 <absimm+0x10263027>
    23c0:	00b52633          	slt	a2,a0,a1
    23c4:	5ec0ac23          	sw	a2,1528(ra)

000023c8 <inst_412>:
    23c8:	ffff5537          	lui	a0,0xffff5
    23cc:	afd50513          	addi	a0,a0,-1283 # ffff4afd <immx+0x452e702d>
    23d0:	aaaab5b7          	lui	a1,0xaaaab
    23d4:	aab58593          	addi	a1,a1,-1365 # aaaaaaab <absimm+0x657b857c>
    23d8:	00b52633          	slt	a2,a0,a1
    23dc:	5ec0ae23          	sw	a2,1532(ra)

000023e0 <inst_413>:
    23e0:	ffff5537          	lui	a0,0xffff5
    23e4:	afd50513          	addi	a0,a0,-1283 # ffff4afd <immx+0x452e702d>
    23e8:	00600593          	addi	a1,zero,6
    23ec:	00b52633          	slt	a2,a0,a1
    23f0:	60c0a023          	sw	a2,1536(ra)

000023f4 <inst_414>:
    23f4:	ffff5537          	lui	a0,0xffff5
    23f8:	afd50513          	addi	a0,a0,-1283 # ffff4afd <immx+0x452e702d>
    23fc:	333335b7          	lui	a1,0x33333
    2400:	33458593          	addi	a1,a1,820 # 33333334 <_end+0x3332972c>
    2404:	00b52633          	slt	a2,a0,a1
    2408:	60c0a223          	sw	a2,1540(ra)

0000240c <inst_415>:
    240c:	ffff5537          	lui	a0,0xffff5
    2410:	afd50513          	addi	a0,a0,-1283 # ffff4afd <immx+0x452e702d>
    2414:	666665b7          	lui	a1,0x66666
    2418:	66758593          	addi	a1,a1,1639 # 66666667 <absimm+0x21374138>
    241c:	00b52633          	slt	a2,a0,a1
    2420:	60c0a423          	sw	a2,1544(ra)

00002424 <inst_416>:
    2424:	ffff5537          	lui	a0,0xffff5
    2428:	afd50513          	addi	a0,a0,-1283 # ffff4afd <immx+0x452e702d>
    242c:	ffff55b7          	lui	a1,0xffff5
    2430:	afd58593          	addi	a1,a1,-1283 # ffff4afd <immx+0x452e702d>
    2434:	00b52633          	slt	a2,a0,a1
    2438:	60c0a623          	sw	a2,1548(ra)

0000243c <inst_417>:
    243c:	ffff5537          	lui	a0,0xffff5
    2440:	afd50513          	addi	a0,a0,-1283 # ffff4afd <immx+0x452e702d>
    2444:	0000b5b7          	lui	a1,0xb
    2448:	50558593          	addi	a1,a1,1285 # b505 <_end+0x18fd>
    244c:	00b52633          	slt	a2,a0,a1
    2450:	60c0a823          	sw	a2,1552(ra)

00002454 <inst_418>:
    2454:	0000b537          	lui	a0,0xb
    2458:	50550513          	addi	a0,a0,1285 # b505 <_end+0x18fd>
    245c:	00300593          	addi	a1,zero,3
    2460:	00b52633          	slt	a2,a0,a1
    2464:	60c0aa23          	sw	a2,1556(ra)

00002468 <inst_419>:
    2468:	0000b537          	lui	a0,0xb
    246c:	50550513          	addi	a0,a0,1285 # b505 <_end+0x18fd>
    2470:	555555b7          	lui	a1,0x55555
    2474:	55558593          	addi	a1,a1,1365 # 55555555 <absimm+0x10263026>
    2478:	00b52633          	slt	a2,a0,a1
    247c:	60c0ac23          	sw	a2,1560(ra)

00002480 <inst_420>:
    2480:	0000b537          	lui	a0,0xb
    2484:	50550513          	addi	a0,a0,1285 # b505 <_end+0x18fd>
    2488:	aaaab5b7          	lui	a1,0xaaaab
    248c:	aaa58593          	addi	a1,a1,-1366 # aaaaaaaa <absimm+0x657b857b>
    2490:	00b52633          	slt	a2,a0,a1
    2494:	60c0ae23          	sw	a2,1564(ra)

00002498 <inst_421>:
    2498:	0000b537          	lui	a0,0xb
    249c:	50550513          	addi	a0,a0,1285 # b505 <_end+0x18fd>
    24a0:	00500593          	addi	a1,zero,5
    24a4:	00b52633          	slt	a2,a0,a1
    24a8:	62c0a023          	sw	a2,1568(ra)

000024ac <inst_422>:
    24ac:	0000b537          	lui	a0,0xb
    24b0:	50550513          	addi	a0,a0,1285 # b505 <_end+0x18fd>
    24b4:	333335b7          	lui	a1,0x33333
    24b8:	33358593          	addi	a1,a1,819 # 33333333 <_end+0x3332972b>
    24bc:	00b52633          	slt	a2,a0,a1
    24c0:	62c0a223          	sw	a2,1572(ra)

000024c4 <inst_423>:
    24c4:	0000b537          	lui	a0,0xb
    24c8:	50550513          	addi	a0,a0,1285 # b505 <_end+0x18fd>
    24cc:	666665b7          	lui	a1,0x66666
    24d0:	66658593          	addi	a1,a1,1638 # 66666666 <absimm+0x21374137>
    24d4:	00b52633          	slt	a2,a0,a1
    24d8:	62c0a423          	sw	a2,1576(ra)

000024dc <inst_424>:
    24dc:	0000b537          	lui	a0,0xb
    24e0:	50550513          	addi	a0,a0,1285 # b505 <_end+0x18fd>
    24e4:	ffff55b7          	lui	a1,0xffff5
    24e8:	afc58593          	addi	a1,a1,-1284 # ffff4afc <immx+0x452e702c>
    24ec:	00b52633          	slt	a2,a0,a1
    24f0:	62c0a623          	sw	a2,1580(ra)

000024f4 <inst_425>:
    24f4:	0000b537          	lui	a0,0xb
    24f8:	50550513          	addi	a0,a0,1285 # b505 <_end+0x18fd>
    24fc:	0000b5b7          	lui	a1,0xb
    2500:	50458593          	addi	a1,a1,1284 # b504 <_end+0x18fc>
    2504:	00b52633          	slt	a2,a0,a1
    2508:	62c0a823          	sw	a2,1584(ra)

0000250c <inst_426>:
    250c:	0000b537          	lui	a0,0xb
    2510:	50550513          	addi	a0,a0,1285 # b505 <_end+0x18fd>
    2514:	00200593          	addi	a1,zero,2
    2518:	00b52633          	slt	a2,a0,a1
    251c:	62c0aa23          	sw	a2,1588(ra)

00002520 <inst_427>:
    2520:	0000b537          	lui	a0,0xb
    2524:	50550513          	addi	a0,a0,1285 # b505 <_end+0x18fd>
    2528:	555555b7          	lui	a1,0x55555
    252c:	55458593          	addi	a1,a1,1364 # 55555554 <absimm+0x10263025>
    2530:	00b52633          	slt	a2,a0,a1
    2534:	62c0ac23          	sw	a2,1592(ra)

00002538 <inst_428>:
    2538:	0000b537          	lui	a0,0xb
    253c:	50550513          	addi	a0,a0,1285 # b505 <_end+0x18fd>
    2540:	00000593          	addi	a1,zero,0
    2544:	00b52633          	slt	a2,a0,a1
    2548:	62c0ae23          	sw	a2,1596(ra)

0000254c <inst_429>:
    254c:	0000b537          	lui	a0,0xb
    2550:	50550513          	addi	a0,a0,1285 # b505 <_end+0x18fd>
    2554:	00400593          	addi	a1,zero,4
    2558:	00b52633          	slt	a2,a0,a1
    255c:	64c0a023          	sw	a2,1600(ra)

00002560 <inst_430>:
    2560:	0000b537          	lui	a0,0xb
    2564:	50550513          	addi	a0,a0,1285 # b505 <_end+0x18fd>
    2568:	333335b7          	lui	a1,0x33333
    256c:	33258593          	addi	a1,a1,818 # 33333332 <_end+0x3332972a>
    2570:	00b52633          	slt	a2,a0,a1
    2574:	64c0a223          	sw	a2,1604(ra)

00002578 <inst_431>:
    2578:	0000b537          	lui	a0,0xb
    257c:	50550513          	addi	a0,a0,1285 # b505 <_end+0x18fd>
    2580:	666665b7          	lui	a1,0x66666
    2584:	66558593          	addi	a1,a1,1637 # 66666665 <absimm+0x21374136>
    2588:	00b52633          	slt	a2,a0,a1
    258c:	64c0a423          	sw	a2,1608(ra)

00002590 <inst_432>:
    2590:	0000b537          	lui	a0,0xb
    2594:	50550513          	addi	a0,a0,1285 # b505 <_end+0x18fd>
    2598:	0000b5b7          	lui	a1,0xb
    259c:	50358593          	addi	a1,a1,1283 # b503 <_end+0x18fb>
    25a0:	00b52633          	slt	a2,a0,a1
    25a4:	64c0a623          	sw	a2,1612(ra)

000025a8 <inst_433>:
    25a8:	0000b537          	lui	a0,0xb
    25ac:	50550513          	addi	a0,a0,1285 # b505 <_end+0x18fd>
    25b0:	555555b7          	lui	a1,0x55555
    25b4:	55658593          	addi	a1,a1,1366 # 55555556 <absimm+0x10263027>
    25b8:	00b52633          	slt	a2,a0,a1
    25bc:	64c0a823          	sw	a2,1616(ra)

000025c0 <inst_434>:
    25c0:	0000b537          	lui	a0,0xb
    25c4:	50550513          	addi	a0,a0,1285 # b505 <_end+0x18fd>
    25c8:	aaaab5b7          	lui	a1,0xaaaab
    25cc:	aab58593          	addi	a1,a1,-1365 # aaaaaaab <absimm+0x657b857c>
    25d0:	00b52633          	slt	a2,a0,a1
    25d4:	64c0aa23          	sw	a2,1620(ra)

000025d8 <inst_435>:
    25d8:	0000b537          	lui	a0,0xb
    25dc:	50550513          	addi	a0,a0,1285 # b505 <_end+0x18fd>
    25e0:	00600593          	addi	a1,zero,6
    25e4:	00b52633          	slt	a2,a0,a1
    25e8:	64c0ac23          	sw	a2,1624(ra)

000025ec <inst_436>:
    25ec:	0000b537          	lui	a0,0xb
    25f0:	50550513          	addi	a0,a0,1285 # b505 <_end+0x18fd>
    25f4:	333335b7          	lui	a1,0x33333
    25f8:	33458593          	addi	a1,a1,820 # 33333334 <_end+0x3332972c>
    25fc:	00b52633          	slt	a2,a0,a1
    2600:	64c0ae23          	sw	a2,1628(ra)

00002604 <inst_437>:
    2604:	0000b537          	lui	a0,0xb
    2608:	50550513          	addi	a0,a0,1285 # b505 <_end+0x18fd>
    260c:	666665b7          	lui	a1,0x66666
    2610:	66758593          	addi	a1,a1,1639 # 66666667 <absimm+0x21374138>
    2614:	00b52633          	slt	a2,a0,a1
    2618:	66c0a023          	sw	a2,1632(ra)

0000261c <inst_438>:
    261c:	0000b537          	lui	a0,0xb
    2620:	50550513          	addi	a0,a0,1285 # b505 <_end+0x18fd>
    2624:	ffff55b7          	lui	a1,0xffff5
    2628:	afd58593          	addi	a1,a1,-1283 # ffff4afd <immx+0x452e702d>
    262c:	00b52633          	slt	a2,a0,a1
    2630:	66c0a223          	sw	a2,1636(ra)

00002634 <inst_439>:
    2634:	0000b537          	lui	a0,0xb
    2638:	50550513          	addi	a0,a0,1285 # b505 <_end+0x18fd>
    263c:	0000b5b7          	lui	a1,0xb
    2640:	50558593          	addi	a1,a1,1285 # b505 <_end+0x18fd>
    2644:	00b52633          	slt	a2,a0,a1
    2648:	66c0a423          	sw	a2,1640(ra)

0000264c <inst_440>:
    264c:	00000513          	addi	a0,zero,0
    2650:	00200593          	addi	a1,zero,2
    2654:	00b52633          	slt	a2,a0,a1
    2658:	66c0a623          	sw	a2,1644(ra)

0000265c <inst_441>:
    265c:	00000513          	addi	a0,zero,0
    2660:	555555b7          	lui	a1,0x55555
    2664:	55458593          	addi	a1,a1,1364 # 55555554 <absimm+0x10263025>
    2668:	00b52633          	slt	a2,a0,a1
    266c:	66c0a823          	sw	a2,1648(ra)

00002670 <inst_442>:
    2670:	00000513          	addi	a0,zero,0
    2674:	00000593          	addi	a1,zero,0
    2678:	00b52633          	slt	a2,a0,a1
    267c:	66c0aa23          	sw	a2,1652(ra)

00002680 <inst_443>:
    2680:	00000513          	addi	a0,zero,0
    2684:	00400593          	addi	a1,zero,4
    2688:	00b52633          	slt	a2,a0,a1
    268c:	66c0ac23          	sw	a2,1656(ra)

00002690 <inst_444>:
    2690:	00000513          	addi	a0,zero,0
    2694:	333335b7          	lui	a1,0x33333
    2698:	33258593          	addi	a1,a1,818 # 33333332 <_end+0x3332972a>
    269c:	00b52633          	slt	a2,a0,a1
    26a0:	66c0ae23          	sw	a2,1660(ra)

000026a4 <inst_445>:
    26a4:	00000513          	addi	a0,zero,0
    26a8:	666665b7          	lui	a1,0x66666
    26ac:	66558593          	addi	a1,a1,1637 # 66666665 <absimm+0x21374136>
    26b0:	00b52633          	slt	a2,a0,a1
    26b4:	68c0a023          	sw	a2,1664(ra)

000026b8 <inst_446>:
    26b8:	00000513          	addi	a0,zero,0
    26bc:	0000b5b7          	lui	a1,0xb
    26c0:	50358593          	addi	a1,a1,1283 # b503 <_end+0x18fb>
    26c4:	00b52633          	slt	a2,a0,a1
    26c8:	68c0a223          	sw	a2,1668(ra)

000026cc <inst_447>:
    26cc:	00000513          	addi	a0,zero,0
    26d0:	555555b7          	lui	a1,0x55555
    26d4:	55658593          	addi	a1,a1,1366 # 55555556 <absimm+0x10263027>
    26d8:	00b52633          	slt	a2,a0,a1
    26dc:	68c0a423          	sw	a2,1672(ra)

000026e0 <inst_448>:
    26e0:	00000513          	addi	a0,zero,0
    26e4:	aaaab5b7          	lui	a1,0xaaaab
    26e8:	aab58593          	addi	a1,a1,-1365 # aaaaaaab <absimm+0x657b857c>
    26ec:	00b52633          	slt	a2,a0,a1
    26f0:	68c0a623          	sw	a2,1676(ra)

000026f4 <inst_449>:
    26f4:	00000513          	addi	a0,zero,0
    26f8:	00600593          	addi	a1,zero,6
    26fc:	00b52633          	slt	a2,a0,a1
    2700:	68c0a823          	sw	a2,1680(ra)

00002704 <inst_450>:
    2704:	00000513          	addi	a0,zero,0
    2708:	333335b7          	lui	a1,0x33333
    270c:	33458593          	addi	a1,a1,820 # 33333334 <_end+0x3332972c>
    2710:	00b52633          	slt	a2,a0,a1
    2714:	68c0aa23          	sw	a2,1684(ra)

00002718 <inst_451>:
    2718:	00000513          	addi	a0,zero,0
    271c:	666665b7          	lui	a1,0x66666
    2720:	66758593          	addi	a1,a1,1639 # 66666667 <absimm+0x21374138>
    2724:	00b52633          	slt	a2,a0,a1
    2728:	68c0ac23          	sw	a2,1688(ra)

0000272c <inst_452>:
    272c:	00000513          	addi	a0,zero,0
    2730:	ffff55b7          	lui	a1,0xffff5
    2734:	afd58593          	addi	a1,a1,-1283 # ffff4afd <immx+0x452e702d>
    2738:	00b52633          	slt	a2,a0,a1
    273c:	68c0ae23          	sw	a2,1692(ra)

00002740 <inst_453>:
    2740:	00000513          	addi	a0,zero,0
    2744:	0000b5b7          	lui	a1,0xb
    2748:	50558593          	addi	a1,a1,1285 # b505 <_end+0x18fd>
    274c:	00b52633          	slt	a2,a0,a1
    2750:	6ac0a023          	sw	a2,1696(ra)

00002754 <inst_454>:
    2754:	00400513          	addi	a0,zero,4
    2758:	00300593          	addi	a1,zero,3
    275c:	00b52633          	slt	a2,a0,a1
    2760:	6ac0a223          	sw	a2,1700(ra)

00002764 <inst_455>:
    2764:	00400513          	addi	a0,zero,4
    2768:	555555b7          	lui	a1,0x55555
    276c:	55558593          	addi	a1,a1,1365 # 55555555 <absimm+0x10263026>
    2770:	00b52633          	slt	a2,a0,a1
    2774:	6ac0a423          	sw	a2,1704(ra)

00002778 <inst_456>:
    2778:	00400513          	addi	a0,zero,4
    277c:	aaaab5b7          	lui	a1,0xaaaab
    2780:	aaa58593          	addi	a1,a1,-1366 # aaaaaaaa <absimm+0x657b857b>
    2784:	00b52633          	slt	a2,a0,a1
    2788:	6ac0a623          	sw	a2,1708(ra)

0000278c <inst_457>:
    278c:	00400513          	addi	a0,zero,4
    2790:	00500593          	addi	a1,zero,5
    2794:	00b52633          	slt	a2,a0,a1
    2798:	6ac0a823          	sw	a2,1712(ra)

0000279c <inst_458>:
    279c:	00400513          	addi	a0,zero,4
    27a0:	333335b7          	lui	a1,0x33333
    27a4:	33358593          	addi	a1,a1,819 # 33333333 <_end+0x3332972b>
    27a8:	00b52633          	slt	a2,a0,a1
    27ac:	6ac0aa23          	sw	a2,1716(ra)

000027b0 <inst_459>:
    27b0:	00400513          	addi	a0,zero,4
    27b4:	666665b7          	lui	a1,0x66666
    27b8:	66658593          	addi	a1,a1,1638 # 66666666 <absimm+0x21374137>
    27bc:	00b52633          	slt	a2,a0,a1
    27c0:	6ac0ac23          	sw	a2,1720(ra)

000027c4 <inst_460>:
    27c4:	00400513          	addi	a0,zero,4
    27c8:	ffff55b7          	lui	a1,0xffff5
    27cc:	afc58593          	addi	a1,a1,-1284 # ffff4afc <immx+0x452e702c>
    27d0:	00b52633          	slt	a2,a0,a1
    27d4:	6ac0ae23          	sw	a2,1724(ra)

000027d8 <inst_461>:
    27d8:	00400513          	addi	a0,zero,4
    27dc:	0000b5b7          	lui	a1,0xb
    27e0:	50458593          	addi	a1,a1,1284 # b504 <_end+0x18fc>
    27e4:	00b52633          	slt	a2,a0,a1
    27e8:	6cc0a023          	sw	a2,1728(ra)

000027ec <inst_462>:
    27ec:	00400513          	addi	a0,zero,4
    27f0:	00200593          	addi	a1,zero,2
    27f4:	00b52633          	slt	a2,a0,a1
    27f8:	6cc0a223          	sw	a2,1732(ra)

000027fc <inst_463>:
    27fc:	00400513          	addi	a0,zero,4
    2800:	555555b7          	lui	a1,0x55555
    2804:	55458593          	addi	a1,a1,1364 # 55555554 <absimm+0x10263025>
    2808:	00b52633          	slt	a2,a0,a1
    280c:	6cc0a423          	sw	a2,1736(ra)

00002810 <inst_464>:
    2810:	00400513          	addi	a0,zero,4
    2814:	00000593          	addi	a1,zero,0
    2818:	00b52633          	slt	a2,a0,a1
    281c:	6cc0a623          	sw	a2,1740(ra)

00002820 <inst_465>:
    2820:	00400513          	addi	a0,zero,4
    2824:	00400593          	addi	a1,zero,4
    2828:	00b52633          	slt	a2,a0,a1
    282c:	6cc0a823          	sw	a2,1744(ra)

00002830 <inst_466>:
    2830:	00400513          	addi	a0,zero,4
    2834:	333335b7          	lui	a1,0x33333
    2838:	33258593          	addi	a1,a1,818 # 33333332 <_end+0x3332972a>
    283c:	00b52633          	slt	a2,a0,a1
    2840:	6cc0aa23          	sw	a2,1748(ra)

00002844 <inst_467>:
    2844:	00400513          	addi	a0,zero,4
    2848:	666665b7          	lui	a1,0x66666
    284c:	66558593          	addi	a1,a1,1637 # 66666665 <absimm+0x21374136>
    2850:	00b52633          	slt	a2,a0,a1
    2854:	6cc0ac23          	sw	a2,1752(ra)

00002858 <inst_468>:
    2858:	00400513          	addi	a0,zero,4
    285c:	0000b5b7          	lui	a1,0xb
    2860:	50358593          	addi	a1,a1,1283 # b503 <_end+0x18fb>
    2864:	00b52633          	slt	a2,a0,a1
    2868:	6cc0ae23          	sw	a2,1756(ra)

0000286c <inst_469>:
    286c:	00400513          	addi	a0,zero,4
    2870:	555555b7          	lui	a1,0x55555
    2874:	55658593          	addi	a1,a1,1366 # 55555556 <absimm+0x10263027>
    2878:	00b52633          	slt	a2,a0,a1
    287c:	6ec0a023          	sw	a2,1760(ra)

00002880 <inst_470>:
    2880:	00400513          	addi	a0,zero,4
    2884:	aaaab5b7          	lui	a1,0xaaaab
    2888:	aab58593          	addi	a1,a1,-1365 # aaaaaaab <absimm+0x657b857c>
    288c:	00b52633          	slt	a2,a0,a1
    2890:	6ec0a223          	sw	a2,1764(ra)

00002894 <inst_471>:
    2894:	00400513          	addi	a0,zero,4
    2898:	00600593          	addi	a1,zero,6
    289c:	00b52633          	slt	a2,a0,a1
    28a0:	6ec0a423          	sw	a2,1768(ra)

000028a4 <inst_472>:
    28a4:	00400513          	addi	a0,zero,4
    28a8:	333335b7          	lui	a1,0x33333
    28ac:	33458593          	addi	a1,a1,820 # 33333334 <_end+0x3332972c>
    28b0:	00b52633          	slt	a2,a0,a1
    28b4:	6ec0a623          	sw	a2,1772(ra)

000028b8 <inst_473>:
    28b8:	00400513          	addi	a0,zero,4
    28bc:	666665b7          	lui	a1,0x66666
    28c0:	66758593          	addi	a1,a1,1639 # 66666667 <absimm+0x21374138>
    28c4:	00b52633          	slt	a2,a0,a1
    28c8:	6ec0a823          	sw	a2,1776(ra)

000028cc <inst_474>:
    28cc:	00400513          	addi	a0,zero,4
    28d0:	ffff55b7          	lui	a1,0xffff5
    28d4:	afd58593          	addi	a1,a1,-1283 # ffff4afd <immx+0x452e702d>
    28d8:	00b52633          	slt	a2,a0,a1
    28dc:	6ec0aa23          	sw	a2,1780(ra)

000028e0 <inst_475>:
    28e0:	00400513          	addi	a0,zero,4
    28e4:	0000b5b7          	lui	a1,0xb
    28e8:	50558593          	addi	a1,a1,1285 # b505 <_end+0x18fd>
    28ec:	00b52633          	slt	a2,a0,a1
    28f0:	6ec0ac23          	sw	a2,1784(ra)

000028f4 <inst_476>:
    28f4:	33333537          	lui	a0,0x33333
    28f8:	33250513          	addi	a0,a0,818 # 33333332 <_end+0x3332972a>
    28fc:	00300593          	addi	a1,zero,3
    2900:	00b52633          	slt	a2,a0,a1
    2904:	6ec0ae23          	sw	a2,1788(ra)

00002908 <inst_477>:
    2908:	33333537          	lui	a0,0x33333
    290c:	33250513          	addi	a0,a0,818 # 33333332 <_end+0x3332972a>
    2910:	555555b7          	lui	a1,0x55555
    2914:	55558593          	addi	a1,a1,1365 # 55555555 <absimm+0x10263026>
    2918:	00b52633          	slt	a2,a0,a1
    291c:	70c0a023          	sw	a2,1792(ra)

00002920 <inst_478>:
    2920:	33333537          	lui	a0,0x33333
    2924:	33250513          	addi	a0,a0,818 # 33333332 <_end+0x3332972a>
    2928:	aaaab5b7          	lui	a1,0xaaaab
    292c:	aaa58593          	addi	a1,a1,-1366 # aaaaaaaa <absimm+0x657b857b>
    2930:	00b52633          	slt	a2,a0,a1
    2934:	70c0a223          	sw	a2,1796(ra)

00002938 <inst_479>:
    2938:	33333537          	lui	a0,0x33333
    293c:	33250513          	addi	a0,a0,818 # 33333332 <_end+0x3332972a>
    2940:	00500593          	addi	a1,zero,5
    2944:	00b52633          	slt	a2,a0,a1
    2948:	70c0a423          	sw	a2,1800(ra)

0000294c <inst_480>:
    294c:	33333537          	lui	a0,0x33333
    2950:	33250513          	addi	a0,a0,818 # 33333332 <_end+0x3332972a>
    2954:	333335b7          	lui	a1,0x33333
    2958:	33358593          	addi	a1,a1,819 # 33333333 <_end+0x3332972b>
    295c:	00b52633          	slt	a2,a0,a1
    2960:	70c0a623          	sw	a2,1804(ra)

00002964 <inst_481>:
    2964:	33333537          	lui	a0,0x33333
    2968:	33250513          	addi	a0,a0,818 # 33333332 <_end+0x3332972a>
    296c:	666665b7          	lui	a1,0x66666
    2970:	66658593          	addi	a1,a1,1638 # 66666666 <absimm+0x21374137>
    2974:	00b52633          	slt	a2,a0,a1
    2978:	70c0a823          	sw	a2,1808(ra)

0000297c <inst_482>:
    297c:	33333537          	lui	a0,0x33333
    2980:	33250513          	addi	a0,a0,818 # 33333332 <_end+0x3332972a>
    2984:	ffff55b7          	lui	a1,0xffff5
    2988:	afc58593          	addi	a1,a1,-1284 # ffff4afc <immx+0x452e702c>
    298c:	00b52633          	slt	a2,a0,a1
    2990:	70c0aa23          	sw	a2,1812(ra)

00002994 <inst_483>:
    2994:	33333537          	lui	a0,0x33333
    2998:	33250513          	addi	a0,a0,818 # 33333332 <_end+0x3332972a>
    299c:	0000b5b7          	lui	a1,0xb
    29a0:	50458593          	addi	a1,a1,1284 # b504 <_end+0x18fc>
    29a4:	00b52633          	slt	a2,a0,a1
    29a8:	70c0ac23          	sw	a2,1816(ra)

000029ac <inst_484>:
    29ac:	33333537          	lui	a0,0x33333
    29b0:	33250513          	addi	a0,a0,818 # 33333332 <_end+0x3332972a>
    29b4:	00200593          	addi	a1,zero,2
    29b8:	00b52633          	slt	a2,a0,a1
    29bc:	70c0ae23          	sw	a2,1820(ra)

000029c0 <inst_485>:
    29c0:	33333537          	lui	a0,0x33333
    29c4:	33250513          	addi	a0,a0,818 # 33333332 <_end+0x3332972a>
    29c8:	555555b7          	lui	a1,0x55555
    29cc:	55458593          	addi	a1,a1,1364 # 55555554 <absimm+0x10263025>
    29d0:	00b52633          	slt	a2,a0,a1
    29d4:	72c0a023          	sw	a2,1824(ra)

000029d8 <inst_486>:
    29d8:	33333537          	lui	a0,0x33333
    29dc:	33250513          	addi	a0,a0,818 # 33333332 <_end+0x3332972a>
    29e0:	00000593          	addi	a1,zero,0
    29e4:	00b52633          	slt	a2,a0,a1
    29e8:	72c0a223          	sw	a2,1828(ra)

000029ec <inst_487>:
    29ec:	33333537          	lui	a0,0x33333
    29f0:	33250513          	addi	a0,a0,818 # 33333332 <_end+0x3332972a>
    29f4:	00400593          	addi	a1,zero,4
    29f8:	00b52633          	slt	a2,a0,a1
    29fc:	72c0a423          	sw	a2,1832(ra)

00002a00 <inst_488>:
    2a00:	33333537          	lui	a0,0x33333
    2a04:	33250513          	addi	a0,a0,818 # 33333332 <_end+0x3332972a>
    2a08:	333335b7          	lui	a1,0x33333
    2a0c:	33258593          	addi	a1,a1,818 # 33333332 <_end+0x3332972a>
    2a10:	00b52633          	slt	a2,a0,a1
    2a14:	72c0a623          	sw	a2,1836(ra)

00002a18 <inst_489>:
    2a18:	33333537          	lui	a0,0x33333
    2a1c:	33250513          	addi	a0,a0,818 # 33333332 <_end+0x3332972a>
    2a20:	666665b7          	lui	a1,0x66666
    2a24:	66558593          	addi	a1,a1,1637 # 66666665 <absimm+0x21374136>
    2a28:	00b52633          	slt	a2,a0,a1
    2a2c:	72c0a823          	sw	a2,1840(ra)

00002a30 <inst_490>:
    2a30:	33333537          	lui	a0,0x33333
    2a34:	33250513          	addi	a0,a0,818 # 33333332 <_end+0x3332972a>
    2a38:	0000b5b7          	lui	a1,0xb
    2a3c:	50358593          	addi	a1,a1,1283 # b503 <_end+0x18fb>
    2a40:	00b52633          	slt	a2,a0,a1
    2a44:	72c0aa23          	sw	a2,1844(ra)

00002a48 <inst_491>:
    2a48:	33333537          	lui	a0,0x33333
    2a4c:	33250513          	addi	a0,a0,818 # 33333332 <_end+0x3332972a>
    2a50:	555555b7          	lui	a1,0x55555
    2a54:	55658593          	addi	a1,a1,1366 # 55555556 <absimm+0x10263027>
    2a58:	00b52633          	slt	a2,a0,a1
    2a5c:	72c0ac23          	sw	a2,1848(ra)

00002a60 <inst_492>:
    2a60:	33333537          	lui	a0,0x33333
    2a64:	33250513          	addi	a0,a0,818 # 33333332 <_end+0x3332972a>
    2a68:	aaaab5b7          	lui	a1,0xaaaab
    2a6c:	aab58593          	addi	a1,a1,-1365 # aaaaaaab <absimm+0x657b857c>
    2a70:	00b52633          	slt	a2,a0,a1
    2a74:	72c0ae23          	sw	a2,1852(ra)

00002a78 <inst_493>:
    2a78:	33333537          	lui	a0,0x33333
    2a7c:	33250513          	addi	a0,a0,818 # 33333332 <_end+0x3332972a>
    2a80:	00600593          	addi	a1,zero,6
    2a84:	00b52633          	slt	a2,a0,a1
    2a88:	74c0a023          	sw	a2,1856(ra)

00002a8c <inst_494>:
    2a8c:	33333537          	lui	a0,0x33333
    2a90:	33250513          	addi	a0,a0,818 # 33333332 <_end+0x3332972a>
    2a94:	333335b7          	lui	a1,0x33333
    2a98:	33458593          	addi	a1,a1,820 # 33333334 <_end+0x3332972c>
    2a9c:	00b52633          	slt	a2,a0,a1
    2aa0:	74c0a223          	sw	a2,1860(ra)

00002aa4 <inst_495>:
    2aa4:	33333537          	lui	a0,0x33333
    2aa8:	33250513          	addi	a0,a0,818 # 33333332 <_end+0x3332972a>
    2aac:	666665b7          	lui	a1,0x66666
    2ab0:	66758593          	addi	a1,a1,1639 # 66666667 <absimm+0x21374138>
    2ab4:	00b52633          	slt	a2,a0,a1
    2ab8:	74c0a423          	sw	a2,1864(ra)

00002abc <inst_496>:
    2abc:	33333537          	lui	a0,0x33333
    2ac0:	33250513          	addi	a0,a0,818 # 33333332 <_end+0x3332972a>
    2ac4:	ffff55b7          	lui	a1,0xffff5
    2ac8:	afd58593          	addi	a1,a1,-1283 # ffff4afd <immx+0x452e702d>
    2acc:	00b52633          	slt	a2,a0,a1
    2ad0:	74c0a623          	sw	a2,1868(ra)

00002ad4 <inst_497>:
    2ad4:	33333537          	lui	a0,0x33333
    2ad8:	33250513          	addi	a0,a0,818 # 33333332 <_end+0x3332972a>
    2adc:	0000b5b7          	lui	a1,0xb
    2ae0:	50558593          	addi	a1,a1,1285 # b505 <_end+0x18fd>
    2ae4:	00b52633          	slt	a2,a0,a1
    2ae8:	74c0a823          	sw	a2,1872(ra)

00002aec <inst_498>:
    2aec:	66666537          	lui	a0,0x66666
    2af0:	66550513          	addi	a0,a0,1637 # 66666665 <absimm+0x21374136>
    2af4:	00300593          	addi	a1,zero,3
    2af8:	00b52633          	slt	a2,a0,a1
    2afc:	74c0aa23          	sw	a2,1876(ra)

00002b00 <inst_499>:
    2b00:	66666537          	lui	a0,0x66666
    2b04:	66550513          	addi	a0,a0,1637 # 66666665 <absimm+0x21374136>
    2b08:	555555b7          	lui	a1,0x55555
    2b0c:	55558593          	addi	a1,a1,1365 # 55555555 <absimm+0x10263026>
    2b10:	00b52633          	slt	a2,a0,a1
    2b14:	74c0ac23          	sw	a2,1880(ra)

00002b18 <inst_500>:
    2b18:	66666537          	lui	a0,0x66666
    2b1c:	66550513          	addi	a0,a0,1637 # 66666665 <absimm+0x21374136>
    2b20:	aaaab5b7          	lui	a1,0xaaaab
    2b24:	aaa58593          	addi	a1,a1,-1366 # aaaaaaaa <absimm+0x657b857b>
    2b28:	00b52633          	slt	a2,a0,a1
    2b2c:	74c0ae23          	sw	a2,1884(ra)

00002b30 <inst_501>:
    2b30:	66666537          	lui	a0,0x66666
    2b34:	66550513          	addi	a0,a0,1637 # 66666665 <absimm+0x21374136>
    2b38:	00500593          	addi	a1,zero,5
    2b3c:	00b52633          	slt	a2,a0,a1
    2b40:	76c0a023          	sw	a2,1888(ra)

00002b44 <inst_502>:
    2b44:	66666537          	lui	a0,0x66666
    2b48:	66550513          	addi	a0,a0,1637 # 66666665 <absimm+0x21374136>
    2b4c:	333335b7          	lui	a1,0x33333
    2b50:	33358593          	addi	a1,a1,819 # 33333333 <_end+0x3332972b>
    2b54:	00b52633          	slt	a2,a0,a1
    2b58:	76c0a223          	sw	a2,1892(ra)

00002b5c <inst_503>:
    2b5c:	66666537          	lui	a0,0x66666
    2b60:	66550513          	addi	a0,a0,1637 # 66666665 <absimm+0x21374136>
    2b64:	666665b7          	lui	a1,0x66666
    2b68:	66658593          	addi	a1,a1,1638 # 66666666 <absimm+0x21374137>
    2b6c:	00b52633          	slt	a2,a0,a1
    2b70:	76c0a423          	sw	a2,1896(ra)

00002b74 <inst_504>:
    2b74:	66666537          	lui	a0,0x66666
    2b78:	66550513          	addi	a0,a0,1637 # 66666665 <absimm+0x21374136>
    2b7c:	ffff55b7          	lui	a1,0xffff5
    2b80:	afc58593          	addi	a1,a1,-1284 # ffff4afc <immx+0x452e702c>
    2b84:	00b52633          	slt	a2,a0,a1
    2b88:	76c0a623          	sw	a2,1900(ra)

00002b8c <inst_505>:
    2b8c:	66666537          	lui	a0,0x66666
    2b90:	66550513          	addi	a0,a0,1637 # 66666665 <absimm+0x21374136>
    2b94:	0000b5b7          	lui	a1,0xb
    2b98:	50458593          	addi	a1,a1,1284 # b504 <_end+0x18fc>
    2b9c:	00b52633          	slt	a2,a0,a1
    2ba0:	76c0a823          	sw	a2,1904(ra)

00002ba4 <inst_506>:
    2ba4:	66666537          	lui	a0,0x66666
    2ba8:	66550513          	addi	a0,a0,1637 # 66666665 <absimm+0x21374136>
    2bac:	00200593          	addi	a1,zero,2
    2bb0:	00b52633          	slt	a2,a0,a1
    2bb4:	76c0aa23          	sw	a2,1908(ra)

00002bb8 <inst_507>:
    2bb8:	66666537          	lui	a0,0x66666
    2bbc:	66550513          	addi	a0,a0,1637 # 66666665 <absimm+0x21374136>
    2bc0:	555555b7          	lui	a1,0x55555
    2bc4:	55458593          	addi	a1,a1,1364 # 55555554 <absimm+0x10263025>
    2bc8:	00b52633          	slt	a2,a0,a1
    2bcc:	76c0ac23          	sw	a2,1912(ra)

00002bd0 <inst_508>:
    2bd0:	66666537          	lui	a0,0x66666
    2bd4:	66550513          	addi	a0,a0,1637 # 66666665 <absimm+0x21374136>
    2bd8:	00000593          	addi	a1,zero,0
    2bdc:	00b52633          	slt	a2,a0,a1
    2be0:	76c0ae23          	sw	a2,1916(ra)

00002be4 <inst_509>:
    2be4:	66666537          	lui	a0,0x66666
    2be8:	66550513          	addi	a0,a0,1637 # 66666665 <absimm+0x21374136>
    2bec:	00400593          	addi	a1,zero,4
    2bf0:	00b52633          	slt	a2,a0,a1
    2bf4:	78c0a023          	sw	a2,1920(ra)

00002bf8 <inst_510>:
    2bf8:	66666537          	lui	a0,0x66666
    2bfc:	66550513          	addi	a0,a0,1637 # 66666665 <absimm+0x21374136>
    2c00:	333335b7          	lui	a1,0x33333
    2c04:	33258593          	addi	a1,a1,818 # 33333332 <_end+0x3332972a>
    2c08:	00b52633          	slt	a2,a0,a1
    2c0c:	78c0a223          	sw	a2,1924(ra)

00002c10 <inst_511>:
    2c10:	66666537          	lui	a0,0x66666
    2c14:	66550513          	addi	a0,a0,1637 # 66666665 <absimm+0x21374136>
    2c18:	666665b7          	lui	a1,0x66666
    2c1c:	66558593          	addi	a1,a1,1637 # 66666665 <absimm+0x21374136>
    2c20:	00b52633          	slt	a2,a0,a1
    2c24:	78c0a423          	sw	a2,1928(ra)

00002c28 <inst_512>:
    2c28:	66666537          	lui	a0,0x66666
    2c2c:	66550513          	addi	a0,a0,1637 # 66666665 <absimm+0x21374136>
    2c30:	0000b5b7          	lui	a1,0xb
    2c34:	50358593          	addi	a1,a1,1283 # b503 <_end+0x18fb>
    2c38:	00b52633          	slt	a2,a0,a1
    2c3c:	78c0a623          	sw	a2,1932(ra)

00002c40 <inst_513>:
    2c40:	66666537          	lui	a0,0x66666
    2c44:	66550513          	addi	a0,a0,1637 # 66666665 <absimm+0x21374136>
    2c48:	555555b7          	lui	a1,0x55555
    2c4c:	55658593          	addi	a1,a1,1366 # 55555556 <absimm+0x10263027>
    2c50:	00b52633          	slt	a2,a0,a1
    2c54:	78c0a823          	sw	a2,1936(ra)

00002c58 <inst_514>:
    2c58:	66666537          	lui	a0,0x66666
    2c5c:	66550513          	addi	a0,a0,1637 # 66666665 <absimm+0x21374136>
    2c60:	aaaab5b7          	lui	a1,0xaaaab
    2c64:	aab58593          	addi	a1,a1,-1365 # aaaaaaab <absimm+0x657b857c>
    2c68:	00b52633          	slt	a2,a0,a1
    2c6c:	78c0aa23          	sw	a2,1940(ra)

00002c70 <inst_515>:
    2c70:	66666537          	lui	a0,0x66666
    2c74:	66550513          	addi	a0,a0,1637 # 66666665 <absimm+0x21374136>
    2c78:	00600593          	addi	a1,zero,6
    2c7c:	00b52633          	slt	a2,a0,a1
    2c80:	78c0ac23          	sw	a2,1944(ra)

00002c84 <inst_516>:
    2c84:	66666537          	lui	a0,0x66666
    2c88:	66550513          	addi	a0,a0,1637 # 66666665 <absimm+0x21374136>
    2c8c:	333335b7          	lui	a1,0x33333
    2c90:	33458593          	addi	a1,a1,820 # 33333334 <_end+0x3332972c>
    2c94:	00b52633          	slt	a2,a0,a1
    2c98:	78c0ae23          	sw	a2,1948(ra)

00002c9c <inst_517>:
    2c9c:	66666537          	lui	a0,0x66666
    2ca0:	66550513          	addi	a0,a0,1637 # 66666665 <absimm+0x21374136>
    2ca4:	666665b7          	lui	a1,0x66666
    2ca8:	66758593          	addi	a1,a1,1639 # 66666667 <absimm+0x21374138>
    2cac:	00b52633          	slt	a2,a0,a1
    2cb0:	7ac0a023          	sw	a2,1952(ra)

00002cb4 <inst_518>:
    2cb4:	66666537          	lui	a0,0x66666
    2cb8:	66550513          	addi	a0,a0,1637 # 66666665 <absimm+0x21374136>
    2cbc:	ffff55b7          	lui	a1,0xffff5
    2cc0:	afd58593          	addi	a1,a1,-1283 # ffff4afd <immx+0x452e702d>
    2cc4:	00b52633          	slt	a2,a0,a1
    2cc8:	7ac0a223          	sw	a2,1956(ra)

00002ccc <inst_519>:
    2ccc:	66666537          	lui	a0,0x66666
    2cd0:	66550513          	addi	a0,a0,1637 # 66666665 <absimm+0x21374136>
    2cd4:	0000b5b7          	lui	a1,0xb
    2cd8:	50558593          	addi	a1,a1,1285 # b505 <_end+0x18fd>
    2cdc:	00b52633          	slt	a2,a0,a1
    2ce0:	7ac0a423          	sw	a2,1960(ra)

00002ce4 <inst_520>:
    2ce4:	0000b537          	lui	a0,0xb
    2ce8:	50350513          	addi	a0,a0,1283 # b503 <_end+0x18fb>
    2cec:	00300593          	addi	a1,zero,3
    2cf0:	00b52633          	slt	a2,a0,a1
    2cf4:	7ac0a623          	sw	a2,1964(ra)

00002cf8 <inst_521>:
    2cf8:	0000b537          	lui	a0,0xb
    2cfc:	50350513          	addi	a0,a0,1283 # b503 <_end+0x18fb>
    2d00:	555555b7          	lui	a1,0x55555
    2d04:	55558593          	addi	a1,a1,1365 # 55555555 <absimm+0x10263026>
    2d08:	00b52633          	slt	a2,a0,a1
    2d0c:	7ac0a823          	sw	a2,1968(ra)

00002d10 <inst_522>:
    2d10:	0000b537          	lui	a0,0xb
    2d14:	50350513          	addi	a0,a0,1283 # b503 <_end+0x18fb>
    2d18:	aaaab5b7          	lui	a1,0xaaaab
    2d1c:	aaa58593          	addi	a1,a1,-1366 # aaaaaaaa <absimm+0x657b857b>
    2d20:	00b52633          	slt	a2,a0,a1
    2d24:	7ac0aa23          	sw	a2,1972(ra)

00002d28 <inst_523>:
    2d28:	0000b537          	lui	a0,0xb
    2d2c:	50350513          	addi	a0,a0,1283 # b503 <_end+0x18fb>
    2d30:	00500593          	addi	a1,zero,5
    2d34:	00b52633          	slt	a2,a0,a1
    2d38:	7ac0ac23          	sw	a2,1976(ra)

00002d3c <inst_524>:
    2d3c:	0000b537          	lui	a0,0xb
    2d40:	50350513          	addi	a0,a0,1283 # b503 <_end+0x18fb>
    2d44:	333335b7          	lui	a1,0x33333
    2d48:	33358593          	addi	a1,a1,819 # 33333333 <_end+0x3332972b>
    2d4c:	00b52633          	slt	a2,a0,a1
    2d50:	7ac0ae23          	sw	a2,1980(ra)

00002d54 <inst_525>:
    2d54:	0000b537          	lui	a0,0xb
    2d58:	50350513          	addi	a0,a0,1283 # b503 <_end+0x18fb>
    2d5c:	666665b7          	lui	a1,0x66666
    2d60:	66658593          	addi	a1,a1,1638 # 66666666 <absimm+0x21374137>
    2d64:	00b52633          	slt	a2,a0,a1
    2d68:	7cc0a023          	sw	a2,1984(ra)

00002d6c <inst_526>:
    2d6c:	0000b537          	lui	a0,0xb
    2d70:	50350513          	addi	a0,a0,1283 # b503 <_end+0x18fb>
    2d74:	ffff55b7          	lui	a1,0xffff5
    2d78:	afc58593          	addi	a1,a1,-1284 # ffff4afc <immx+0x452e702c>
    2d7c:	00b52633          	slt	a2,a0,a1
    2d80:	7cc0a223          	sw	a2,1988(ra)

00002d84 <inst_527>:
    2d84:	0000b537          	lui	a0,0xb
    2d88:	50350513          	addi	a0,a0,1283 # b503 <_end+0x18fb>
    2d8c:	0000b5b7          	lui	a1,0xb
    2d90:	50458593          	addi	a1,a1,1284 # b504 <_end+0x18fc>
    2d94:	00b52633          	slt	a2,a0,a1
    2d98:	7cc0a423          	sw	a2,1992(ra)

00002d9c <inst_528>:
    2d9c:	0000b537          	lui	a0,0xb
    2da0:	50350513          	addi	a0,a0,1283 # b503 <_end+0x18fb>
    2da4:	00200593          	addi	a1,zero,2
    2da8:	00b52633          	slt	a2,a0,a1
    2dac:	7cc0a623          	sw	a2,1996(ra)

00002db0 <inst_529>:
    2db0:	0000b537          	lui	a0,0xb
    2db4:	50350513          	addi	a0,a0,1283 # b503 <_end+0x18fb>
    2db8:	555555b7          	lui	a1,0x55555
    2dbc:	55458593          	addi	a1,a1,1364 # 55555554 <absimm+0x10263025>
    2dc0:	00b52633          	slt	a2,a0,a1
    2dc4:	7cc0a823          	sw	a2,2000(ra)

00002dc8 <inst_530>:
    2dc8:	0000b537          	lui	a0,0xb
    2dcc:	50350513          	addi	a0,a0,1283 # b503 <_end+0x18fb>
    2dd0:	00000593          	addi	a1,zero,0
    2dd4:	00b52633          	slt	a2,a0,a1
    2dd8:	7cc0aa23          	sw	a2,2004(ra)

00002ddc <inst_531>:
    2ddc:	0000b537          	lui	a0,0xb
    2de0:	50350513          	addi	a0,a0,1283 # b503 <_end+0x18fb>
    2de4:	00400593          	addi	a1,zero,4
    2de8:	00b52633          	slt	a2,a0,a1
    2dec:	7cc0ac23          	sw	a2,2008(ra)

00002df0 <inst_532>:
    2df0:	0000b537          	lui	a0,0xb
    2df4:	50350513          	addi	a0,a0,1283 # b503 <_end+0x18fb>
    2df8:	333335b7          	lui	a1,0x33333
    2dfc:	33258593          	addi	a1,a1,818 # 33333332 <_end+0x3332972a>
    2e00:	00b52633          	slt	a2,a0,a1
    2e04:	7cc0ae23          	sw	a2,2012(ra)

00002e08 <inst_533>:
    2e08:	0000b537          	lui	a0,0xb
    2e0c:	50350513          	addi	a0,a0,1283 # b503 <_end+0x18fb>
    2e10:	666665b7          	lui	a1,0x66666
    2e14:	66558593          	addi	a1,a1,1637 # 66666665 <absimm+0x21374136>
    2e18:	00b52633          	slt	a2,a0,a1
    2e1c:	7ec0a023          	sw	a2,2016(ra)

00002e20 <inst_534>:
    2e20:	0000b537          	lui	a0,0xb
    2e24:	50350513          	addi	a0,a0,1283 # b503 <_end+0x18fb>
    2e28:	0000b5b7          	lui	a1,0xb
    2e2c:	50358593          	addi	a1,a1,1283 # b503 <_end+0x18fb>
    2e30:	00b52633          	slt	a2,a0,a1
    2e34:	7ec0a223          	sw	a2,2020(ra)

00002e38 <inst_535>:
    2e38:	0000b537          	lui	a0,0xb
    2e3c:	50350513          	addi	a0,a0,1283 # b503 <_end+0x18fb>
    2e40:	555555b7          	lui	a1,0x55555
    2e44:	55658593          	addi	a1,a1,1366 # 55555556 <absimm+0x10263027>
    2e48:	00b52633          	slt	a2,a0,a1
    2e4c:	7ec0a423          	sw	a2,2024(ra)

00002e50 <inst_536>:
    2e50:	0000b537          	lui	a0,0xb
    2e54:	50350513          	addi	a0,a0,1283 # b503 <_end+0x18fb>
    2e58:	aaaab5b7          	lui	a1,0xaaaab
    2e5c:	aab58593          	addi	a1,a1,-1365 # aaaaaaab <absimm+0x657b857c>
    2e60:	00b52633          	slt	a2,a0,a1
    2e64:	7ec0a623          	sw	a2,2028(ra)

00002e68 <inst_537>:
    2e68:	0000b537          	lui	a0,0xb
    2e6c:	50350513          	addi	a0,a0,1283 # b503 <_end+0x18fb>
    2e70:	00600593          	addi	a1,zero,6
    2e74:	00b52633          	slt	a2,a0,a1
    2e78:	7ec0a823          	sw	a2,2032(ra)

00002e7c <inst_538>:
    2e7c:	0000b537          	lui	a0,0xb
    2e80:	50350513          	addi	a0,a0,1283 # b503 <_end+0x18fb>
    2e84:	333335b7          	lui	a1,0x33333
    2e88:	33458593          	addi	a1,a1,820 # 33333334 <_end+0x3332972c>
    2e8c:	00b52633          	slt	a2,a0,a1
    2e90:	7ec0aa23          	sw	a2,2036(ra)

00002e94 <inst_539>:
    2e94:	0000b537          	lui	a0,0xb
    2e98:	50350513          	addi	a0,a0,1283 # b503 <_end+0x18fb>
    2e9c:	666665b7          	lui	a1,0x66666
    2ea0:	66758593          	addi	a1,a1,1639 # 66666667 <absimm+0x21374138>
    2ea4:	00b52633          	slt	a2,a0,a1
    2ea8:	7ec0ac23          	sw	a2,2040(ra)

00002eac <inst_540>:
    2eac:	0000b537          	lui	a0,0xb
    2eb0:	50350513          	addi	a0,a0,1283 # b503 <_end+0x18fb>
    2eb4:	ffff55b7          	lui	a1,0xffff5
    2eb8:	afd58593          	addi	a1,a1,-1283 # ffff4afd <immx+0x452e702d>
    2ebc:	00b52633          	slt	a2,a0,a1
    2ec0:	7ec0ae23          	sw	a2,2044(ra)
    2ec4:	00000013          	addi	zero,zero,0
    2ec8:	00000013          	addi	zero,zero,0
    2ecc:	00000013          	addi	zero,zero,0
    2ed0:	00000013          	addi	zero,zero,0
    2ed4:	00000013          	addi	zero,zero,0
    2ed8:	00000013          	addi	zero,zero,0
    2edc:	00000013          	addi	zero,zero,0
    2ee0:	00007097          	auipc	ra,0x7
    2ee4:	aa808093          	addi	ra,ra,-1368 # 9988 <signature_x1_1>
    2ee8:	00000013          	addi	zero,zero,0
    2eec:	00000013          	addi	zero,zero,0
    2ef0:	00000013          	addi	zero,zero,0
    2ef4:	00000013          	addi	zero,zero,0
    2ef8:	00000013          	addi	zero,zero,0
    2efc:	00000013          	addi	zero,zero,0

00002f00 <inst_541>:
    2f00:	0000b537          	lui	a0,0xb
    2f04:	50350513          	addi	a0,a0,1283 # b503 <_end+0x18fb>
    2f08:	0000b5b7          	lui	a1,0xb
    2f0c:	50558593          	addi	a1,a1,1285 # b505 <_end+0x18fd>
    2f10:	00b52633          	slt	a2,a0,a1
    2f14:	00c0a023          	sw	a2,0(ra)

00002f18 <inst_542>:
    2f18:	55555537          	lui	a0,0x55555
    2f1c:	55650513          	addi	a0,a0,1366 # 55555556 <absimm+0x10263027>
    2f20:	00300593          	addi	a1,zero,3
    2f24:	00b52633          	slt	a2,a0,a1
    2f28:	00c0a223          	sw	a2,4(ra)

00002f2c <inst_543>:
    2f2c:	55555537          	lui	a0,0x55555
    2f30:	55650513          	addi	a0,a0,1366 # 55555556 <absimm+0x10263027>
    2f34:	555555b7          	lui	a1,0x55555
    2f38:	55558593          	addi	a1,a1,1365 # 55555555 <absimm+0x10263026>
    2f3c:	00b52633          	slt	a2,a0,a1
    2f40:	00c0a423          	sw	a2,8(ra)

00002f44 <inst_544>:
    2f44:	55555537          	lui	a0,0x55555
    2f48:	55650513          	addi	a0,a0,1366 # 55555556 <absimm+0x10263027>
    2f4c:	aaaab5b7          	lui	a1,0xaaaab
    2f50:	aaa58593          	addi	a1,a1,-1366 # aaaaaaaa <absimm+0x657b857b>
    2f54:	00b52633          	slt	a2,a0,a1
    2f58:	00c0a623          	sw	a2,12(ra)

00002f5c <inst_545>:
    2f5c:	55555537          	lui	a0,0x55555
    2f60:	55650513          	addi	a0,a0,1366 # 55555556 <absimm+0x10263027>
    2f64:	00500593          	addi	a1,zero,5
    2f68:	00b52633          	slt	a2,a0,a1
    2f6c:	00c0a823          	sw	a2,16(ra)

00002f70 <inst_546>:
    2f70:	55555537          	lui	a0,0x55555
    2f74:	55650513          	addi	a0,a0,1366 # 55555556 <absimm+0x10263027>
    2f78:	333335b7          	lui	a1,0x33333
    2f7c:	33358593          	addi	a1,a1,819 # 33333333 <_end+0x3332972b>
    2f80:	00b52633          	slt	a2,a0,a1
    2f84:	00c0aa23          	sw	a2,20(ra)

00002f88 <inst_547>:
    2f88:	55555537          	lui	a0,0x55555
    2f8c:	55650513          	addi	a0,a0,1366 # 55555556 <absimm+0x10263027>
    2f90:	666665b7          	lui	a1,0x66666
    2f94:	66658593          	addi	a1,a1,1638 # 66666666 <absimm+0x21374137>
    2f98:	00b52633          	slt	a2,a0,a1
    2f9c:	00c0ac23          	sw	a2,24(ra)

00002fa0 <inst_548>:
    2fa0:	55555537          	lui	a0,0x55555
    2fa4:	55650513          	addi	a0,a0,1366 # 55555556 <absimm+0x10263027>
    2fa8:	ffff55b7          	lui	a1,0xffff5
    2fac:	afc58593          	addi	a1,a1,-1284 # ffff4afc <immx+0x452e702c>
    2fb0:	00b52633          	slt	a2,a0,a1
    2fb4:	00c0ae23          	sw	a2,28(ra)

00002fb8 <inst_549>:
    2fb8:	55555537          	lui	a0,0x55555
    2fbc:	55650513          	addi	a0,a0,1366 # 55555556 <absimm+0x10263027>
    2fc0:	0000b5b7          	lui	a1,0xb
    2fc4:	50458593          	addi	a1,a1,1284 # b504 <_end+0x18fc>
    2fc8:	00b52633          	slt	a2,a0,a1
    2fcc:	02c0a023          	sw	a2,32(ra)

00002fd0 <inst_550>:
    2fd0:	55555537          	lui	a0,0x55555
    2fd4:	55650513          	addi	a0,a0,1366 # 55555556 <absimm+0x10263027>
    2fd8:	00200593          	addi	a1,zero,2
    2fdc:	00b52633          	slt	a2,a0,a1
    2fe0:	02c0a223          	sw	a2,36(ra)

00002fe4 <inst_551>:
    2fe4:	55555537          	lui	a0,0x55555
    2fe8:	55650513          	addi	a0,a0,1366 # 55555556 <absimm+0x10263027>
    2fec:	555555b7          	lui	a1,0x55555
    2ff0:	55458593          	addi	a1,a1,1364 # 55555554 <absimm+0x10263025>
    2ff4:	00b52633          	slt	a2,a0,a1
    2ff8:	02c0a423          	sw	a2,40(ra)

00002ffc <inst_552>:
    2ffc:	55555537          	lui	a0,0x55555
    3000:	55650513          	addi	a0,a0,1366 # 55555556 <absimm+0x10263027>
    3004:	00000593          	addi	a1,zero,0
    3008:	00b52633          	slt	a2,a0,a1
    300c:	02c0a623          	sw	a2,44(ra)

00003010 <inst_553>:
    3010:	55555537          	lui	a0,0x55555
    3014:	55650513          	addi	a0,a0,1366 # 55555556 <absimm+0x10263027>
    3018:	00400593          	addi	a1,zero,4
    301c:	00b52633          	slt	a2,a0,a1
    3020:	02c0a823          	sw	a2,48(ra)

00003024 <inst_554>:
    3024:	55555537          	lui	a0,0x55555
    3028:	55650513          	addi	a0,a0,1366 # 55555556 <absimm+0x10263027>
    302c:	333335b7          	lui	a1,0x33333
    3030:	33258593          	addi	a1,a1,818 # 33333332 <_end+0x3332972a>
    3034:	00b52633          	slt	a2,a0,a1
    3038:	02c0aa23          	sw	a2,52(ra)

0000303c <inst_555>:
    303c:	55555537          	lui	a0,0x55555
    3040:	55650513          	addi	a0,a0,1366 # 55555556 <absimm+0x10263027>
    3044:	666665b7          	lui	a1,0x66666
    3048:	66558593          	addi	a1,a1,1637 # 66666665 <absimm+0x21374136>
    304c:	00b52633          	slt	a2,a0,a1
    3050:	02c0ac23          	sw	a2,56(ra)

00003054 <inst_556>:
    3054:	55555537          	lui	a0,0x55555
    3058:	55650513          	addi	a0,a0,1366 # 55555556 <absimm+0x10263027>
    305c:	0000b5b7          	lui	a1,0xb
    3060:	50358593          	addi	a1,a1,1283 # b503 <_end+0x18fb>
    3064:	00b52633          	slt	a2,a0,a1
    3068:	02c0ae23          	sw	a2,60(ra)

0000306c <inst_557>:
    306c:	55555537          	lui	a0,0x55555
    3070:	55650513          	addi	a0,a0,1366 # 55555556 <absimm+0x10263027>
    3074:	555555b7          	lui	a1,0x55555
    3078:	55658593          	addi	a1,a1,1366 # 55555556 <absimm+0x10263027>
    307c:	00b52633          	slt	a2,a0,a1
    3080:	04c0a023          	sw	a2,64(ra)

00003084 <inst_558>:
    3084:	55555537          	lui	a0,0x55555
    3088:	55650513          	addi	a0,a0,1366 # 55555556 <absimm+0x10263027>
    308c:	aaaab5b7          	lui	a1,0xaaaab
    3090:	aab58593          	addi	a1,a1,-1365 # aaaaaaab <absimm+0x657b857c>
    3094:	00b52633          	slt	a2,a0,a1
    3098:	04c0a223          	sw	a2,68(ra)

0000309c <inst_559>:
    309c:	55555537          	lui	a0,0x55555
    30a0:	55650513          	addi	a0,a0,1366 # 55555556 <absimm+0x10263027>
    30a4:	00600593          	addi	a1,zero,6
    30a8:	00b52633          	slt	a2,a0,a1
    30ac:	04c0a423          	sw	a2,72(ra)

000030b0 <inst_560>:
    30b0:	55555537          	lui	a0,0x55555
    30b4:	55650513          	addi	a0,a0,1366 # 55555556 <absimm+0x10263027>
    30b8:	333335b7          	lui	a1,0x33333
    30bc:	33458593          	addi	a1,a1,820 # 33333334 <_end+0x3332972c>
    30c0:	00b52633          	slt	a2,a0,a1
    30c4:	04c0a623          	sw	a2,76(ra)

000030c8 <inst_561>:
    30c8:	55555537          	lui	a0,0x55555
    30cc:	55650513          	addi	a0,a0,1366 # 55555556 <absimm+0x10263027>
    30d0:	666665b7          	lui	a1,0x66666
    30d4:	66758593          	addi	a1,a1,1639 # 66666667 <absimm+0x21374138>
    30d8:	00b52633          	slt	a2,a0,a1
    30dc:	04c0a823          	sw	a2,80(ra)

000030e0 <inst_562>:
    30e0:	55555537          	lui	a0,0x55555
    30e4:	55650513          	addi	a0,a0,1366 # 55555556 <absimm+0x10263027>
    30e8:	ffff55b7          	lui	a1,0xffff5
    30ec:	afd58593          	addi	a1,a1,-1283 # ffff4afd <immx+0x452e702d>
    30f0:	00b52633          	slt	a2,a0,a1
    30f4:	04c0aa23          	sw	a2,84(ra)

000030f8 <inst_563>:
    30f8:	55555537          	lui	a0,0x55555
    30fc:	55650513          	addi	a0,a0,1366 # 55555556 <absimm+0x10263027>
    3100:	0000b5b7          	lui	a1,0xb
    3104:	50558593          	addi	a1,a1,1285 # b505 <_end+0x18fd>
    3108:	00b52633          	slt	a2,a0,a1
    310c:	04c0ac23          	sw	a2,88(ra)

00003110 <inst_564>:
    3110:	aaaab537          	lui	a0,0xaaaab
    3114:	aab50513          	addi	a0,a0,-1365 # aaaaaaab <absimm+0x657b857c>
    3118:	00300593          	addi	a1,zero,3
    311c:	00b52633          	slt	a2,a0,a1
    3120:	04c0ae23          	sw	a2,92(ra)

00003124 <inst_565>:
    3124:	aaaab537          	lui	a0,0xaaaab
    3128:	aab50513          	addi	a0,a0,-1365 # aaaaaaab <absimm+0x657b857c>
    312c:	555555b7          	lui	a1,0x55555
    3130:	55558593          	addi	a1,a1,1365 # 55555555 <absimm+0x10263026>
    3134:	00b52633          	slt	a2,a0,a1
    3138:	06c0a023          	sw	a2,96(ra)

0000313c <inst_566>:
    313c:	aaaab537          	lui	a0,0xaaaab
    3140:	aab50513          	addi	a0,a0,-1365 # aaaaaaab <absimm+0x657b857c>
    3144:	aaaab5b7          	lui	a1,0xaaaab
    3148:	aaa58593          	addi	a1,a1,-1366 # aaaaaaaa <absimm+0x657b857b>
    314c:	00b52633          	slt	a2,a0,a1
    3150:	06c0a223          	sw	a2,100(ra)

00003154 <inst_567>:
    3154:	aaaab537          	lui	a0,0xaaaab
    3158:	aab50513          	addi	a0,a0,-1365 # aaaaaaab <absimm+0x657b857c>
    315c:	00500593          	addi	a1,zero,5
    3160:	00b52633          	slt	a2,a0,a1
    3164:	06c0a423          	sw	a2,104(ra)

00003168 <inst_568>:
    3168:	aaaab537          	lui	a0,0xaaaab
    316c:	aab50513          	addi	a0,a0,-1365 # aaaaaaab <absimm+0x657b857c>
    3170:	333335b7          	lui	a1,0x33333
    3174:	33358593          	addi	a1,a1,819 # 33333333 <_end+0x3332972b>
    3178:	00b52633          	slt	a2,a0,a1
    317c:	06c0a623          	sw	a2,108(ra)

00003180 <inst_569>:
    3180:	aaaab537          	lui	a0,0xaaaab
    3184:	aab50513          	addi	a0,a0,-1365 # aaaaaaab <absimm+0x657b857c>
    3188:	666665b7          	lui	a1,0x66666
    318c:	66658593          	addi	a1,a1,1638 # 66666666 <absimm+0x21374137>
    3190:	00b52633          	slt	a2,a0,a1
    3194:	06c0a823          	sw	a2,112(ra)

00003198 <inst_570>:
    3198:	aaaab537          	lui	a0,0xaaaab
    319c:	aab50513          	addi	a0,a0,-1365 # aaaaaaab <absimm+0x657b857c>
    31a0:	ffff55b7          	lui	a1,0xffff5
    31a4:	afc58593          	addi	a1,a1,-1284 # ffff4afc <immx+0x452e702c>
    31a8:	00b52633          	slt	a2,a0,a1
    31ac:	06c0aa23          	sw	a2,116(ra)

000031b0 <inst_571>:
    31b0:	aaaab537          	lui	a0,0xaaaab
    31b4:	aab50513          	addi	a0,a0,-1365 # aaaaaaab <absimm+0x657b857c>
    31b8:	0000b5b7          	lui	a1,0xb
    31bc:	50458593          	addi	a1,a1,1284 # b504 <_end+0x18fc>
    31c0:	00b52633          	slt	a2,a0,a1
    31c4:	06c0ac23          	sw	a2,120(ra)

000031c8 <inst_572>:
    31c8:	aaaab537          	lui	a0,0xaaaab
    31cc:	aab50513          	addi	a0,a0,-1365 # aaaaaaab <absimm+0x657b857c>
    31d0:	00200593          	addi	a1,zero,2
    31d4:	00b52633          	slt	a2,a0,a1
    31d8:	06c0ae23          	sw	a2,124(ra)

000031dc <inst_573>:
    31dc:	aaaab537          	lui	a0,0xaaaab
    31e0:	aab50513          	addi	a0,a0,-1365 # aaaaaaab <absimm+0x657b857c>
    31e4:	555555b7          	lui	a1,0x55555
    31e8:	55458593          	addi	a1,a1,1364 # 55555554 <absimm+0x10263025>
    31ec:	00b52633          	slt	a2,a0,a1
    31f0:	08c0a023          	sw	a2,128(ra)

000031f4 <inst_574>:
    31f4:	aaaab537          	lui	a0,0xaaaab
    31f8:	aab50513          	addi	a0,a0,-1365 # aaaaaaab <absimm+0x657b857c>
    31fc:	00000593          	addi	a1,zero,0
    3200:	00b52633          	slt	a2,a0,a1
    3204:	08c0a223          	sw	a2,132(ra)

00003208 <inst_575>:
    3208:	aaaab537          	lui	a0,0xaaaab
    320c:	aab50513          	addi	a0,a0,-1365 # aaaaaaab <absimm+0x657b857c>
    3210:	00400593          	addi	a1,zero,4
    3214:	00b52633          	slt	a2,a0,a1
    3218:	08c0a423          	sw	a2,136(ra)

0000321c <inst_576>:
    321c:	aaaab537          	lui	a0,0xaaaab
    3220:	aab50513          	addi	a0,a0,-1365 # aaaaaaab <absimm+0x657b857c>
    3224:	333335b7          	lui	a1,0x33333
    3228:	33258593          	addi	a1,a1,818 # 33333332 <_end+0x3332972a>
    322c:	00b52633          	slt	a2,a0,a1
    3230:	08c0a623          	sw	a2,140(ra)

00003234 <inst_577>:
    3234:	aaaab537          	lui	a0,0xaaaab
    3238:	aab50513          	addi	a0,a0,-1365 # aaaaaaab <absimm+0x657b857c>
    323c:	666665b7          	lui	a1,0x66666
    3240:	66558593          	addi	a1,a1,1637 # 66666665 <absimm+0x21374136>
    3244:	00b52633          	slt	a2,a0,a1
    3248:	08c0a823          	sw	a2,144(ra)

0000324c <inst_578>:
    324c:	aaaab537          	lui	a0,0xaaaab
    3250:	aab50513          	addi	a0,a0,-1365 # aaaaaaab <absimm+0x657b857c>
    3254:	0000b5b7          	lui	a1,0xb
    3258:	50358593          	addi	a1,a1,1283 # b503 <_end+0x18fb>
    325c:	00b52633          	slt	a2,a0,a1
    3260:	08c0aa23          	sw	a2,148(ra)

00003264 <inst_579>:
    3264:	aaaab537          	lui	a0,0xaaaab
    3268:	aab50513          	addi	a0,a0,-1365 # aaaaaaab <absimm+0x657b857c>
    326c:	555555b7          	lui	a1,0x55555
    3270:	55658593          	addi	a1,a1,1366 # 55555556 <absimm+0x10263027>
    3274:	00b52633          	slt	a2,a0,a1
    3278:	08c0ac23          	sw	a2,152(ra)

0000327c <inst_580>:
    327c:	ffffc537          	lui	a0,0xffffc
    3280:	fff50513          	addi	a0,a0,-1 # ffffbfff <immx+0x452ee52f>
    3284:	ff700593          	addi	a1,zero,-9
    3288:	00b52633          	slt	a2,a0,a1
    328c:	08c0ae23          	sw	a2,156(ra)

00003290 <inst_581>:
    3290:	ffffc537          	lui	a0,0xffffc
    3294:	fff50513          	addi	a0,a0,-1 # ffffbfff <immx+0x452ee52f>
    3298:	001005b7          	lui	a1,0x100
    329c:	00b52633          	slt	a2,a0,a1
    32a0:	0ac0a023          	sw	a2,160(ra)

000032a4 <inst_582>:
    32a4:	00400513          	addi	a0,zero,4
    32a8:	002005b7          	lui	a1,0x200
    32ac:	00b52633          	slt	a2,a0,a1
    32b0:	0ac0a223          	sw	a2,164(ra)

000032b4 <inst_583>:
    32b4:	00900513          	addi	a0,zero,9
    32b8:	004005b7          	lui	a1,0x400
    32bc:	00b52633          	slt	a2,a0,a1
    32c0:	0ac0a423          	sw	a2,168(ra)

000032c4 <cleanup_epilogs>:
    32c4:	0200006f          	jal	zero,32e4 <exit_cleanup>

000032c8 <abort_tests>:
    32c8:	17812483          	lw	s1,376(sp) # 2178 <inst_386+0x4>
    32cc:	18012303          	lw	t1,384(sp)
    32d0:	00930333          	add	t1,t1,s1
    32d4:	bad0e337          	lui	t1,0xbad0e
    32d8:	ad030313          	addi	t1,t1,-1328 # bad0dad0 <immx>
    32dc:	fe64ae23          	sw	t1,-4(s1) # 1fffc <_end+0x163f4>
    32e0:	0040006f          	jal	zero,32e4 <exit_cleanup>

000032e4 <exit_cleanup>:
    32e4:	00006517          	auipc	a0,0x6
    32e8:	e2c50513          	addi	a0,a0,-468 # 9110 <begin_signature>
    32ec:	00006597          	auipc	a1,0x6
    32f0:	75458593          	addi	a1,a1,1876 # 9a40 <end_signature>
    32f4:	00008637          	lui	a2,0x8
    32f8:	00460613          	addi	a2,a2,4 # 8004 <rvtest_data_begin+0x4>

000032fc <sig_dump_loop>:
    32fc:	00052283          	lw	t0,0(a0)
    3300:	00562023          	sw	t0,0(a2)
    3304:	00450513          	addi	a0,a0,4
    3308:	00b55463          	bge	a0,a1,3310 <end_sim>
    330c:	ff1ff06f          	jal	zero,32fc <sig_dump_loop>

00003310 <end_sim>:
    3310:	00008537          	lui	a0,0x8
    3314:	00850513          	addi	a0,a0,8 # 8008 <rvtest_data_begin+0x8>
    3318:	cafed5b7          	lui	a1,0xcafed
    331c:	afe58593          	addi	a1,a1,-1282 # cafecafe <immx+0x102df02e>
    3320:	00b52023          	sw	a1,0(a0)
    3324:	fedff06f          	jal	zero,3310 <end_sim>
	...
