
my.elf:     file format elf32-littleriscv


Disassembly of section .text.init:

00000000 <rvtest_entry_point>:
       0:	7d5c0837          	lui	a6,0x7d5c0
       4:	ddb80813          	addi	a6,a6,-549 # 7d5bfddb <absimm+0x382cd8ac>
       8:	00785893          	srli	a7,a6,0x7
       c:	01985793          	srli	a5,a6,0x19
      10:	00f8e8b3          	or	a7,a7,a5
      14:	0078d913          	srli	s2,a7,0x7
      18:	0198d793          	srli	a5,a7,0x19
      1c:	00f96933          	or	s2,s2,a5
      20:	00795993          	srli	s3,s2,0x7
      24:	01995793          	srli	a5,s2,0x19
      28:	00f9e9b3          	or	s3,s3,a5
      2c:	0079da13          	srli	s4,s3,0x7
      30:	0199d793          	srli	a5,s3,0x19
      34:	00fa6a33          	or	s4,s4,a5
      38:	007a5a93          	srli	s5,s4,0x7
      3c:	019a5793          	srli	a5,s4,0x19
      40:	00faeab3          	or	s5,s5,a5
      44:	007adb13          	srli	s6,s5,0x7
      48:	019ad793          	srli	a5,s5,0x19
      4c:	00fb6b33          	or	s6,s6,a5
      50:	007b5b93          	srli	s7,s6,0x7
      54:	019b5793          	srli	a5,s6,0x19
      58:	00fbebb3          	or	s7,s7,a5
      5c:	007bdc13          	srli	s8,s7,0x7
      60:	019bd793          	srli	a5,s7,0x19
      64:	00fc6c33          	or	s8,s8,a5
      68:	007c5c93          	srli	s9,s8,0x7
      6c:	019c5793          	srli	a5,s8,0x19
      70:	00fcecb3          	or	s9,s9,a5
      74:	007cdd13          	srli	s10,s9,0x7
      78:	019cd793          	srli	a5,s9,0x19
      7c:	00fd6d33          	or	s10,s10,a5
      80:	007d5d93          	srli	s11,s10,0x7
      84:	019d5793          	srli	a5,s10,0x19
      88:	00fdedb3          	or	s11,s11,a5
      8c:	007dde13          	srli	t3,s11,0x7
      90:	019dd793          	srli	a5,s11,0x19
      94:	00fe6e33          	or	t3,t3,a5
      98:	007e5e93          	srli	t4,t3,0x7
      9c:	019e5793          	srli	a5,t3,0x19
      a0:	00feeeb3          	or	t4,t4,a5
      a4:	007edf13          	srli	t5,t4,0x7
      a8:	019ed793          	srli	a5,t4,0x19
      ac:	00ff6f33          	or	t5,t5,a5
      b0:	feedc0b7          	lui	ra,0xfeedc
      b4:	ead08093          	addi	ra,ra,-339 # feedbead <immx+0x441ce3dd>
      b8:	0070d113          	srli	sp,ra,0x7
      bc:	0190d793          	srli	a5,ra,0x19
      c0:	00f16133          	or	sp,sp,a5
      c4:	00715193          	srli	gp,sp,0x7
      c8:	01915793          	srli	a5,sp,0x19
      cc:	00f1e1b3          	or	gp,gp,a5
      d0:	0071d213          	srli	tp,gp,0x7
      d4:	0191d793          	srli	a5,gp,0x19
      d8:	00f26233          	or	tp,tp,a5
      dc:	00725293          	srli	t0,tp,0x7
      e0:	01925793          	srli	a5,tp,0x19
      e4:	00f2e2b3          	or	t0,t0,a5
      e8:	0072d313          	srli	t1,t0,0x7
      ec:	0192d793          	srli	a5,t0,0x19
      f0:	00f36333          	or	t1,t1,a5
      f4:	00735393          	srli	t2,t1,0x7
      f8:	01935793          	srli	a5,t1,0x19
      fc:	00f3e3b3          	or	t2,t2,a5
     100:	0073d413          	srli	s0,t2,0x7
     104:	0193d793          	srli	a5,t2,0x19
     108:	00f46433          	or	s0,s0,a5
     10c:	00745493          	srli	s1,s0,0x7
     110:	01945793          	srli	a5,s0,0x19
     114:	00f4e4b3          	or	s1,s1,a5
     118:	0074d513          	srli	a0,s1,0x7
     11c:	0194d793          	srli	a5,s1,0x19
     120:	00f56533          	or	a0,a0,a5
     124:	00755593          	srli	a1,a0,0x7
     128:	01955793          	srli	a5,a0,0x19
     12c:	00f5e5b3          	or	a1,a1,a5
     130:	0075d613          	srli	a2,a1,0x7
     134:	0195d793          	srli	a5,a1,0x19
     138:	00f66633          	or	a2,a2,a5
     13c:	00765693          	srli	a3,a2,0x7
     140:	01965793          	srli	a5,a2,0x19
     144:	00f6e6b3          	or	a3,a3,a5

00000148 <rvtest_code_begin>:
     148:	00000013          	addi	zero,zero,0
     14c:	00000013          	addi	zero,zero,0
     150:	00000013          	addi	zero,zero,0
     154:	00000013          	addi	zero,zero,0
     158:	00000013          	addi	zero,zero,0
     15c:	00000013          	addi	zero,zero,0
     160:	00009117          	auipc	sp,0x9
     164:	fb410113          	addi	sp,sp,-76 # 9114 <signature_x2_0>
     168:	00000013          	addi	zero,zero,0
     16c:	00000013          	addi	zero,zero,0
     170:	00000013          	addi	zero,zero,0
     174:	00000013          	addi	zero,zero,0
     178:	00000013          	addi	zero,zero,0
     17c:	00000013          	addi	zero,zero,0

00000180 <inst_0>:
     180:	33333c37          	lui	s8,0x33333
     184:	334c0c13          	addi	s8,s8,820 # 33333334 <_end+0x3332982c>
     188:	800c4513          	xori	a0,s8,-2048
     18c:	00a12023          	sw	a0,0(sp)

00000190 <inst_1>:
     190:	00400913          	addi	s2,zero,4
     194:	00094913          	xori	s2,s2,0
     198:	01212223          	sw	s2,4(sp)

0000019c <inst_2>:
     19c:	ffc00793          	addi	a5,zero,-4
     1a0:	7ff7cc13          	xori	s8,a5,2047
     1a4:	01812423          	sw	s8,8(sp)

000001a8 <inst_3>:
     1a8:	00200593          	addi	a1,zero,2
     1ac:	0015ca13          	xori	s4,a1,1
     1b0:	01412623          	sw	s4,12(sp)

000001b4 <inst_4>:
     1b4:	800003b7          	lui	t2,0x80000
     1b8:	5543ca93          	xori	s5,t2,1364
     1bc:	01512823          	sw	s5,16(sp)

000001c0 <inst_5>:
     1c0:	00000893          	addi	a7,zero,0
     1c4:	bff8cd93          	xori	s11,a7,-1025
     1c8:	01b12a23          	sw	s11,20(sp)

000001cc <inst_6>:
     1cc:	80000b37          	lui	s6,0x80000
     1d0:	fffb0b13          	addi	s6,s6,-1 # 7fffffff <absimm+0x3ad0dad0>
     1d4:	ff6b4093          	xori	ra,s6,-10
     1d8:	00112c23          	sw	ra,24(sp)

000001dc <inst_7>:
     1dc:	00100a13          	addi	s4,zero,1
     1e0:	004a4b13          	xori	s6,s4,4
     1e4:	01612e23          	sw	s6,28(sp)

000001e8 <inst_8>:
     1e8:	dff00993          	addi	s3,zero,-513
     1ec:	dff9cf93          	xori	t6,s3,-513
     1f0:	03f12023          	sw	t6,32(sp)

000001f4 <inst_9>:
     1f4:	fdf00493          	addi	s1,zero,-33
     1f8:	0024c293          	xori	t0,s1,2
     1fc:	02512223          	sw	t0,36(sp)

00000200 <inst_10>:
     200:	80000e37          	lui	t3,0x80000
     204:	008e4e93          	xori	t4,t3,8
     208:	03d12423          	sw	t4,40(sp)

0000020c <inst_11>:
     20c:	c0000f37          	lui	t5,0xc0000
     210:	ffff0f13          	addi	t5,t5,-1 # bfffffff <immx+0x52f252f>
     214:	010f4213          	xori	tp,t5,16
     218:	02412623          	sw	tp,44(sp)

0000021c <inst_12>:
     21c:	80000db7          	lui	s11,0x80000
     220:	fffd8d93          	addi	s11,s11,-1 # 7fffffff <absimm+0x3ad0dad0>
     224:	020dc413          	xori	s0,s11,32
     228:	02812823          	sw	s0,48(sp)

0000022c <inst_13>:
     22c:	666661b7          	lui	gp,0x66666
     230:	66618193          	addi	gp,gp,1638 # 66666666 <absimm+0x21374137>
     234:	0401cc93          	xori	s9,gp,64
     238:	03912a23          	sw	s9,52(sp)

0000023c <inst_14>:
     23c:	fff80fb7          	lui	t6,0xfff80
     240:	ffff8f93          	addi	t6,t6,-1 # fff7ffff <immx+0x4527252f>
     244:	080fc893          	xori	a7,t6,128
     248:	03112c23          	sw	a7,56(sp)

0000024c <inst_15>:
     24c:	ffff5eb7          	lui	t4,0xffff5
     250:	afce8e93          	addi	t4,t4,-1284 # ffff4afc <immx+0x452e702c>
     254:	100ec813          	xori	a6,t4,256
     258:	03012e23          	sw	a6,60(sp)

0000025c <inst_16>:
     25c:	00000213          	addi	tp,zero,0
     260:	20024313          	xori	t1,tp,512
     264:	04612023          	sw	t1,64(sp)

00000268 <inst_17>:
     268:	fff00737          	lui	a4,0xfff00
     26c:	fff70713          	addi	a4,a4,-1 # ffefffff <immx+0x451f252f>
     270:	40074193          	xori	gp,a4,1024
     274:	04312223          	sw	gp,68(sp)

00000278 <inst_18>:
     278:	ff900613          	addi	a2,zero,-7
     27c:	ffe64793          	xori	a5,a2,-2
     280:	04f12423          	sw	a5,72(sp)

00000284 <inst_19>:
     284:	00500a93          	addi	s5,zero,5
     288:	ffdac493          	xori	s1,s5,-3
     28c:	04912623          	sw	s1,76(sp)

00000290 <inst_20>:
     290:	ffff5537          	lui	a0,0xffff5
     294:	afc50513          	addi	a0,a0,-1284 # ffff4afc <immx+0x452e702c>
     298:	ffb54993          	xori	s3,a0,-5
     29c:	05312823          	sw	s3,80(sp)

000002a0 <inst_21>:
     2a0:	00100813          	addi	a6,zero,1
     2a4:	ff784d13          	xori	s10,a6,-9
     2a8:	05a12a23          	sw	s10,84(sp)
     2ac:	00000013          	addi	zero,zero,0
     2b0:	00000013          	addi	zero,zero,0
     2b4:	00000013          	addi	zero,zero,0
     2b8:	00000013          	addi	zero,zero,0
     2bc:	00000013          	addi	zero,zero,0
     2c0:	00009197          	auipc	gp,0x9
     2c4:	eac18193          	addi	gp,gp,-340 # 916c <signature_x3_0>
     2c8:	00000013          	addi	zero,zero,0
     2cc:	00000013          	addi	zero,zero,0
     2d0:	00000013          	addi	zero,zero,0
     2d4:	00000013          	addi	zero,zero,0
     2d8:	00000013          	addi	zero,zero,0
     2dc:	00000013          	addi	zero,zero,0

000002e0 <inst_22>:
     2e0:	66666d37          	lui	s10,0x66666
     2e4:	667d0d13          	addi	s10,s10,1639 # 66666667 <absimm+0x21374138>
     2e8:	fefd4f13          	xori	t5,s10,-17
     2ec:	01e1a023          	sw	t5,0(gp)

000002f0 <inst_23>:
     2f0:	fbf00093          	addi	ra,zero,-65
     2f4:	fdf0cb93          	xori	s7,ra,-33
     2f8:	0171a223          	sw	s7,4(gp)

000002fc <inst_24>:
     2fc:	fff00313          	addi	t1,zero,-1
     300:	fbf34013          	xori	zero,t1,-65
     304:	0001a423          	sw	zero,8(gp)

00000308 <inst_25>:
     308:	55555137          	lui	sp,0x55555
     30c:	55510113          	addi	sp,sp,1365 # 55555555 <absimm+0x10263026>
     310:	f7f14393          	xori	t2,sp,-129
     314:	0071a623          	sw	t2,12(gp)

00000318 <inst_26>:
     318:	00000013          	addi	zero,zero,0
     31c:	eff04713          	xori	a4,zero,-257
     320:	00e1a823          	sw	a4,16(gp)

00000324 <inst_27>:
     324:	40000437          	lui	s0,0x40000
     328:	fff40413          	addi	s0,s0,-1 # 3fffffff <_end+0x3fff64f7>
     32c:	55544693          	xori	a3,s0,1365
     330:	00d1aa23          	sw	a3,20(gp)

00000334 <inst_28>:
     334:	ff900c93          	addi	s9,zero,-7
     338:	aaacc613          	xori	a2,s9,-1366
     33c:	00c1ac23          	sw	a2,24(gp)

00000340 <inst_29>:
     340:	00800693          	addi	a3,zero,8
     344:	0006c593          	xori	a1,a3,0
     348:	00b1ae23          	sw	a1,28(gp)

0000034c <inst_30>:
     34c:	01000b93          	addi	s7,zero,16
     350:	001bc113          	xori	sp,s7,1
     354:	0221a023          	sw	sp,32(gp)

00000358 <inst_31>:
     358:	02000293          	addi	t0,zero,32
     35c:	5552ce13          	xori	t3,t0,1365
     360:	03c1a223          	sw	t3,36(gp)

00000364 <inst_32>:
     364:	04000513          	addi	a0,zero,64
     368:	10054593          	xori	a1,a0,256
     36c:	02b1a423          	sw	a1,40(gp)

00000370 <inst_33>:
     370:	08000513          	addi	a0,zero,128
     374:	00554593          	xori	a1,a0,5
     378:	02b1a623          	sw	a1,44(gp)

0000037c <inst_34>:
     37c:	10000513          	addi	a0,zero,256
     380:	fbf54593          	xori	a1,a0,-65
     384:	02b1a823          	sw	a1,48(gp)

00000388 <inst_35>:
     388:	20000513          	addi	a0,zero,512
     38c:	00254593          	xori	a1,a0,2
     390:	02b1aa23          	sw	a1,52(gp)

00000394 <inst_36>:
     394:	40000513          	addi	a0,zero,1024
     398:	aab54593          	xori	a1,a0,-1365
     39c:	02b1ac23          	sw	a1,56(gp)

000003a0 <inst_37>:
     3a0:	00001537          	lui	a0,0x1
     3a4:	80050513          	addi	a0,a0,-2048 # 800 <inst_119+0x4>
     3a8:	00454593          	xori	a1,a0,4
     3ac:	02b1ae23          	sw	a1,60(gp)

000003b0 <inst_38>:
     3b0:	00001537          	lui	a0,0x1
     3b4:	00854593          	xori	a1,a0,8
     3b8:	04b1a023          	sw	a1,64(gp)

000003bc <inst_39>:
     3bc:	00002537          	lui	a0,0x2
     3c0:	55454593          	xori	a1,a0,1364
     3c4:	04b1a223          	sw	a1,68(gp)

000003c8 <inst_40>:
     3c8:	00004537          	lui	a0,0x4
     3cc:	00454593          	xori	a1,a0,4
     3d0:	04b1a423          	sw	a1,72(gp)

000003d4 <inst_41>:
     3d4:	00008537          	lui	a0,0x8
     3d8:	7ff54593          	xori	a1,a0,2047
     3dc:	04b1a623          	sw	a1,76(gp)

000003e0 <inst_42>:
     3e0:	00010537          	lui	a0,0x10
     3e4:	04054593          	xori	a1,a0,64
     3e8:	04b1a823          	sw	a1,80(gp)

000003ec <inst_43>:
     3ec:	00020537          	lui	a0,0x20
     3f0:	02c54593          	xori	a1,a0,44
     3f4:	04b1aa23          	sw	a1,84(gp)

000003f8 <inst_44>:
     3f8:	00040537          	lui	a0,0x40
     3fc:	aaa54593          	xori	a1,a0,-1366
     400:	04b1ac23          	sw	a1,88(gp)

00000404 <inst_45>:
     404:	00080537          	lui	a0,0x80
     408:	33354593          	xori	a1,a0,819
     40c:	04b1ae23          	sw	a1,92(gp)

00000410 <inst_46>:
     410:	00100537          	lui	a0,0x100
     414:	ffa54593          	xori	a1,a0,-6
     418:	06b1a023          	sw	a1,96(gp)

0000041c <inst_47>:
     41c:	00200537          	lui	a0,0x200
     420:	ffd54593          	xori	a1,a0,-3
     424:	06b1a223          	sw	a1,100(gp)

00000428 <inst_48>:
     428:	00400537          	lui	a0,0x400
     42c:	55554593          	xori	a1,a0,1365
     430:	06b1a423          	sw	a1,104(gp)

00000434 <inst_49>:
     434:	00800537          	lui	a0,0x800
     438:	ff754593          	xori	a1,a0,-9
     43c:	06b1a623          	sw	a1,108(gp)

00000440 <inst_50>:
     440:	01000537          	lui	a0,0x1000
     444:	00554593          	xori	a1,a0,5
     448:	06b1a823          	sw	a1,112(gp)

0000044c <inst_51>:
     44c:	02000537          	lui	a0,0x2000
     450:	dff54593          	xori	a1,a0,-513
     454:	06b1aa23          	sw	a1,116(gp)

00000458 <inst_52>:
     458:	04000537          	lui	a0,0x4000
     45c:	00054593          	xori	a1,a0,0
     460:	06b1ac23          	sw	a1,120(gp)

00000464 <inst_53>:
     464:	08000537          	lui	a0,0x8000
     468:	33454593          	xori	a1,a0,820
     46c:	06b1ae23          	sw	a1,124(gp)

00000470 <inst_54>:
     470:	10000537          	lui	a0,0x10000
     474:	fbf54593          	xori	a1,a0,-65
     478:	08b1a023          	sw	a1,128(gp)

0000047c <inst_55>:
     47c:	20000537          	lui	a0,0x20000
     480:	55554593          	xori	a1,a0,1365
     484:	08b1a223          	sw	a1,132(gp)

00000488 <inst_56>:
     488:	40000537          	lui	a0,0x40000
     48c:	aaa54593          	xori	a1,a0,-1366
     490:	08b1a423          	sw	a1,136(gp)

00000494 <inst_57>:
     494:	ffe00513          	addi	a0,zero,-2
     498:	00454593          	xori	a1,a0,4
     49c:	08b1a623          	sw	a1,140(gp)

000004a0 <inst_58>:
     4a0:	ffd00513          	addi	a0,zero,-3
     4a4:	ffd54593          	xori	a1,a0,-3
     4a8:	08b1a823          	sw	a1,144(gp)

000004ac <inst_59>:
     4ac:	ffb00513          	addi	a0,zero,-5
     4b0:	c0054593          	xori	a1,a0,-1024
     4b4:	08b1aa23          	sw	a1,148(gp)

000004b8 <inst_60>:
     4b8:	ff700513          	addi	a0,zero,-9
     4bc:	aab54593          	xori	a1,a0,-1365
     4c0:	08b1ac23          	sw	a1,152(gp)

000004c4 <inst_61>:
     4c4:	fef00513          	addi	a0,zero,-17
     4c8:	08054593          	xori	a1,a0,128
     4cc:	08b1ae23          	sw	a1,156(gp)

000004d0 <inst_62>:
     4d0:	f7f00513          	addi	a0,zero,-129
     4d4:	66654593          	xori	a1,a0,1638
     4d8:	0ab1a023          	sw	a1,160(gp)

000004dc <inst_63>:
     4dc:	eff00513          	addi	a0,zero,-257
     4e0:	00654593          	xori	a1,a0,6
     4e4:	0ab1a223          	sw	a1,164(gp)

000004e8 <inst_64>:
     4e8:	bff00513          	addi	a0,zero,-1025
     4ec:	00654593          	xori	a1,a0,6
     4f0:	0ab1a423          	sw	a1,168(gp)

000004f4 <inst_65>:
     4f4:	fffff537          	lui	a0,0xfffff
     4f8:	7ff50513          	addi	a0,a0,2047 # fffff7ff <immx+0x452f1d2f>
     4fc:	00254593          	xori	a1,a0,2
     500:	0ab1a623          	sw	a1,172(gp)

00000504 <inst_66>:
     504:	fffff537          	lui	a0,0xfffff
     508:	fff50513          	addi	a0,a0,-1 # ffffefff <immx+0x452f152f>
     50c:	00054593          	xori	a1,a0,0
     510:	0ab1a823          	sw	a1,176(gp)

00000514 <inst_67>:
     514:	ffffe537          	lui	a0,0xffffe
     518:	fff50513          	addi	a0,a0,-1 # ffffdfff <immx+0x452f052f>
     51c:	7ff54593          	xori	a1,a0,2047
     520:	0ab1aa23          	sw	a1,180(gp)

00000524 <inst_68>:
     524:	ffffc537          	lui	a0,0xffffc
     528:	fff50513          	addi	a0,a0,-1 # ffffbfff <immx+0x452ee52f>
     52c:	fd454593          	xori	a1,a0,-44
     530:	0ab1ac23          	sw	a1,184(gp)

00000534 <inst_69>:
     534:	ffff8537          	lui	a0,0xffff8
     538:	fff50513          	addi	a0,a0,-1 # ffff7fff <immx+0x452ea52f>
     53c:	66554593          	xori	a1,a0,1637
     540:	0ab1ae23          	sw	a1,188(gp)

00000544 <inst_70>:
     544:	ffff0537          	lui	a0,0xffff0
     548:	fff50513          	addi	a0,a0,-1 # fffeffff <immx+0x452e252f>
     54c:	33254593          	xori	a1,a0,818
     550:	0cb1a023          	sw	a1,192(gp)

00000554 <inst_71>:
     554:	fffe0537          	lui	a0,0xfffe0
     558:	fff50513          	addi	a0,a0,-1 # fffdffff <immx+0x452d252f>
     55c:	eff54593          	xori	a1,a0,-257
     560:	0cb1a223          	sw	a1,196(gp)

00000564 <inst_72>:
     564:	fffc0537          	lui	a0,0xfffc0
     568:	fff50513          	addi	a0,a0,-1 # fffbffff <immx+0x452b252f>
     56c:	80054593          	xori	a1,a0,-2048
     570:	0cb1a423          	sw	a1,200(gp)

00000574 <inst_73>:
     574:	ffe00537          	lui	a0,0xffe00
     578:	fff50513          	addi	a0,a0,-1 # ffdfffff <immx+0x450f252f>
     57c:	00054593          	xori	a1,a0,0
     580:	0cb1a623          	sw	a1,204(gp)

00000584 <inst_74>:
     584:	ffc00537          	lui	a0,0xffc00
     588:	fff50513          	addi	a0,a0,-1 # ffbfffff <immx+0x44ef252f>
     58c:	66554593          	xori	a1,a0,1637
     590:	0cb1a823          	sw	a1,208(gp)

00000594 <inst_75>:
     594:	ff800537          	lui	a0,0xff800
     598:	fff50513          	addi	a0,a0,-1 # ff7fffff <immx+0x44af252f>
     59c:	66754593          	xori	a1,a0,1639
     5a0:	0cb1aa23          	sw	a1,212(gp)

000005a4 <inst_76>:
     5a4:	ff000537          	lui	a0,0xff000
     5a8:	fff50513          	addi	a0,a0,-1 # feffffff <immx+0x442f252f>
     5ac:	aaa54593          	xori	a1,a0,-1366
     5b0:	0cb1ac23          	sw	a1,216(gp)

000005b4 <inst_77>:
     5b4:	fe000537          	lui	a0,0xfe000
     5b8:	fff50513          	addi	a0,a0,-1 # fdffffff <immx+0x432f252f>
     5bc:	ff854593          	xori	a1,a0,-8
     5c0:	0cb1ae23          	sw	a1,220(gp)

000005c4 <inst_78>:
     5c4:	fc000537          	lui	a0,0xfc000
     5c8:	fff50513          	addi	a0,a0,-1 # fbffffff <immx+0x412f252f>
     5cc:	ffe54593          	xori	a1,a0,-2
     5d0:	0eb1a023          	sw	a1,224(gp)

000005d4 <inst_79>:
     5d4:	f8000537          	lui	a0,0xf8000
     5d8:	fff50513          	addi	a0,a0,-1 # f7ffffff <immx+0x3d2f252f>
     5dc:	c0054593          	xori	a1,a0,-1024
     5e0:	0eb1a223          	sw	a1,228(gp)

000005e4 <inst_80>:
     5e4:	f0000537          	lui	a0,0xf0000
     5e8:	fff50513          	addi	a0,a0,-1 # efffffff <immx+0x352f252f>
     5ec:	fd454593          	xori	a1,a0,-44
     5f0:	0eb1a423          	sw	a1,232(gp)

000005f4 <inst_81>:
     5f4:	e0000537          	lui	a0,0xe0000
     5f8:	fff50513          	addi	a0,a0,-1 # dfffffff <immx+0x252f252f>
     5fc:	eff54593          	xori	a1,a0,-257
     600:	0eb1a623          	sw	a1,236(gp)

00000604 <inst_82>:
     604:	aaaab537          	lui	a0,0xaaaab
     608:	aaa50513          	addi	a0,a0,-1366 # aaaaaaaa <absimm+0x657b857b>
     60c:	20054593          	xori	a1,a0,512
     610:	0eb1a823          	sw	a1,240(gp)

00000614 <inst_83>:
     614:	00300513          	addi	a0,zero,3
     618:	00354593          	xori	a1,a0,3
     61c:	0eb1aa23          	sw	a1,244(gp)

00000620 <inst_84>:
     620:	00300513          	addi	a0,zero,3
     624:	55554593          	xori	a1,a0,1365
     628:	0eb1ac23          	sw	a1,248(gp)

0000062c <inst_85>:
     62c:	00300513          	addi	a0,zero,3
     630:	aaa54593          	xori	a1,a0,-1366
     634:	0eb1ae23          	sw	a1,252(gp)

00000638 <inst_86>:
     638:	00300513          	addi	a0,zero,3
     63c:	00554593          	xori	a1,a0,5
     640:	10b1a023          	sw	a1,256(gp)

00000644 <inst_87>:
     644:	00300513          	addi	a0,zero,3
     648:	33354593          	xori	a1,a0,819
     64c:	10b1a223          	sw	a1,260(gp)

00000650 <inst_88>:
     650:	00300513          	addi	a0,zero,3
     654:	66654593          	xori	a1,a0,1638
     658:	10b1a423          	sw	a1,264(gp)

0000065c <inst_89>:
     65c:	00300513          	addi	a0,zero,3
     660:	fd354593          	xori	a1,a0,-45
     664:	10b1a623          	sw	a1,268(gp)

00000668 <inst_90>:
     668:	00300513          	addi	a0,zero,3
     66c:	02d54593          	xori	a1,a0,45
     670:	10b1a823          	sw	a1,272(gp)

00000674 <inst_91>:
     674:	00300513          	addi	a0,zero,3
     678:	00254593          	xori	a1,a0,2
     67c:	10b1aa23          	sw	a1,276(gp)

00000680 <inst_92>:
     680:	00300513          	addi	a0,zero,3
     684:	55454593          	xori	a1,a0,1364
     688:	10b1ac23          	sw	a1,280(gp)

0000068c <inst_93>:
     68c:	00300513          	addi	a0,zero,3
     690:	00054593          	xori	a1,a0,0
     694:	10b1ae23          	sw	a1,284(gp)

00000698 <inst_94>:
     698:	00300513          	addi	a0,zero,3
     69c:	00454593          	xori	a1,a0,4
     6a0:	12b1a023          	sw	a1,288(gp)

000006a4 <inst_95>:
     6a4:	00300513          	addi	a0,zero,3
     6a8:	33254593          	xori	a1,a0,818
     6ac:	12b1a223          	sw	a1,292(gp)

000006b0 <inst_96>:
     6b0:	00300513          	addi	a0,zero,3
     6b4:	66554593          	xori	a1,a0,1637
     6b8:	12b1a423          	sw	a1,296(gp)

000006bc <inst_97>:
     6bc:	00300513          	addi	a0,zero,3
     6c0:	02c54593          	xori	a1,a0,44
     6c4:	12b1a623          	sw	a1,300(gp)

000006c8 <inst_98>:
     6c8:	00300513          	addi	a0,zero,3
     6cc:	55654593          	xori	a1,a0,1366
     6d0:	12b1a823          	sw	a1,304(gp)

000006d4 <inst_99>:
     6d4:	00300513          	addi	a0,zero,3
     6d8:	aab54593          	xori	a1,a0,-1365
     6dc:	12b1aa23          	sw	a1,308(gp)

000006e0 <inst_100>:
     6e0:	00300513          	addi	a0,zero,3
     6e4:	00654593          	xori	a1,a0,6
     6e8:	12b1ac23          	sw	a1,312(gp)

000006ec <inst_101>:
     6ec:	00300513          	addi	a0,zero,3
     6f0:	33454593          	xori	a1,a0,820
     6f4:	12b1ae23          	sw	a1,316(gp)

000006f8 <inst_102>:
     6f8:	00300513          	addi	a0,zero,3
     6fc:	66754593          	xori	a1,a0,1639
     700:	14b1a023          	sw	a1,320(gp)

00000704 <inst_103>:
     704:	00300513          	addi	a0,zero,3
     708:	fd454593          	xori	a1,a0,-44
     70c:	14b1a223          	sw	a1,324(gp)

00000710 <inst_104>:
     710:	00300513          	addi	a0,zero,3
     714:	02e54593          	xori	a1,a0,46
     718:	14b1a423          	sw	a1,328(gp)

0000071c <inst_105>:
     71c:	55555537          	lui	a0,0x55555
     720:	55550513          	addi	a0,a0,1365 # 55555555 <absimm+0x10263026>
     724:	00354593          	xori	a1,a0,3
     728:	14b1a623          	sw	a1,332(gp)

0000072c <inst_106>:
     72c:	55555537          	lui	a0,0x55555
     730:	55550513          	addi	a0,a0,1365 # 55555555 <absimm+0x10263026>
     734:	55554593          	xori	a1,a0,1365
     738:	14b1a823          	sw	a1,336(gp)

0000073c <inst_107>:
     73c:	55555537          	lui	a0,0x55555
     740:	55550513          	addi	a0,a0,1365 # 55555555 <absimm+0x10263026>
     744:	aaa54593          	xori	a1,a0,-1366
     748:	14b1aa23          	sw	a1,340(gp)

0000074c <inst_108>:
     74c:	55555537          	lui	a0,0x55555
     750:	55550513          	addi	a0,a0,1365 # 55555555 <absimm+0x10263026>
     754:	00554593          	xori	a1,a0,5
     758:	14b1ac23          	sw	a1,344(gp)

0000075c <inst_109>:
     75c:	55555537          	lui	a0,0x55555
     760:	55550513          	addi	a0,a0,1365 # 55555555 <absimm+0x10263026>
     764:	33354593          	xori	a1,a0,819
     768:	14b1ae23          	sw	a1,348(gp)

0000076c <inst_110>:
     76c:	55555537          	lui	a0,0x55555
     770:	55550513          	addi	a0,a0,1365 # 55555555 <absimm+0x10263026>
     774:	66654593          	xori	a1,a0,1638
     778:	16b1a023          	sw	a1,352(gp)

0000077c <inst_111>:
     77c:	55555537          	lui	a0,0x55555
     780:	55550513          	addi	a0,a0,1365 # 55555555 <absimm+0x10263026>
     784:	fd354593          	xori	a1,a0,-45
     788:	16b1a223          	sw	a1,356(gp)

0000078c <inst_112>:
     78c:	55555537          	lui	a0,0x55555
     790:	55550513          	addi	a0,a0,1365 # 55555555 <absimm+0x10263026>
     794:	02d54593          	xori	a1,a0,45
     798:	16b1a423          	sw	a1,360(gp)

0000079c <inst_113>:
     79c:	55555537          	lui	a0,0x55555
     7a0:	55550513          	addi	a0,a0,1365 # 55555555 <absimm+0x10263026>
     7a4:	00254593          	xori	a1,a0,2
     7a8:	16b1a623          	sw	a1,364(gp)

000007ac <inst_114>:
     7ac:	55555537          	lui	a0,0x55555
     7b0:	55550513          	addi	a0,a0,1365 # 55555555 <absimm+0x10263026>
     7b4:	55454593          	xori	a1,a0,1364
     7b8:	16b1a823          	sw	a1,368(gp)

000007bc <inst_115>:
     7bc:	55555537          	lui	a0,0x55555
     7c0:	55550513          	addi	a0,a0,1365 # 55555555 <absimm+0x10263026>
     7c4:	00054593          	xori	a1,a0,0
     7c8:	16b1aa23          	sw	a1,372(gp)

000007cc <inst_116>:
     7cc:	55555537          	lui	a0,0x55555
     7d0:	55550513          	addi	a0,a0,1365 # 55555555 <absimm+0x10263026>
     7d4:	00454593          	xori	a1,a0,4
     7d8:	16b1ac23          	sw	a1,376(gp)

000007dc <inst_117>:
     7dc:	55555537          	lui	a0,0x55555
     7e0:	55550513          	addi	a0,a0,1365 # 55555555 <absimm+0x10263026>
     7e4:	33254593          	xori	a1,a0,818
     7e8:	16b1ae23          	sw	a1,380(gp)

000007ec <inst_118>:
     7ec:	55555537          	lui	a0,0x55555
     7f0:	55550513          	addi	a0,a0,1365 # 55555555 <absimm+0x10263026>
     7f4:	66554593          	xori	a1,a0,1637
     7f8:	18b1a023          	sw	a1,384(gp)

000007fc <inst_119>:
     7fc:	55555537          	lui	a0,0x55555
     800:	55550513          	addi	a0,a0,1365 # 55555555 <absimm+0x10263026>
     804:	02c54593          	xori	a1,a0,44
     808:	18b1a223          	sw	a1,388(gp)

0000080c <inst_120>:
     80c:	55555537          	lui	a0,0x55555
     810:	55550513          	addi	a0,a0,1365 # 55555555 <absimm+0x10263026>
     814:	55654593          	xori	a1,a0,1366
     818:	18b1a423          	sw	a1,392(gp)

0000081c <inst_121>:
     81c:	55555537          	lui	a0,0x55555
     820:	55550513          	addi	a0,a0,1365 # 55555555 <absimm+0x10263026>
     824:	aab54593          	xori	a1,a0,-1365
     828:	18b1a623          	sw	a1,396(gp)

0000082c <inst_122>:
     82c:	55555537          	lui	a0,0x55555
     830:	55550513          	addi	a0,a0,1365 # 55555555 <absimm+0x10263026>
     834:	00654593          	xori	a1,a0,6
     838:	18b1a823          	sw	a1,400(gp)

0000083c <inst_123>:
     83c:	55555537          	lui	a0,0x55555
     840:	55550513          	addi	a0,a0,1365 # 55555555 <absimm+0x10263026>
     844:	33454593          	xori	a1,a0,820
     848:	18b1aa23          	sw	a1,404(gp)

0000084c <inst_124>:
     84c:	55555537          	lui	a0,0x55555
     850:	55550513          	addi	a0,a0,1365 # 55555555 <absimm+0x10263026>
     854:	66754593          	xori	a1,a0,1639
     858:	18b1ac23          	sw	a1,408(gp)

0000085c <inst_125>:
     85c:	55555537          	lui	a0,0x55555
     860:	55550513          	addi	a0,a0,1365 # 55555555 <absimm+0x10263026>
     864:	fd454593          	xori	a1,a0,-44
     868:	18b1ae23          	sw	a1,412(gp)

0000086c <inst_126>:
     86c:	55555537          	lui	a0,0x55555
     870:	55550513          	addi	a0,a0,1365 # 55555555 <absimm+0x10263026>
     874:	02e54593          	xori	a1,a0,46
     878:	1ab1a023          	sw	a1,416(gp)

0000087c <inst_127>:
     87c:	aaaab537          	lui	a0,0xaaaab
     880:	aaa50513          	addi	a0,a0,-1366 # aaaaaaaa <absimm+0x657b857b>
     884:	00354593          	xori	a1,a0,3
     888:	1ab1a223          	sw	a1,420(gp)

0000088c <inst_128>:
     88c:	aaaab537          	lui	a0,0xaaaab
     890:	aaa50513          	addi	a0,a0,-1366 # aaaaaaaa <absimm+0x657b857b>
     894:	55554593          	xori	a1,a0,1365
     898:	1ab1a423          	sw	a1,424(gp)

0000089c <inst_129>:
     89c:	aaaab537          	lui	a0,0xaaaab
     8a0:	aaa50513          	addi	a0,a0,-1366 # aaaaaaaa <absimm+0x657b857b>
     8a4:	aaa54593          	xori	a1,a0,-1366
     8a8:	1ab1a623          	sw	a1,428(gp)

000008ac <inst_130>:
     8ac:	aaaab537          	lui	a0,0xaaaab
     8b0:	aaa50513          	addi	a0,a0,-1366 # aaaaaaaa <absimm+0x657b857b>
     8b4:	00554593          	xori	a1,a0,5
     8b8:	1ab1a823          	sw	a1,432(gp)

000008bc <inst_131>:
     8bc:	aaaab537          	lui	a0,0xaaaab
     8c0:	aaa50513          	addi	a0,a0,-1366 # aaaaaaaa <absimm+0x657b857b>
     8c4:	33354593          	xori	a1,a0,819
     8c8:	1ab1aa23          	sw	a1,436(gp)

000008cc <inst_132>:
     8cc:	aaaab537          	lui	a0,0xaaaab
     8d0:	aaa50513          	addi	a0,a0,-1366 # aaaaaaaa <absimm+0x657b857b>
     8d4:	66654593          	xori	a1,a0,1638
     8d8:	1ab1ac23          	sw	a1,440(gp)

000008dc <inst_133>:
     8dc:	aaaab537          	lui	a0,0xaaaab
     8e0:	aaa50513          	addi	a0,a0,-1366 # aaaaaaaa <absimm+0x657b857b>
     8e4:	fd354593          	xori	a1,a0,-45
     8e8:	1ab1ae23          	sw	a1,444(gp)

000008ec <inst_134>:
     8ec:	aaaab537          	lui	a0,0xaaaab
     8f0:	aaa50513          	addi	a0,a0,-1366 # aaaaaaaa <absimm+0x657b857b>
     8f4:	02d54593          	xori	a1,a0,45
     8f8:	1cb1a023          	sw	a1,448(gp)

000008fc <inst_135>:
     8fc:	aaaab537          	lui	a0,0xaaaab
     900:	aaa50513          	addi	a0,a0,-1366 # aaaaaaaa <absimm+0x657b857b>
     904:	00254593          	xori	a1,a0,2
     908:	1cb1a223          	sw	a1,452(gp)

0000090c <inst_136>:
     90c:	aaaab537          	lui	a0,0xaaaab
     910:	aaa50513          	addi	a0,a0,-1366 # aaaaaaaa <absimm+0x657b857b>
     914:	55454593          	xori	a1,a0,1364
     918:	1cb1a423          	sw	a1,456(gp)

0000091c <inst_137>:
     91c:	aaaab537          	lui	a0,0xaaaab
     920:	aaa50513          	addi	a0,a0,-1366 # aaaaaaaa <absimm+0x657b857b>
     924:	00054593          	xori	a1,a0,0
     928:	1cb1a623          	sw	a1,460(gp)

0000092c <inst_138>:
     92c:	aaaab537          	lui	a0,0xaaaab
     930:	aaa50513          	addi	a0,a0,-1366 # aaaaaaaa <absimm+0x657b857b>
     934:	00454593          	xori	a1,a0,4
     938:	1cb1a823          	sw	a1,464(gp)

0000093c <inst_139>:
     93c:	aaaab537          	lui	a0,0xaaaab
     940:	aaa50513          	addi	a0,a0,-1366 # aaaaaaaa <absimm+0x657b857b>
     944:	33254593          	xori	a1,a0,818
     948:	1cb1aa23          	sw	a1,468(gp)

0000094c <inst_140>:
     94c:	aaaab537          	lui	a0,0xaaaab
     950:	aaa50513          	addi	a0,a0,-1366 # aaaaaaaa <absimm+0x657b857b>
     954:	66554593          	xori	a1,a0,1637
     958:	1cb1ac23          	sw	a1,472(gp)

0000095c <inst_141>:
     95c:	aaaab537          	lui	a0,0xaaaab
     960:	aaa50513          	addi	a0,a0,-1366 # aaaaaaaa <absimm+0x657b857b>
     964:	02c54593          	xori	a1,a0,44
     968:	1cb1ae23          	sw	a1,476(gp)

0000096c <inst_142>:
     96c:	aaaab537          	lui	a0,0xaaaab
     970:	aaa50513          	addi	a0,a0,-1366 # aaaaaaaa <absimm+0x657b857b>
     974:	55654593          	xori	a1,a0,1366
     978:	1eb1a023          	sw	a1,480(gp)

0000097c <inst_143>:
     97c:	aaaab537          	lui	a0,0xaaaab
     980:	aaa50513          	addi	a0,a0,-1366 # aaaaaaaa <absimm+0x657b857b>
     984:	aab54593          	xori	a1,a0,-1365
     988:	1eb1a223          	sw	a1,484(gp)

0000098c <inst_144>:
     98c:	aaaab537          	lui	a0,0xaaaab
     990:	aaa50513          	addi	a0,a0,-1366 # aaaaaaaa <absimm+0x657b857b>
     994:	00654593          	xori	a1,a0,6
     998:	1eb1a423          	sw	a1,488(gp)

0000099c <inst_145>:
     99c:	aaaab537          	lui	a0,0xaaaab
     9a0:	aaa50513          	addi	a0,a0,-1366 # aaaaaaaa <absimm+0x657b857b>
     9a4:	33454593          	xori	a1,a0,820
     9a8:	1eb1a623          	sw	a1,492(gp)

000009ac <inst_146>:
     9ac:	aaaab537          	lui	a0,0xaaaab
     9b0:	aaa50513          	addi	a0,a0,-1366 # aaaaaaaa <absimm+0x657b857b>
     9b4:	66754593          	xori	a1,a0,1639
     9b8:	1eb1a823          	sw	a1,496(gp)

000009bc <inst_147>:
     9bc:	aaaab537          	lui	a0,0xaaaab
     9c0:	aaa50513          	addi	a0,a0,-1366 # aaaaaaaa <absimm+0x657b857b>
     9c4:	fd454593          	xori	a1,a0,-44
     9c8:	1eb1aa23          	sw	a1,500(gp)

000009cc <inst_148>:
     9cc:	aaaab537          	lui	a0,0xaaaab
     9d0:	aaa50513          	addi	a0,a0,-1366 # aaaaaaaa <absimm+0x657b857b>
     9d4:	02e54593          	xori	a1,a0,46
     9d8:	1eb1ac23          	sw	a1,504(gp)

000009dc <inst_149>:
     9dc:	00500513          	addi	a0,zero,5
     9e0:	00354593          	xori	a1,a0,3
     9e4:	1eb1ae23          	sw	a1,508(gp)

000009e8 <inst_150>:
     9e8:	00500513          	addi	a0,zero,5
     9ec:	55554593          	xori	a1,a0,1365
     9f0:	20b1a023          	sw	a1,512(gp)

000009f4 <inst_151>:
     9f4:	00500513          	addi	a0,zero,5
     9f8:	aaa54593          	xori	a1,a0,-1366
     9fc:	20b1a223          	sw	a1,516(gp)

00000a00 <inst_152>:
     a00:	00500513          	addi	a0,zero,5
     a04:	00554593          	xori	a1,a0,5
     a08:	20b1a423          	sw	a1,520(gp)

00000a0c <inst_153>:
     a0c:	00500513          	addi	a0,zero,5
     a10:	33354593          	xori	a1,a0,819
     a14:	20b1a623          	sw	a1,524(gp)

00000a18 <inst_154>:
     a18:	00500513          	addi	a0,zero,5
     a1c:	66654593          	xori	a1,a0,1638
     a20:	20b1a823          	sw	a1,528(gp)

00000a24 <inst_155>:
     a24:	00500513          	addi	a0,zero,5
     a28:	fd354593          	xori	a1,a0,-45
     a2c:	20b1aa23          	sw	a1,532(gp)

00000a30 <inst_156>:
     a30:	00500513          	addi	a0,zero,5
     a34:	02d54593          	xori	a1,a0,45
     a38:	20b1ac23          	sw	a1,536(gp)

00000a3c <inst_157>:
     a3c:	00500513          	addi	a0,zero,5
     a40:	00254593          	xori	a1,a0,2
     a44:	20b1ae23          	sw	a1,540(gp)

00000a48 <inst_158>:
     a48:	00500513          	addi	a0,zero,5
     a4c:	55454593          	xori	a1,a0,1364
     a50:	22b1a023          	sw	a1,544(gp)

00000a54 <inst_159>:
     a54:	00500513          	addi	a0,zero,5
     a58:	00054593          	xori	a1,a0,0
     a5c:	22b1a223          	sw	a1,548(gp)

00000a60 <inst_160>:
     a60:	00500513          	addi	a0,zero,5
     a64:	00454593          	xori	a1,a0,4
     a68:	22b1a423          	sw	a1,552(gp)

00000a6c <inst_161>:
     a6c:	00500513          	addi	a0,zero,5
     a70:	33254593          	xori	a1,a0,818
     a74:	22b1a623          	sw	a1,556(gp)

00000a78 <inst_162>:
     a78:	00500513          	addi	a0,zero,5
     a7c:	66554593          	xori	a1,a0,1637
     a80:	22b1a823          	sw	a1,560(gp)

00000a84 <inst_163>:
     a84:	00500513          	addi	a0,zero,5
     a88:	02c54593          	xori	a1,a0,44
     a8c:	22b1aa23          	sw	a1,564(gp)

00000a90 <inst_164>:
     a90:	00500513          	addi	a0,zero,5
     a94:	55654593          	xori	a1,a0,1366
     a98:	22b1ac23          	sw	a1,568(gp)

00000a9c <inst_165>:
     a9c:	00500513          	addi	a0,zero,5
     aa0:	aab54593          	xori	a1,a0,-1365
     aa4:	22b1ae23          	sw	a1,572(gp)

00000aa8 <inst_166>:
     aa8:	00500513          	addi	a0,zero,5
     aac:	00654593          	xori	a1,a0,6
     ab0:	24b1a023          	sw	a1,576(gp)

00000ab4 <inst_167>:
     ab4:	00500513          	addi	a0,zero,5
     ab8:	33454593          	xori	a1,a0,820
     abc:	24b1a223          	sw	a1,580(gp)

00000ac0 <inst_168>:
     ac0:	00500513          	addi	a0,zero,5
     ac4:	66754593          	xori	a1,a0,1639
     ac8:	24b1a423          	sw	a1,584(gp)

00000acc <inst_169>:
     acc:	00500513          	addi	a0,zero,5
     ad0:	fd454593          	xori	a1,a0,-44
     ad4:	24b1a623          	sw	a1,588(gp)

00000ad8 <inst_170>:
     ad8:	00500513          	addi	a0,zero,5
     adc:	02e54593          	xori	a1,a0,46
     ae0:	24b1a823          	sw	a1,592(gp)

00000ae4 <inst_171>:
     ae4:	33333537          	lui	a0,0x33333
     ae8:	33350513          	addi	a0,a0,819 # 33333333 <_end+0x3332982b>
     aec:	00354593          	xori	a1,a0,3
     af0:	24b1aa23          	sw	a1,596(gp)

00000af4 <inst_172>:
     af4:	33333537          	lui	a0,0x33333
     af8:	33350513          	addi	a0,a0,819 # 33333333 <_end+0x3332982b>
     afc:	55554593          	xori	a1,a0,1365
     b00:	24b1ac23          	sw	a1,600(gp)

00000b04 <inst_173>:
     b04:	33333537          	lui	a0,0x33333
     b08:	33350513          	addi	a0,a0,819 # 33333333 <_end+0x3332982b>
     b0c:	aaa54593          	xori	a1,a0,-1366
     b10:	24b1ae23          	sw	a1,604(gp)

00000b14 <inst_174>:
     b14:	33333537          	lui	a0,0x33333
     b18:	33350513          	addi	a0,a0,819 # 33333333 <_end+0x3332982b>
     b1c:	00554593          	xori	a1,a0,5
     b20:	26b1a023          	sw	a1,608(gp)

00000b24 <inst_175>:
     b24:	33333537          	lui	a0,0x33333
     b28:	33350513          	addi	a0,a0,819 # 33333333 <_end+0x3332982b>
     b2c:	33354593          	xori	a1,a0,819
     b30:	26b1a223          	sw	a1,612(gp)

00000b34 <inst_176>:
     b34:	33333537          	lui	a0,0x33333
     b38:	33350513          	addi	a0,a0,819 # 33333333 <_end+0x3332982b>
     b3c:	66654593          	xori	a1,a0,1638
     b40:	26b1a423          	sw	a1,616(gp)

00000b44 <inst_177>:
     b44:	33333537          	lui	a0,0x33333
     b48:	33350513          	addi	a0,a0,819 # 33333333 <_end+0x3332982b>
     b4c:	fd354593          	xori	a1,a0,-45
     b50:	26b1a623          	sw	a1,620(gp)

00000b54 <inst_178>:
     b54:	33333537          	lui	a0,0x33333
     b58:	33350513          	addi	a0,a0,819 # 33333333 <_end+0x3332982b>
     b5c:	02d54593          	xori	a1,a0,45
     b60:	26b1a823          	sw	a1,624(gp)

00000b64 <inst_179>:
     b64:	33333537          	lui	a0,0x33333
     b68:	33350513          	addi	a0,a0,819 # 33333333 <_end+0x3332982b>
     b6c:	00254593          	xori	a1,a0,2
     b70:	26b1aa23          	sw	a1,628(gp)

00000b74 <inst_180>:
     b74:	33333537          	lui	a0,0x33333
     b78:	33350513          	addi	a0,a0,819 # 33333333 <_end+0x3332982b>
     b7c:	55454593          	xori	a1,a0,1364
     b80:	26b1ac23          	sw	a1,632(gp)

00000b84 <inst_181>:
     b84:	33333537          	lui	a0,0x33333
     b88:	33350513          	addi	a0,a0,819 # 33333333 <_end+0x3332982b>
     b8c:	00054593          	xori	a1,a0,0
     b90:	26b1ae23          	sw	a1,636(gp)

00000b94 <inst_182>:
     b94:	33333537          	lui	a0,0x33333
     b98:	33350513          	addi	a0,a0,819 # 33333333 <_end+0x3332982b>
     b9c:	00454593          	xori	a1,a0,4
     ba0:	28b1a023          	sw	a1,640(gp)

00000ba4 <inst_183>:
     ba4:	33333537          	lui	a0,0x33333
     ba8:	33350513          	addi	a0,a0,819 # 33333333 <_end+0x3332982b>
     bac:	33254593          	xori	a1,a0,818
     bb0:	28b1a223          	sw	a1,644(gp)

00000bb4 <inst_184>:
     bb4:	33333537          	lui	a0,0x33333
     bb8:	33350513          	addi	a0,a0,819 # 33333333 <_end+0x3332982b>
     bbc:	66554593          	xori	a1,a0,1637
     bc0:	28b1a423          	sw	a1,648(gp)

00000bc4 <inst_185>:
     bc4:	33333537          	lui	a0,0x33333
     bc8:	33350513          	addi	a0,a0,819 # 33333333 <_end+0x3332982b>
     bcc:	02c54593          	xori	a1,a0,44
     bd0:	28b1a623          	sw	a1,652(gp)

00000bd4 <inst_186>:
     bd4:	33333537          	lui	a0,0x33333
     bd8:	33350513          	addi	a0,a0,819 # 33333333 <_end+0x3332982b>
     bdc:	55654593          	xori	a1,a0,1366
     be0:	28b1a823          	sw	a1,656(gp)

00000be4 <inst_187>:
     be4:	33333537          	lui	a0,0x33333
     be8:	33350513          	addi	a0,a0,819 # 33333333 <_end+0x3332982b>
     bec:	aab54593          	xori	a1,a0,-1365
     bf0:	28b1aa23          	sw	a1,660(gp)

00000bf4 <inst_188>:
     bf4:	33333537          	lui	a0,0x33333
     bf8:	33350513          	addi	a0,a0,819 # 33333333 <_end+0x3332982b>
     bfc:	00654593          	xori	a1,a0,6
     c00:	28b1ac23          	sw	a1,664(gp)

00000c04 <inst_189>:
     c04:	33333537          	lui	a0,0x33333
     c08:	33350513          	addi	a0,a0,819 # 33333333 <_end+0x3332982b>
     c0c:	33454593          	xori	a1,a0,820
     c10:	28b1ae23          	sw	a1,668(gp)

00000c14 <inst_190>:
     c14:	33333537          	lui	a0,0x33333
     c18:	33350513          	addi	a0,a0,819 # 33333333 <_end+0x3332982b>
     c1c:	66754593          	xori	a1,a0,1639
     c20:	2ab1a023          	sw	a1,672(gp)

00000c24 <inst_191>:
     c24:	33333537          	lui	a0,0x33333
     c28:	33350513          	addi	a0,a0,819 # 33333333 <_end+0x3332982b>
     c2c:	fd454593          	xori	a1,a0,-44
     c30:	2ab1a223          	sw	a1,676(gp)

00000c34 <inst_192>:
     c34:	33333537          	lui	a0,0x33333
     c38:	33350513          	addi	a0,a0,819 # 33333333 <_end+0x3332982b>
     c3c:	02e54593          	xori	a1,a0,46
     c40:	2ab1a423          	sw	a1,680(gp)

00000c44 <inst_193>:
     c44:	66666537          	lui	a0,0x66666
     c48:	66650513          	addi	a0,a0,1638 # 66666666 <absimm+0x21374137>
     c4c:	00354593          	xori	a1,a0,3
     c50:	2ab1a623          	sw	a1,684(gp)

00000c54 <inst_194>:
     c54:	66666537          	lui	a0,0x66666
     c58:	66650513          	addi	a0,a0,1638 # 66666666 <absimm+0x21374137>
     c5c:	55554593          	xori	a1,a0,1365
     c60:	2ab1a823          	sw	a1,688(gp)

00000c64 <inst_195>:
     c64:	66666537          	lui	a0,0x66666
     c68:	66650513          	addi	a0,a0,1638 # 66666666 <absimm+0x21374137>
     c6c:	aaa54593          	xori	a1,a0,-1366
     c70:	2ab1aa23          	sw	a1,692(gp)

00000c74 <inst_196>:
     c74:	66666537          	lui	a0,0x66666
     c78:	66650513          	addi	a0,a0,1638 # 66666666 <absimm+0x21374137>
     c7c:	00554593          	xori	a1,a0,5
     c80:	2ab1ac23          	sw	a1,696(gp)

00000c84 <inst_197>:
     c84:	66666537          	lui	a0,0x66666
     c88:	66650513          	addi	a0,a0,1638 # 66666666 <absimm+0x21374137>
     c8c:	33354593          	xori	a1,a0,819
     c90:	2ab1ae23          	sw	a1,700(gp)

00000c94 <inst_198>:
     c94:	66666537          	lui	a0,0x66666
     c98:	66650513          	addi	a0,a0,1638 # 66666666 <absimm+0x21374137>
     c9c:	66654593          	xori	a1,a0,1638
     ca0:	2cb1a023          	sw	a1,704(gp)

00000ca4 <inst_199>:
     ca4:	66666537          	lui	a0,0x66666
     ca8:	66650513          	addi	a0,a0,1638 # 66666666 <absimm+0x21374137>
     cac:	fd354593          	xori	a1,a0,-45
     cb0:	2cb1a223          	sw	a1,708(gp)

00000cb4 <inst_200>:
     cb4:	66666537          	lui	a0,0x66666
     cb8:	66650513          	addi	a0,a0,1638 # 66666666 <absimm+0x21374137>
     cbc:	02d54593          	xori	a1,a0,45
     cc0:	2cb1a423          	sw	a1,712(gp)

00000cc4 <inst_201>:
     cc4:	66666537          	lui	a0,0x66666
     cc8:	66650513          	addi	a0,a0,1638 # 66666666 <absimm+0x21374137>
     ccc:	00254593          	xori	a1,a0,2
     cd0:	2cb1a623          	sw	a1,716(gp)

00000cd4 <inst_202>:
     cd4:	66666537          	lui	a0,0x66666
     cd8:	66650513          	addi	a0,a0,1638 # 66666666 <absimm+0x21374137>
     cdc:	55454593          	xori	a1,a0,1364
     ce0:	2cb1a823          	sw	a1,720(gp)

00000ce4 <inst_203>:
     ce4:	66666537          	lui	a0,0x66666
     ce8:	66650513          	addi	a0,a0,1638 # 66666666 <absimm+0x21374137>
     cec:	00054593          	xori	a1,a0,0
     cf0:	2cb1aa23          	sw	a1,724(gp)

00000cf4 <inst_204>:
     cf4:	66666537          	lui	a0,0x66666
     cf8:	66650513          	addi	a0,a0,1638 # 66666666 <absimm+0x21374137>
     cfc:	00454593          	xori	a1,a0,4
     d00:	2cb1ac23          	sw	a1,728(gp)

00000d04 <inst_205>:
     d04:	66666537          	lui	a0,0x66666
     d08:	66650513          	addi	a0,a0,1638 # 66666666 <absimm+0x21374137>
     d0c:	33254593          	xori	a1,a0,818
     d10:	2cb1ae23          	sw	a1,732(gp)

00000d14 <inst_206>:
     d14:	66666537          	lui	a0,0x66666
     d18:	66650513          	addi	a0,a0,1638 # 66666666 <absimm+0x21374137>
     d1c:	66554593          	xori	a1,a0,1637
     d20:	2eb1a023          	sw	a1,736(gp)

00000d24 <inst_207>:
     d24:	66666537          	lui	a0,0x66666
     d28:	66650513          	addi	a0,a0,1638 # 66666666 <absimm+0x21374137>
     d2c:	02c54593          	xori	a1,a0,44
     d30:	2eb1a223          	sw	a1,740(gp)

00000d34 <inst_208>:
     d34:	66666537          	lui	a0,0x66666
     d38:	66650513          	addi	a0,a0,1638 # 66666666 <absimm+0x21374137>
     d3c:	55654593          	xori	a1,a0,1366
     d40:	2eb1a423          	sw	a1,744(gp)

00000d44 <inst_209>:
     d44:	66666537          	lui	a0,0x66666
     d48:	66650513          	addi	a0,a0,1638 # 66666666 <absimm+0x21374137>
     d4c:	aab54593          	xori	a1,a0,-1365
     d50:	2eb1a623          	sw	a1,748(gp)

00000d54 <inst_210>:
     d54:	66666537          	lui	a0,0x66666
     d58:	66650513          	addi	a0,a0,1638 # 66666666 <absimm+0x21374137>
     d5c:	00654593          	xori	a1,a0,6
     d60:	2eb1a823          	sw	a1,752(gp)

00000d64 <inst_211>:
     d64:	66666537          	lui	a0,0x66666
     d68:	66650513          	addi	a0,a0,1638 # 66666666 <absimm+0x21374137>
     d6c:	33454593          	xori	a1,a0,820
     d70:	2eb1aa23          	sw	a1,756(gp)

00000d74 <inst_212>:
     d74:	66666537          	lui	a0,0x66666
     d78:	66650513          	addi	a0,a0,1638 # 66666666 <absimm+0x21374137>
     d7c:	66754593          	xori	a1,a0,1639
     d80:	2eb1ac23          	sw	a1,760(gp)

00000d84 <inst_213>:
     d84:	66666537          	lui	a0,0x66666
     d88:	66650513          	addi	a0,a0,1638 # 66666666 <absimm+0x21374137>
     d8c:	fd454593          	xori	a1,a0,-44
     d90:	2eb1ae23          	sw	a1,764(gp)

00000d94 <inst_214>:
     d94:	66666537          	lui	a0,0x66666
     d98:	66650513          	addi	a0,a0,1638 # 66666666 <absimm+0x21374137>
     d9c:	02e54593          	xori	a1,a0,46
     da0:	30b1a023          	sw	a1,768(gp)

00000da4 <inst_215>:
     da4:	ffff5537          	lui	a0,0xffff5
     da8:	afc50513          	addi	a0,a0,-1284 # ffff4afc <immx+0x452e702c>
     dac:	00354593          	xori	a1,a0,3
     db0:	30b1a223          	sw	a1,772(gp)

00000db4 <inst_216>:
     db4:	ffff5537          	lui	a0,0xffff5
     db8:	afc50513          	addi	a0,a0,-1284 # ffff4afc <immx+0x452e702c>
     dbc:	55554593          	xori	a1,a0,1365
     dc0:	30b1a423          	sw	a1,776(gp)

00000dc4 <inst_217>:
     dc4:	ffff5537          	lui	a0,0xffff5
     dc8:	afc50513          	addi	a0,a0,-1284 # ffff4afc <immx+0x452e702c>
     dcc:	aaa54593          	xori	a1,a0,-1366
     dd0:	30b1a623          	sw	a1,780(gp)

00000dd4 <inst_218>:
     dd4:	ffff5537          	lui	a0,0xffff5
     dd8:	afc50513          	addi	a0,a0,-1284 # ffff4afc <immx+0x452e702c>
     ddc:	00554593          	xori	a1,a0,5
     de0:	30b1a823          	sw	a1,784(gp)

00000de4 <inst_219>:
     de4:	ffff5537          	lui	a0,0xffff5
     de8:	afc50513          	addi	a0,a0,-1284 # ffff4afc <immx+0x452e702c>
     dec:	33354593          	xori	a1,a0,819
     df0:	30b1aa23          	sw	a1,788(gp)

00000df4 <inst_220>:
     df4:	ffff5537          	lui	a0,0xffff5
     df8:	afc50513          	addi	a0,a0,-1284 # ffff4afc <immx+0x452e702c>
     dfc:	66654593          	xori	a1,a0,1638
     e00:	30b1ac23          	sw	a1,792(gp)

00000e04 <inst_221>:
     e04:	ffff5537          	lui	a0,0xffff5
     e08:	afc50513          	addi	a0,a0,-1284 # ffff4afc <immx+0x452e702c>
     e0c:	fd354593          	xori	a1,a0,-45
     e10:	30b1ae23          	sw	a1,796(gp)

00000e14 <inst_222>:
     e14:	ffff5537          	lui	a0,0xffff5
     e18:	afc50513          	addi	a0,a0,-1284 # ffff4afc <immx+0x452e702c>
     e1c:	02d54593          	xori	a1,a0,45
     e20:	32b1a023          	sw	a1,800(gp)

00000e24 <inst_223>:
     e24:	ffff5537          	lui	a0,0xffff5
     e28:	afc50513          	addi	a0,a0,-1284 # ffff4afc <immx+0x452e702c>
     e2c:	00254593          	xori	a1,a0,2
     e30:	32b1a223          	sw	a1,804(gp)

00000e34 <inst_224>:
     e34:	ffff5537          	lui	a0,0xffff5
     e38:	afc50513          	addi	a0,a0,-1284 # ffff4afc <immx+0x452e702c>
     e3c:	55454593          	xori	a1,a0,1364
     e40:	32b1a423          	sw	a1,808(gp)

00000e44 <inst_225>:
     e44:	ffff5537          	lui	a0,0xffff5
     e48:	afc50513          	addi	a0,a0,-1284 # ffff4afc <immx+0x452e702c>
     e4c:	00054593          	xori	a1,a0,0
     e50:	32b1a623          	sw	a1,812(gp)

00000e54 <inst_226>:
     e54:	ffff5537          	lui	a0,0xffff5
     e58:	afc50513          	addi	a0,a0,-1284 # ffff4afc <immx+0x452e702c>
     e5c:	00454593          	xori	a1,a0,4
     e60:	32b1a823          	sw	a1,816(gp)

00000e64 <inst_227>:
     e64:	ffff5537          	lui	a0,0xffff5
     e68:	afc50513          	addi	a0,a0,-1284 # ffff4afc <immx+0x452e702c>
     e6c:	33254593          	xori	a1,a0,818
     e70:	32b1aa23          	sw	a1,820(gp)

00000e74 <inst_228>:
     e74:	ffff5537          	lui	a0,0xffff5
     e78:	afc50513          	addi	a0,a0,-1284 # ffff4afc <immx+0x452e702c>
     e7c:	66554593          	xori	a1,a0,1637
     e80:	32b1ac23          	sw	a1,824(gp)

00000e84 <inst_229>:
     e84:	ffff5537          	lui	a0,0xffff5
     e88:	afc50513          	addi	a0,a0,-1284 # ffff4afc <immx+0x452e702c>
     e8c:	02c54593          	xori	a1,a0,44
     e90:	32b1ae23          	sw	a1,828(gp)

00000e94 <inst_230>:
     e94:	ffff5537          	lui	a0,0xffff5
     e98:	afc50513          	addi	a0,a0,-1284 # ffff4afc <immx+0x452e702c>
     e9c:	55654593          	xori	a1,a0,1366
     ea0:	34b1a023          	sw	a1,832(gp)

00000ea4 <inst_231>:
     ea4:	ffff5537          	lui	a0,0xffff5
     ea8:	afc50513          	addi	a0,a0,-1284 # ffff4afc <immx+0x452e702c>
     eac:	aab54593          	xori	a1,a0,-1365
     eb0:	34b1a223          	sw	a1,836(gp)

00000eb4 <inst_232>:
     eb4:	ffff5537          	lui	a0,0xffff5
     eb8:	afc50513          	addi	a0,a0,-1284 # ffff4afc <immx+0x452e702c>
     ebc:	00654593          	xori	a1,a0,6
     ec0:	34b1a423          	sw	a1,840(gp)

00000ec4 <inst_233>:
     ec4:	ffff5537          	lui	a0,0xffff5
     ec8:	afc50513          	addi	a0,a0,-1284 # ffff4afc <immx+0x452e702c>
     ecc:	33454593          	xori	a1,a0,820
     ed0:	34b1a623          	sw	a1,844(gp)

00000ed4 <inst_234>:
     ed4:	ffff5537          	lui	a0,0xffff5
     ed8:	afc50513          	addi	a0,a0,-1284 # ffff4afc <immx+0x452e702c>
     edc:	66754593          	xori	a1,a0,1639
     ee0:	34b1a823          	sw	a1,848(gp)

00000ee4 <inst_235>:
     ee4:	ffff5537          	lui	a0,0xffff5
     ee8:	afc50513          	addi	a0,a0,-1284 # ffff4afc <immx+0x452e702c>
     eec:	fd454593          	xori	a1,a0,-44
     ef0:	34b1aa23          	sw	a1,852(gp)

00000ef4 <inst_236>:
     ef4:	ffff5537          	lui	a0,0xffff5
     ef8:	afc50513          	addi	a0,a0,-1284 # ffff4afc <immx+0x452e702c>
     efc:	02e54593          	xori	a1,a0,46
     f00:	34b1ac23          	sw	a1,856(gp)

00000f04 <inst_237>:
     f04:	0000b537          	lui	a0,0xb
     f08:	50450513          	addi	a0,a0,1284 # b504 <_end+0x19fc>
     f0c:	00354593          	xori	a1,a0,3
     f10:	34b1ae23          	sw	a1,860(gp)

00000f14 <inst_238>:
     f14:	0000b537          	lui	a0,0xb
     f18:	50450513          	addi	a0,a0,1284 # b504 <_end+0x19fc>
     f1c:	55554593          	xori	a1,a0,1365
     f20:	36b1a023          	sw	a1,864(gp)

00000f24 <inst_239>:
     f24:	0000b537          	lui	a0,0xb
     f28:	50450513          	addi	a0,a0,1284 # b504 <_end+0x19fc>
     f2c:	aaa54593          	xori	a1,a0,-1366
     f30:	36b1a223          	sw	a1,868(gp)

00000f34 <inst_240>:
     f34:	0000b537          	lui	a0,0xb
     f38:	50450513          	addi	a0,a0,1284 # b504 <_end+0x19fc>
     f3c:	00554593          	xori	a1,a0,5
     f40:	36b1a423          	sw	a1,872(gp)

00000f44 <inst_241>:
     f44:	0000b537          	lui	a0,0xb
     f48:	50450513          	addi	a0,a0,1284 # b504 <_end+0x19fc>
     f4c:	33354593          	xori	a1,a0,819
     f50:	36b1a623          	sw	a1,876(gp)

00000f54 <inst_242>:
     f54:	0000b537          	lui	a0,0xb
     f58:	50450513          	addi	a0,a0,1284 # b504 <_end+0x19fc>
     f5c:	66654593          	xori	a1,a0,1638
     f60:	36b1a823          	sw	a1,880(gp)

00000f64 <inst_243>:
     f64:	0000b537          	lui	a0,0xb
     f68:	50450513          	addi	a0,a0,1284 # b504 <_end+0x19fc>
     f6c:	fd354593          	xori	a1,a0,-45
     f70:	36b1aa23          	sw	a1,884(gp)

00000f74 <inst_244>:
     f74:	0000b537          	lui	a0,0xb
     f78:	50450513          	addi	a0,a0,1284 # b504 <_end+0x19fc>
     f7c:	02d54593          	xori	a1,a0,45
     f80:	36b1ac23          	sw	a1,888(gp)

00000f84 <inst_245>:
     f84:	0000b537          	lui	a0,0xb
     f88:	50450513          	addi	a0,a0,1284 # b504 <_end+0x19fc>
     f8c:	00254593          	xori	a1,a0,2
     f90:	36b1ae23          	sw	a1,892(gp)

00000f94 <inst_246>:
     f94:	0000b537          	lui	a0,0xb
     f98:	50450513          	addi	a0,a0,1284 # b504 <_end+0x19fc>
     f9c:	55454593          	xori	a1,a0,1364
     fa0:	38b1a023          	sw	a1,896(gp)

00000fa4 <inst_247>:
     fa4:	0000b537          	lui	a0,0xb
     fa8:	50450513          	addi	a0,a0,1284 # b504 <_end+0x19fc>
     fac:	00054593          	xori	a1,a0,0
     fb0:	38b1a223          	sw	a1,900(gp)

00000fb4 <inst_248>:
     fb4:	0000b537          	lui	a0,0xb
     fb8:	50450513          	addi	a0,a0,1284 # b504 <_end+0x19fc>
     fbc:	00454593          	xori	a1,a0,4
     fc0:	38b1a423          	sw	a1,904(gp)

00000fc4 <inst_249>:
     fc4:	0000b537          	lui	a0,0xb
     fc8:	50450513          	addi	a0,a0,1284 # b504 <_end+0x19fc>
     fcc:	33254593          	xori	a1,a0,818
     fd0:	38b1a623          	sw	a1,908(gp)

00000fd4 <inst_250>:
     fd4:	0000b537          	lui	a0,0xb
     fd8:	50450513          	addi	a0,a0,1284 # b504 <_end+0x19fc>
     fdc:	66554593          	xori	a1,a0,1637
     fe0:	38b1a823          	sw	a1,912(gp)

00000fe4 <inst_251>:
     fe4:	0000b537          	lui	a0,0xb
     fe8:	50450513          	addi	a0,a0,1284 # b504 <_end+0x19fc>
     fec:	02c54593          	xori	a1,a0,44
     ff0:	38b1aa23          	sw	a1,916(gp)

00000ff4 <inst_252>:
     ff4:	0000b537          	lui	a0,0xb
     ff8:	50450513          	addi	a0,a0,1284 # b504 <_end+0x19fc>
     ffc:	55654593          	xori	a1,a0,1366
    1000:	38b1ac23          	sw	a1,920(gp)

00001004 <inst_253>:
    1004:	0000b537          	lui	a0,0xb
    1008:	50450513          	addi	a0,a0,1284 # b504 <_end+0x19fc>
    100c:	aab54593          	xori	a1,a0,-1365
    1010:	38b1ae23          	sw	a1,924(gp)

00001014 <inst_254>:
    1014:	0000b537          	lui	a0,0xb
    1018:	50450513          	addi	a0,a0,1284 # b504 <_end+0x19fc>
    101c:	00654593          	xori	a1,a0,6
    1020:	3ab1a023          	sw	a1,928(gp)

00001024 <inst_255>:
    1024:	0000b537          	lui	a0,0xb
    1028:	50450513          	addi	a0,a0,1284 # b504 <_end+0x19fc>
    102c:	33454593          	xori	a1,a0,820
    1030:	3ab1a223          	sw	a1,932(gp)

00001034 <inst_256>:
    1034:	0000b537          	lui	a0,0xb
    1038:	50450513          	addi	a0,a0,1284 # b504 <_end+0x19fc>
    103c:	66754593          	xori	a1,a0,1639
    1040:	3ab1a423          	sw	a1,936(gp)

00001044 <inst_257>:
    1044:	0000b537          	lui	a0,0xb
    1048:	50450513          	addi	a0,a0,1284 # b504 <_end+0x19fc>
    104c:	fd454593          	xori	a1,a0,-44
    1050:	3ab1a623          	sw	a1,940(gp)

00001054 <inst_258>:
    1054:	0000b537          	lui	a0,0xb
    1058:	50450513          	addi	a0,a0,1284 # b504 <_end+0x19fc>
    105c:	02e54593          	xori	a1,a0,46
    1060:	3ab1a823          	sw	a1,944(gp)

00001064 <inst_259>:
    1064:	00200513          	addi	a0,zero,2
    1068:	00354593          	xori	a1,a0,3
    106c:	3ab1aa23          	sw	a1,948(gp)

00001070 <inst_260>:
    1070:	00200513          	addi	a0,zero,2
    1074:	55554593          	xori	a1,a0,1365
    1078:	3ab1ac23          	sw	a1,952(gp)

0000107c <inst_261>:
    107c:	00200513          	addi	a0,zero,2
    1080:	aaa54593          	xori	a1,a0,-1366
    1084:	3ab1ae23          	sw	a1,956(gp)

00001088 <inst_262>:
    1088:	00200513          	addi	a0,zero,2
    108c:	00554593          	xori	a1,a0,5
    1090:	3cb1a023          	sw	a1,960(gp)

00001094 <inst_263>:
    1094:	00200513          	addi	a0,zero,2
    1098:	33354593          	xori	a1,a0,819
    109c:	3cb1a223          	sw	a1,964(gp)

000010a0 <inst_264>:
    10a0:	00200513          	addi	a0,zero,2
    10a4:	66654593          	xori	a1,a0,1638
    10a8:	3cb1a423          	sw	a1,968(gp)

000010ac <inst_265>:
    10ac:	00200513          	addi	a0,zero,2
    10b0:	fd354593          	xori	a1,a0,-45
    10b4:	3cb1a623          	sw	a1,972(gp)

000010b8 <inst_266>:
    10b8:	00200513          	addi	a0,zero,2
    10bc:	02d54593          	xori	a1,a0,45
    10c0:	3cb1a823          	sw	a1,976(gp)

000010c4 <inst_267>:
    10c4:	00200513          	addi	a0,zero,2
    10c8:	00254593          	xori	a1,a0,2
    10cc:	3cb1aa23          	sw	a1,980(gp)

000010d0 <inst_268>:
    10d0:	00200513          	addi	a0,zero,2
    10d4:	55454593          	xori	a1,a0,1364
    10d8:	3cb1ac23          	sw	a1,984(gp)

000010dc <inst_269>:
    10dc:	00200513          	addi	a0,zero,2
    10e0:	00054593          	xori	a1,a0,0
    10e4:	3cb1ae23          	sw	a1,988(gp)

000010e8 <inst_270>:
    10e8:	00200513          	addi	a0,zero,2
    10ec:	00454593          	xori	a1,a0,4
    10f0:	3eb1a023          	sw	a1,992(gp)

000010f4 <inst_271>:
    10f4:	00200513          	addi	a0,zero,2
    10f8:	33254593          	xori	a1,a0,818
    10fc:	3eb1a223          	sw	a1,996(gp)

00001100 <inst_272>:
    1100:	00200513          	addi	a0,zero,2
    1104:	66554593          	xori	a1,a0,1637
    1108:	3eb1a423          	sw	a1,1000(gp)

0000110c <inst_273>:
    110c:	00200513          	addi	a0,zero,2
    1110:	02c54593          	xori	a1,a0,44
    1114:	3eb1a623          	sw	a1,1004(gp)

00001118 <inst_274>:
    1118:	00200513          	addi	a0,zero,2
    111c:	55654593          	xori	a1,a0,1366
    1120:	3eb1a823          	sw	a1,1008(gp)

00001124 <inst_275>:
    1124:	00200513          	addi	a0,zero,2
    1128:	aab54593          	xori	a1,a0,-1365
    112c:	3eb1aa23          	sw	a1,1012(gp)

00001130 <inst_276>:
    1130:	00200513          	addi	a0,zero,2
    1134:	00654593          	xori	a1,a0,6
    1138:	3eb1ac23          	sw	a1,1016(gp)

0000113c <inst_277>:
    113c:	00200513          	addi	a0,zero,2
    1140:	33454593          	xori	a1,a0,820
    1144:	3eb1ae23          	sw	a1,1020(gp)

00001148 <inst_278>:
    1148:	00200513          	addi	a0,zero,2
    114c:	66754593          	xori	a1,a0,1639
    1150:	40b1a023          	sw	a1,1024(gp)

00001154 <inst_279>:
    1154:	00200513          	addi	a0,zero,2
    1158:	fd454593          	xori	a1,a0,-44
    115c:	40b1a223          	sw	a1,1028(gp)

00001160 <inst_280>:
    1160:	00200513          	addi	a0,zero,2
    1164:	02e54593          	xori	a1,a0,46
    1168:	40b1a423          	sw	a1,1032(gp)

0000116c <inst_281>:
    116c:	55555537          	lui	a0,0x55555
    1170:	55450513          	addi	a0,a0,1364 # 55555554 <absimm+0x10263025>
    1174:	00354593          	xori	a1,a0,3
    1178:	40b1a623          	sw	a1,1036(gp)

0000117c <inst_282>:
    117c:	55555537          	lui	a0,0x55555
    1180:	55450513          	addi	a0,a0,1364 # 55555554 <absimm+0x10263025>
    1184:	55554593          	xori	a1,a0,1365
    1188:	40b1a823          	sw	a1,1040(gp)

0000118c <inst_283>:
    118c:	55555537          	lui	a0,0x55555
    1190:	55450513          	addi	a0,a0,1364 # 55555554 <absimm+0x10263025>
    1194:	aaa54593          	xori	a1,a0,-1366
    1198:	40b1aa23          	sw	a1,1044(gp)

0000119c <inst_284>:
    119c:	55555537          	lui	a0,0x55555
    11a0:	55450513          	addi	a0,a0,1364 # 55555554 <absimm+0x10263025>
    11a4:	00554593          	xori	a1,a0,5
    11a8:	40b1ac23          	sw	a1,1048(gp)

000011ac <inst_285>:
    11ac:	55555537          	lui	a0,0x55555
    11b0:	55450513          	addi	a0,a0,1364 # 55555554 <absimm+0x10263025>
    11b4:	33354593          	xori	a1,a0,819
    11b8:	40b1ae23          	sw	a1,1052(gp)

000011bc <inst_286>:
    11bc:	55555537          	lui	a0,0x55555
    11c0:	55450513          	addi	a0,a0,1364 # 55555554 <absimm+0x10263025>
    11c4:	66654593          	xori	a1,a0,1638
    11c8:	42b1a023          	sw	a1,1056(gp)

000011cc <inst_287>:
    11cc:	55555537          	lui	a0,0x55555
    11d0:	55450513          	addi	a0,a0,1364 # 55555554 <absimm+0x10263025>
    11d4:	fd354593          	xori	a1,a0,-45
    11d8:	42b1a223          	sw	a1,1060(gp)

000011dc <inst_288>:
    11dc:	55555537          	lui	a0,0x55555
    11e0:	55450513          	addi	a0,a0,1364 # 55555554 <absimm+0x10263025>
    11e4:	02d54593          	xori	a1,a0,45
    11e8:	42b1a423          	sw	a1,1064(gp)

000011ec <inst_289>:
    11ec:	55555537          	lui	a0,0x55555
    11f0:	55450513          	addi	a0,a0,1364 # 55555554 <absimm+0x10263025>
    11f4:	00254593          	xori	a1,a0,2
    11f8:	42b1a623          	sw	a1,1068(gp)

000011fc <inst_290>:
    11fc:	55555537          	lui	a0,0x55555
    1200:	55450513          	addi	a0,a0,1364 # 55555554 <absimm+0x10263025>
    1204:	55454593          	xori	a1,a0,1364
    1208:	42b1a823          	sw	a1,1072(gp)

0000120c <inst_291>:
    120c:	55555537          	lui	a0,0x55555
    1210:	55450513          	addi	a0,a0,1364 # 55555554 <absimm+0x10263025>
    1214:	00054593          	xori	a1,a0,0
    1218:	42b1aa23          	sw	a1,1076(gp)

0000121c <inst_292>:
    121c:	55555537          	lui	a0,0x55555
    1220:	55450513          	addi	a0,a0,1364 # 55555554 <absimm+0x10263025>
    1224:	00454593          	xori	a1,a0,4
    1228:	42b1ac23          	sw	a1,1080(gp)

0000122c <inst_293>:
    122c:	55555537          	lui	a0,0x55555
    1230:	55450513          	addi	a0,a0,1364 # 55555554 <absimm+0x10263025>
    1234:	33254593          	xori	a1,a0,818
    1238:	42b1ae23          	sw	a1,1084(gp)

0000123c <inst_294>:
    123c:	55555537          	lui	a0,0x55555
    1240:	55450513          	addi	a0,a0,1364 # 55555554 <absimm+0x10263025>
    1244:	66554593          	xori	a1,a0,1637
    1248:	44b1a023          	sw	a1,1088(gp)

0000124c <inst_295>:
    124c:	55555537          	lui	a0,0x55555
    1250:	55450513          	addi	a0,a0,1364 # 55555554 <absimm+0x10263025>
    1254:	02c54593          	xori	a1,a0,44
    1258:	44b1a223          	sw	a1,1092(gp)

0000125c <inst_296>:
    125c:	55555537          	lui	a0,0x55555
    1260:	55450513          	addi	a0,a0,1364 # 55555554 <absimm+0x10263025>
    1264:	55654593          	xori	a1,a0,1366
    1268:	44b1a423          	sw	a1,1096(gp)

0000126c <inst_297>:
    126c:	55555537          	lui	a0,0x55555
    1270:	55450513          	addi	a0,a0,1364 # 55555554 <absimm+0x10263025>
    1274:	aab54593          	xori	a1,a0,-1365
    1278:	44b1a623          	sw	a1,1100(gp)

0000127c <inst_298>:
    127c:	55555537          	lui	a0,0x55555
    1280:	55450513          	addi	a0,a0,1364 # 55555554 <absimm+0x10263025>
    1284:	00654593          	xori	a1,a0,6
    1288:	44b1a823          	sw	a1,1104(gp)

0000128c <inst_299>:
    128c:	55555537          	lui	a0,0x55555
    1290:	55450513          	addi	a0,a0,1364 # 55555554 <absimm+0x10263025>
    1294:	33454593          	xori	a1,a0,820
    1298:	44b1aa23          	sw	a1,1108(gp)

0000129c <inst_300>:
    129c:	55555537          	lui	a0,0x55555
    12a0:	55450513          	addi	a0,a0,1364 # 55555554 <absimm+0x10263025>
    12a4:	66754593          	xori	a1,a0,1639
    12a8:	44b1ac23          	sw	a1,1112(gp)

000012ac <inst_301>:
    12ac:	55555537          	lui	a0,0x55555
    12b0:	55450513          	addi	a0,a0,1364 # 55555554 <absimm+0x10263025>
    12b4:	fd454593          	xori	a1,a0,-44
    12b8:	44b1ae23          	sw	a1,1116(gp)

000012bc <inst_302>:
    12bc:	55555537          	lui	a0,0x55555
    12c0:	55450513          	addi	a0,a0,1364 # 55555554 <absimm+0x10263025>
    12c4:	02e54593          	xori	a1,a0,46
    12c8:	46b1a023          	sw	a1,1120(gp)

000012cc <inst_303>:
    12cc:	00000513          	addi	a0,zero,0
    12d0:	00354593          	xori	a1,a0,3
    12d4:	46b1a223          	sw	a1,1124(gp)

000012d8 <inst_304>:
    12d8:	00000513          	addi	a0,zero,0
    12dc:	55554593          	xori	a1,a0,1365
    12e0:	46b1a423          	sw	a1,1128(gp)

000012e4 <inst_305>:
    12e4:	00000513          	addi	a0,zero,0
    12e8:	aaa54593          	xori	a1,a0,-1366
    12ec:	46b1a623          	sw	a1,1132(gp)

000012f0 <inst_306>:
    12f0:	00000513          	addi	a0,zero,0
    12f4:	00554593          	xori	a1,a0,5
    12f8:	46b1a823          	sw	a1,1136(gp)

000012fc <inst_307>:
    12fc:	00000513          	addi	a0,zero,0
    1300:	33354593          	xori	a1,a0,819
    1304:	46b1aa23          	sw	a1,1140(gp)

00001308 <inst_308>:
    1308:	00000513          	addi	a0,zero,0
    130c:	66654593          	xori	a1,a0,1638
    1310:	46b1ac23          	sw	a1,1144(gp)

00001314 <inst_309>:
    1314:	00000513          	addi	a0,zero,0
    1318:	fd354593          	xori	a1,a0,-45
    131c:	46b1ae23          	sw	a1,1148(gp)

00001320 <inst_310>:
    1320:	00000513          	addi	a0,zero,0
    1324:	02d54593          	xori	a1,a0,45
    1328:	48b1a023          	sw	a1,1152(gp)

0000132c <inst_311>:
    132c:	33333537          	lui	a0,0x33333
    1330:	33450513          	addi	a0,a0,820 # 33333334 <_end+0x3332982c>
    1334:	33254593          	xori	a1,a0,818
    1338:	48b1a223          	sw	a1,1156(gp)

0000133c <inst_312>:
    133c:	33333537          	lui	a0,0x33333
    1340:	33450513          	addi	a0,a0,820 # 33333334 <_end+0x3332982c>
    1344:	66554593          	xori	a1,a0,1637
    1348:	48b1a423          	sw	a1,1160(gp)

0000134c <inst_313>:
    134c:	33333537          	lui	a0,0x33333
    1350:	33450513          	addi	a0,a0,820 # 33333334 <_end+0x3332982c>
    1354:	02c54593          	xori	a1,a0,44
    1358:	48b1a623          	sw	a1,1164(gp)

0000135c <inst_314>:
    135c:	33333537          	lui	a0,0x33333
    1360:	33450513          	addi	a0,a0,820 # 33333334 <_end+0x3332982c>
    1364:	55654593          	xori	a1,a0,1366
    1368:	48b1a823          	sw	a1,1168(gp)

0000136c <inst_315>:
    136c:	33333537          	lui	a0,0x33333
    1370:	33450513          	addi	a0,a0,820 # 33333334 <_end+0x3332982c>
    1374:	aab54593          	xori	a1,a0,-1365
    1378:	48b1aa23          	sw	a1,1172(gp)

0000137c <inst_316>:
    137c:	33333537          	lui	a0,0x33333
    1380:	33450513          	addi	a0,a0,820 # 33333334 <_end+0x3332982c>
    1384:	00654593          	xori	a1,a0,6
    1388:	48b1ac23          	sw	a1,1176(gp)

0000138c <inst_317>:
    138c:	33333537          	lui	a0,0x33333
    1390:	33450513          	addi	a0,a0,820 # 33333334 <_end+0x3332982c>
    1394:	33454593          	xori	a1,a0,820
    1398:	48b1ae23          	sw	a1,1180(gp)

0000139c <inst_318>:
    139c:	33333537          	lui	a0,0x33333
    13a0:	33450513          	addi	a0,a0,820 # 33333334 <_end+0x3332982c>
    13a4:	66754593          	xori	a1,a0,1639
    13a8:	4ab1a023          	sw	a1,1184(gp)

000013ac <inst_319>:
    13ac:	33333537          	lui	a0,0x33333
    13b0:	33450513          	addi	a0,a0,820 # 33333334 <_end+0x3332982c>
    13b4:	fd454593          	xori	a1,a0,-44
    13b8:	4ab1a223          	sw	a1,1188(gp)

000013bc <inst_320>:
    13bc:	33333537          	lui	a0,0x33333
    13c0:	33450513          	addi	a0,a0,820 # 33333334 <_end+0x3332982c>
    13c4:	02e54593          	xori	a1,a0,46
    13c8:	4ab1a423          	sw	a1,1192(gp)

000013cc <inst_321>:
    13cc:	66666537          	lui	a0,0x66666
    13d0:	66750513          	addi	a0,a0,1639 # 66666667 <absimm+0x21374138>
    13d4:	00354593          	xori	a1,a0,3
    13d8:	4ab1a623          	sw	a1,1196(gp)

000013dc <inst_322>:
    13dc:	66666537          	lui	a0,0x66666
    13e0:	66750513          	addi	a0,a0,1639 # 66666667 <absimm+0x21374138>
    13e4:	55554593          	xori	a1,a0,1365
    13e8:	4ab1a823          	sw	a1,1200(gp)

000013ec <inst_323>:
    13ec:	66666537          	lui	a0,0x66666
    13f0:	66750513          	addi	a0,a0,1639 # 66666667 <absimm+0x21374138>
    13f4:	aaa54593          	xori	a1,a0,-1366
    13f8:	4ab1aa23          	sw	a1,1204(gp)

000013fc <inst_324>:
    13fc:	66666537          	lui	a0,0x66666
    1400:	66750513          	addi	a0,a0,1639 # 66666667 <absimm+0x21374138>
    1404:	00554593          	xori	a1,a0,5
    1408:	4ab1ac23          	sw	a1,1208(gp)

0000140c <inst_325>:
    140c:	66666537          	lui	a0,0x66666
    1410:	66750513          	addi	a0,a0,1639 # 66666667 <absimm+0x21374138>
    1414:	33354593          	xori	a1,a0,819
    1418:	4ab1ae23          	sw	a1,1212(gp)

0000141c <inst_326>:
    141c:	66666537          	lui	a0,0x66666
    1420:	66750513          	addi	a0,a0,1639 # 66666667 <absimm+0x21374138>
    1424:	66654593          	xori	a1,a0,1638
    1428:	4cb1a023          	sw	a1,1216(gp)

0000142c <inst_327>:
    142c:	66666537          	lui	a0,0x66666
    1430:	66750513          	addi	a0,a0,1639 # 66666667 <absimm+0x21374138>
    1434:	fd354593          	xori	a1,a0,-45
    1438:	4cb1a223          	sw	a1,1220(gp)

0000143c <inst_328>:
    143c:	66666537          	lui	a0,0x66666
    1440:	66750513          	addi	a0,a0,1639 # 66666667 <absimm+0x21374138>
    1444:	02d54593          	xori	a1,a0,45
    1448:	4cb1a423          	sw	a1,1224(gp)

0000144c <inst_329>:
    144c:	66666537          	lui	a0,0x66666
    1450:	66750513          	addi	a0,a0,1639 # 66666667 <absimm+0x21374138>
    1454:	00254593          	xori	a1,a0,2
    1458:	4cb1a623          	sw	a1,1228(gp)

0000145c <inst_330>:
    145c:	66666537          	lui	a0,0x66666
    1460:	66750513          	addi	a0,a0,1639 # 66666667 <absimm+0x21374138>
    1464:	55454593          	xori	a1,a0,1364
    1468:	4cb1a823          	sw	a1,1232(gp)

0000146c <inst_331>:
    146c:	66666537          	lui	a0,0x66666
    1470:	66750513          	addi	a0,a0,1639 # 66666667 <absimm+0x21374138>
    1474:	00054593          	xori	a1,a0,0
    1478:	4cb1aa23          	sw	a1,1236(gp)

0000147c <inst_332>:
    147c:	66666537          	lui	a0,0x66666
    1480:	66750513          	addi	a0,a0,1639 # 66666667 <absimm+0x21374138>
    1484:	00454593          	xori	a1,a0,4
    1488:	4cb1ac23          	sw	a1,1240(gp)

0000148c <inst_333>:
    148c:	66666537          	lui	a0,0x66666
    1490:	66750513          	addi	a0,a0,1639 # 66666667 <absimm+0x21374138>
    1494:	33254593          	xori	a1,a0,818
    1498:	4cb1ae23          	sw	a1,1244(gp)

0000149c <inst_334>:
    149c:	66666537          	lui	a0,0x66666
    14a0:	66750513          	addi	a0,a0,1639 # 66666667 <absimm+0x21374138>
    14a4:	66554593          	xori	a1,a0,1637
    14a8:	4eb1a023          	sw	a1,1248(gp)

000014ac <inst_335>:
    14ac:	66666537          	lui	a0,0x66666
    14b0:	66750513          	addi	a0,a0,1639 # 66666667 <absimm+0x21374138>
    14b4:	02c54593          	xori	a1,a0,44
    14b8:	4eb1a223          	sw	a1,1252(gp)

000014bc <inst_336>:
    14bc:	66666537          	lui	a0,0x66666
    14c0:	66750513          	addi	a0,a0,1639 # 66666667 <absimm+0x21374138>
    14c4:	55654593          	xori	a1,a0,1366
    14c8:	4eb1a423          	sw	a1,1256(gp)

000014cc <inst_337>:
    14cc:	66666537          	lui	a0,0x66666
    14d0:	66750513          	addi	a0,a0,1639 # 66666667 <absimm+0x21374138>
    14d4:	aab54593          	xori	a1,a0,-1365
    14d8:	4eb1a623          	sw	a1,1260(gp)

000014dc <inst_338>:
    14dc:	66666537          	lui	a0,0x66666
    14e0:	66750513          	addi	a0,a0,1639 # 66666667 <absimm+0x21374138>
    14e4:	00654593          	xori	a1,a0,6
    14e8:	4eb1a823          	sw	a1,1264(gp)

000014ec <inst_339>:
    14ec:	66666537          	lui	a0,0x66666
    14f0:	66750513          	addi	a0,a0,1639 # 66666667 <absimm+0x21374138>
    14f4:	33454593          	xori	a1,a0,820
    14f8:	4eb1aa23          	sw	a1,1268(gp)

000014fc <inst_340>:
    14fc:	66666537          	lui	a0,0x66666
    1500:	66750513          	addi	a0,a0,1639 # 66666667 <absimm+0x21374138>
    1504:	66754593          	xori	a1,a0,1639
    1508:	4eb1ac23          	sw	a1,1272(gp)

0000150c <inst_341>:
    150c:	66666537          	lui	a0,0x66666
    1510:	66750513          	addi	a0,a0,1639 # 66666667 <absimm+0x21374138>
    1514:	fd454593          	xori	a1,a0,-44
    1518:	4eb1ae23          	sw	a1,1276(gp)

0000151c <inst_342>:
    151c:	66666537          	lui	a0,0x66666
    1520:	66750513          	addi	a0,a0,1639 # 66666667 <absimm+0x21374138>
    1524:	02e54593          	xori	a1,a0,46
    1528:	50b1a023          	sw	a1,1280(gp)

0000152c <inst_343>:
    152c:	ffff5537          	lui	a0,0xffff5
    1530:	afd50513          	addi	a0,a0,-1283 # ffff4afd <immx+0x452e702d>
    1534:	00354593          	xori	a1,a0,3
    1538:	50b1a223          	sw	a1,1284(gp)

0000153c <inst_344>:
    153c:	ffff5537          	lui	a0,0xffff5
    1540:	afd50513          	addi	a0,a0,-1283 # ffff4afd <immx+0x452e702d>
    1544:	55554593          	xori	a1,a0,1365
    1548:	50b1a423          	sw	a1,1288(gp)

0000154c <inst_345>:
    154c:	ffff5537          	lui	a0,0xffff5
    1550:	afd50513          	addi	a0,a0,-1283 # ffff4afd <immx+0x452e702d>
    1554:	aaa54593          	xori	a1,a0,-1366
    1558:	50b1a623          	sw	a1,1292(gp)

0000155c <inst_346>:
    155c:	ffff5537          	lui	a0,0xffff5
    1560:	afd50513          	addi	a0,a0,-1283 # ffff4afd <immx+0x452e702d>
    1564:	00554593          	xori	a1,a0,5
    1568:	50b1a823          	sw	a1,1296(gp)

0000156c <inst_347>:
    156c:	ffff5537          	lui	a0,0xffff5
    1570:	afd50513          	addi	a0,a0,-1283 # ffff4afd <immx+0x452e702d>
    1574:	33354593          	xori	a1,a0,819
    1578:	50b1aa23          	sw	a1,1300(gp)

0000157c <inst_348>:
    157c:	ffff5537          	lui	a0,0xffff5
    1580:	afd50513          	addi	a0,a0,-1283 # ffff4afd <immx+0x452e702d>
    1584:	66654593          	xori	a1,a0,1638
    1588:	50b1ac23          	sw	a1,1304(gp)

0000158c <inst_349>:
    158c:	ffff5537          	lui	a0,0xffff5
    1590:	afd50513          	addi	a0,a0,-1283 # ffff4afd <immx+0x452e702d>
    1594:	fd354593          	xori	a1,a0,-45
    1598:	50b1ae23          	sw	a1,1308(gp)

0000159c <inst_350>:
    159c:	ffff5537          	lui	a0,0xffff5
    15a0:	afd50513          	addi	a0,a0,-1283 # ffff4afd <immx+0x452e702d>
    15a4:	02d54593          	xori	a1,a0,45
    15a8:	52b1a023          	sw	a1,1312(gp)

000015ac <inst_351>:
    15ac:	ffff5537          	lui	a0,0xffff5
    15b0:	afd50513          	addi	a0,a0,-1283 # ffff4afd <immx+0x452e702d>
    15b4:	00254593          	xori	a1,a0,2
    15b8:	52b1a223          	sw	a1,1316(gp)

000015bc <inst_352>:
    15bc:	ffff5537          	lui	a0,0xffff5
    15c0:	afd50513          	addi	a0,a0,-1283 # ffff4afd <immx+0x452e702d>
    15c4:	55454593          	xori	a1,a0,1364
    15c8:	52b1a423          	sw	a1,1320(gp)

000015cc <inst_353>:
    15cc:	ffff5537          	lui	a0,0xffff5
    15d0:	afd50513          	addi	a0,a0,-1283 # ffff4afd <immx+0x452e702d>
    15d4:	00054593          	xori	a1,a0,0
    15d8:	52b1a623          	sw	a1,1324(gp)

000015dc <inst_354>:
    15dc:	ffff5537          	lui	a0,0xffff5
    15e0:	afd50513          	addi	a0,a0,-1283 # ffff4afd <immx+0x452e702d>
    15e4:	00454593          	xori	a1,a0,4
    15e8:	52b1a823          	sw	a1,1328(gp)

000015ec <inst_355>:
    15ec:	ffff5537          	lui	a0,0xffff5
    15f0:	afd50513          	addi	a0,a0,-1283 # ffff4afd <immx+0x452e702d>
    15f4:	33254593          	xori	a1,a0,818
    15f8:	52b1aa23          	sw	a1,1332(gp)

000015fc <inst_356>:
    15fc:	ffff5537          	lui	a0,0xffff5
    1600:	afd50513          	addi	a0,a0,-1283 # ffff4afd <immx+0x452e702d>
    1604:	66554593          	xori	a1,a0,1637
    1608:	52b1ac23          	sw	a1,1336(gp)

0000160c <inst_357>:
    160c:	ffff5537          	lui	a0,0xffff5
    1610:	afd50513          	addi	a0,a0,-1283 # ffff4afd <immx+0x452e702d>
    1614:	02c54593          	xori	a1,a0,44
    1618:	52b1ae23          	sw	a1,1340(gp)

0000161c <inst_358>:
    161c:	ffff5537          	lui	a0,0xffff5
    1620:	afd50513          	addi	a0,a0,-1283 # ffff4afd <immx+0x452e702d>
    1624:	55654593          	xori	a1,a0,1366
    1628:	54b1a023          	sw	a1,1344(gp)

0000162c <inst_359>:
    162c:	ffff5537          	lui	a0,0xffff5
    1630:	afd50513          	addi	a0,a0,-1283 # ffff4afd <immx+0x452e702d>
    1634:	aab54593          	xori	a1,a0,-1365
    1638:	54b1a223          	sw	a1,1348(gp)

0000163c <inst_360>:
    163c:	ffff5537          	lui	a0,0xffff5
    1640:	afd50513          	addi	a0,a0,-1283 # ffff4afd <immx+0x452e702d>
    1644:	00654593          	xori	a1,a0,6
    1648:	54b1a423          	sw	a1,1352(gp)

0000164c <inst_361>:
    164c:	ffff5537          	lui	a0,0xffff5
    1650:	afd50513          	addi	a0,a0,-1283 # ffff4afd <immx+0x452e702d>
    1654:	33454593          	xori	a1,a0,820
    1658:	54b1a623          	sw	a1,1356(gp)

0000165c <inst_362>:
    165c:	ffff5537          	lui	a0,0xffff5
    1660:	afd50513          	addi	a0,a0,-1283 # ffff4afd <immx+0x452e702d>
    1664:	66754593          	xori	a1,a0,1639
    1668:	54b1a823          	sw	a1,1360(gp)

0000166c <inst_363>:
    166c:	ffff5537          	lui	a0,0xffff5
    1670:	afd50513          	addi	a0,a0,-1283 # ffff4afd <immx+0x452e702d>
    1674:	fd454593          	xori	a1,a0,-44
    1678:	54b1aa23          	sw	a1,1364(gp)

0000167c <inst_364>:
    167c:	ffff5537          	lui	a0,0xffff5
    1680:	afd50513          	addi	a0,a0,-1283 # ffff4afd <immx+0x452e702d>
    1684:	02e54593          	xori	a1,a0,46
    1688:	54b1ac23          	sw	a1,1368(gp)

0000168c <inst_365>:
    168c:	0000b537          	lui	a0,0xb
    1690:	50550513          	addi	a0,a0,1285 # b505 <_end+0x19fd>
    1694:	00354593          	xori	a1,a0,3
    1698:	54b1ae23          	sw	a1,1372(gp)

0000169c <inst_366>:
    169c:	0000b537          	lui	a0,0xb
    16a0:	50550513          	addi	a0,a0,1285 # b505 <_end+0x19fd>
    16a4:	55554593          	xori	a1,a0,1365
    16a8:	56b1a023          	sw	a1,1376(gp)

000016ac <inst_367>:
    16ac:	0000b537          	lui	a0,0xb
    16b0:	50550513          	addi	a0,a0,1285 # b505 <_end+0x19fd>
    16b4:	aaa54593          	xori	a1,a0,-1366
    16b8:	56b1a223          	sw	a1,1380(gp)

000016bc <inst_368>:
    16bc:	0000b537          	lui	a0,0xb
    16c0:	50550513          	addi	a0,a0,1285 # b505 <_end+0x19fd>
    16c4:	00554593          	xori	a1,a0,5
    16c8:	56b1a423          	sw	a1,1384(gp)

000016cc <inst_369>:
    16cc:	0000b537          	lui	a0,0xb
    16d0:	50550513          	addi	a0,a0,1285 # b505 <_end+0x19fd>
    16d4:	33354593          	xori	a1,a0,819
    16d8:	56b1a623          	sw	a1,1388(gp)

000016dc <inst_370>:
    16dc:	0000b537          	lui	a0,0xb
    16e0:	50550513          	addi	a0,a0,1285 # b505 <_end+0x19fd>
    16e4:	66654593          	xori	a1,a0,1638
    16e8:	56b1a823          	sw	a1,1392(gp)

000016ec <inst_371>:
    16ec:	0000b537          	lui	a0,0xb
    16f0:	50550513          	addi	a0,a0,1285 # b505 <_end+0x19fd>
    16f4:	fd354593          	xori	a1,a0,-45
    16f8:	56b1aa23          	sw	a1,1396(gp)

000016fc <inst_372>:
    16fc:	0000b537          	lui	a0,0xb
    1700:	50550513          	addi	a0,a0,1285 # b505 <_end+0x19fd>
    1704:	02d54593          	xori	a1,a0,45
    1708:	56b1ac23          	sw	a1,1400(gp)

0000170c <inst_373>:
    170c:	0000b537          	lui	a0,0xb
    1710:	50550513          	addi	a0,a0,1285 # b505 <_end+0x19fd>
    1714:	00254593          	xori	a1,a0,2
    1718:	56b1ae23          	sw	a1,1404(gp)

0000171c <inst_374>:
    171c:	0000b537          	lui	a0,0xb
    1720:	50550513          	addi	a0,a0,1285 # b505 <_end+0x19fd>
    1724:	55454593          	xori	a1,a0,1364
    1728:	58b1a023          	sw	a1,1408(gp)

0000172c <inst_375>:
    172c:	0000b537          	lui	a0,0xb
    1730:	50550513          	addi	a0,a0,1285 # b505 <_end+0x19fd>
    1734:	00054593          	xori	a1,a0,0
    1738:	58b1a223          	sw	a1,1412(gp)

0000173c <inst_376>:
    173c:	0000b537          	lui	a0,0xb
    1740:	50550513          	addi	a0,a0,1285 # b505 <_end+0x19fd>
    1744:	00454593          	xori	a1,a0,4
    1748:	58b1a423          	sw	a1,1416(gp)

0000174c <inst_377>:
    174c:	0000b537          	lui	a0,0xb
    1750:	50550513          	addi	a0,a0,1285 # b505 <_end+0x19fd>
    1754:	33254593          	xori	a1,a0,818
    1758:	58b1a623          	sw	a1,1420(gp)

0000175c <inst_378>:
    175c:	0000b537          	lui	a0,0xb
    1760:	50550513          	addi	a0,a0,1285 # b505 <_end+0x19fd>
    1764:	66554593          	xori	a1,a0,1637
    1768:	58b1a823          	sw	a1,1424(gp)

0000176c <inst_379>:
    176c:	0000b537          	lui	a0,0xb
    1770:	50550513          	addi	a0,a0,1285 # b505 <_end+0x19fd>
    1774:	02c54593          	xori	a1,a0,44
    1778:	58b1aa23          	sw	a1,1428(gp)

0000177c <inst_380>:
    177c:	0000b537          	lui	a0,0xb
    1780:	50550513          	addi	a0,a0,1285 # b505 <_end+0x19fd>
    1784:	55654593          	xori	a1,a0,1366
    1788:	58b1ac23          	sw	a1,1432(gp)

0000178c <inst_381>:
    178c:	0000b537          	lui	a0,0xb
    1790:	50550513          	addi	a0,a0,1285 # b505 <_end+0x19fd>
    1794:	aab54593          	xori	a1,a0,-1365
    1798:	58b1ae23          	sw	a1,1436(gp)

0000179c <inst_382>:
    179c:	0000b537          	lui	a0,0xb
    17a0:	50550513          	addi	a0,a0,1285 # b505 <_end+0x19fd>
    17a4:	00654593          	xori	a1,a0,6
    17a8:	5ab1a023          	sw	a1,1440(gp)

000017ac <inst_383>:
    17ac:	0000b537          	lui	a0,0xb
    17b0:	50550513          	addi	a0,a0,1285 # b505 <_end+0x19fd>
    17b4:	33454593          	xori	a1,a0,820
    17b8:	5ab1a223          	sw	a1,1444(gp)

000017bc <inst_384>:
    17bc:	0000b537          	lui	a0,0xb
    17c0:	50550513          	addi	a0,a0,1285 # b505 <_end+0x19fd>
    17c4:	66754593          	xori	a1,a0,1639
    17c8:	5ab1a423          	sw	a1,1448(gp)

000017cc <inst_385>:
    17cc:	0000b537          	lui	a0,0xb
    17d0:	50550513          	addi	a0,a0,1285 # b505 <_end+0x19fd>
    17d4:	fd454593          	xori	a1,a0,-44
    17d8:	5ab1a623          	sw	a1,1452(gp)

000017dc <inst_386>:
    17dc:	0000b537          	lui	a0,0xb
    17e0:	50550513          	addi	a0,a0,1285 # b505 <_end+0x19fd>
    17e4:	02e54593          	xori	a1,a0,46
    17e8:	5ab1a823          	sw	a1,1456(gp)

000017ec <inst_387>:
    17ec:	00000513          	addi	a0,zero,0
    17f0:	00254593          	xori	a1,a0,2
    17f4:	5ab1aa23          	sw	a1,1460(gp)

000017f8 <inst_388>:
    17f8:	00000513          	addi	a0,zero,0
    17fc:	55454593          	xori	a1,a0,1364
    1800:	5ab1ac23          	sw	a1,1464(gp)

00001804 <inst_389>:
    1804:	00000513          	addi	a0,zero,0
    1808:	00054593          	xori	a1,a0,0
    180c:	5ab1ae23          	sw	a1,1468(gp)

00001810 <inst_390>:
    1810:	00000513          	addi	a0,zero,0
    1814:	00454593          	xori	a1,a0,4
    1818:	5cb1a023          	sw	a1,1472(gp)

0000181c <inst_391>:
    181c:	00000513          	addi	a0,zero,0
    1820:	33254593          	xori	a1,a0,818
    1824:	5cb1a223          	sw	a1,1476(gp)

00001828 <inst_392>:
    1828:	00000513          	addi	a0,zero,0
    182c:	66554593          	xori	a1,a0,1637
    1830:	5cb1a423          	sw	a1,1480(gp)

00001834 <inst_393>:
    1834:	00000513          	addi	a0,zero,0
    1838:	02c54593          	xori	a1,a0,44
    183c:	5cb1a623          	sw	a1,1484(gp)

00001840 <inst_394>:
    1840:	00000513          	addi	a0,zero,0
    1844:	55654593          	xori	a1,a0,1366
    1848:	5cb1a823          	sw	a1,1488(gp)

0000184c <inst_395>:
    184c:	00000513          	addi	a0,zero,0
    1850:	aab54593          	xori	a1,a0,-1365
    1854:	5cb1aa23          	sw	a1,1492(gp)

00001858 <inst_396>:
    1858:	00000513          	addi	a0,zero,0
    185c:	00654593          	xori	a1,a0,6
    1860:	5cb1ac23          	sw	a1,1496(gp)

00001864 <inst_397>:
    1864:	00000513          	addi	a0,zero,0
    1868:	33454593          	xori	a1,a0,820
    186c:	5cb1ae23          	sw	a1,1500(gp)

00001870 <inst_398>:
    1870:	00000513          	addi	a0,zero,0
    1874:	66754593          	xori	a1,a0,1639
    1878:	5eb1a023          	sw	a1,1504(gp)

0000187c <inst_399>:
    187c:	00000513          	addi	a0,zero,0
    1880:	fd454593          	xori	a1,a0,-44
    1884:	5eb1a223          	sw	a1,1508(gp)

00001888 <inst_400>:
    1888:	00000513          	addi	a0,zero,0
    188c:	02e54593          	xori	a1,a0,46
    1890:	5eb1a423          	sw	a1,1512(gp)

00001894 <inst_401>:
    1894:	00400513          	addi	a0,zero,4
    1898:	00354593          	xori	a1,a0,3
    189c:	5eb1a623          	sw	a1,1516(gp)

000018a0 <inst_402>:
    18a0:	00400513          	addi	a0,zero,4
    18a4:	55554593          	xori	a1,a0,1365
    18a8:	5eb1a823          	sw	a1,1520(gp)

000018ac <inst_403>:
    18ac:	00400513          	addi	a0,zero,4
    18b0:	aaa54593          	xori	a1,a0,-1366
    18b4:	5eb1aa23          	sw	a1,1524(gp)

000018b8 <inst_404>:
    18b8:	00400513          	addi	a0,zero,4
    18bc:	00554593          	xori	a1,a0,5
    18c0:	5eb1ac23          	sw	a1,1528(gp)

000018c4 <inst_405>:
    18c4:	00400513          	addi	a0,zero,4
    18c8:	33354593          	xori	a1,a0,819
    18cc:	5eb1ae23          	sw	a1,1532(gp)

000018d0 <inst_406>:
    18d0:	00400513          	addi	a0,zero,4
    18d4:	66654593          	xori	a1,a0,1638
    18d8:	60b1a023          	sw	a1,1536(gp)

000018dc <inst_407>:
    18dc:	00400513          	addi	a0,zero,4
    18e0:	fd354593          	xori	a1,a0,-45
    18e4:	60b1a223          	sw	a1,1540(gp)

000018e8 <inst_408>:
    18e8:	00400513          	addi	a0,zero,4
    18ec:	02d54593          	xori	a1,a0,45
    18f0:	60b1a423          	sw	a1,1544(gp)

000018f4 <inst_409>:
    18f4:	00400513          	addi	a0,zero,4
    18f8:	00254593          	xori	a1,a0,2
    18fc:	60b1a623          	sw	a1,1548(gp)

00001900 <inst_410>:
    1900:	00400513          	addi	a0,zero,4
    1904:	55454593          	xori	a1,a0,1364
    1908:	60b1a823          	sw	a1,1552(gp)

0000190c <inst_411>:
    190c:	00400513          	addi	a0,zero,4
    1910:	00454593          	xori	a1,a0,4
    1914:	60b1aa23          	sw	a1,1556(gp)

00001918 <inst_412>:
    1918:	00400513          	addi	a0,zero,4
    191c:	33254593          	xori	a1,a0,818
    1920:	60b1ac23          	sw	a1,1560(gp)

00001924 <inst_413>:
    1924:	00400513          	addi	a0,zero,4
    1928:	66554593          	xori	a1,a0,1637
    192c:	60b1ae23          	sw	a1,1564(gp)

00001930 <inst_414>:
    1930:	00400513          	addi	a0,zero,4
    1934:	02c54593          	xori	a1,a0,44
    1938:	62b1a023          	sw	a1,1568(gp)

0000193c <inst_415>:
    193c:	00400513          	addi	a0,zero,4
    1940:	55654593          	xori	a1,a0,1366
    1944:	62b1a223          	sw	a1,1572(gp)

00001948 <inst_416>:
    1948:	00400513          	addi	a0,zero,4
    194c:	aab54593          	xori	a1,a0,-1365
    1950:	62b1a423          	sw	a1,1576(gp)

00001954 <inst_417>:
    1954:	00400513          	addi	a0,zero,4
    1958:	00654593          	xori	a1,a0,6
    195c:	62b1a623          	sw	a1,1580(gp)

00001960 <inst_418>:
    1960:	00400513          	addi	a0,zero,4
    1964:	33454593          	xori	a1,a0,820
    1968:	62b1a823          	sw	a1,1584(gp)

0000196c <inst_419>:
    196c:	00400513          	addi	a0,zero,4
    1970:	66754593          	xori	a1,a0,1639
    1974:	62b1aa23          	sw	a1,1588(gp)

00001978 <inst_420>:
    1978:	00400513          	addi	a0,zero,4
    197c:	fd454593          	xori	a1,a0,-44
    1980:	62b1ac23          	sw	a1,1592(gp)

00001984 <inst_421>:
    1984:	00400513          	addi	a0,zero,4
    1988:	02e54593          	xori	a1,a0,46
    198c:	62b1ae23          	sw	a1,1596(gp)

00001990 <inst_422>:
    1990:	33333537          	lui	a0,0x33333
    1994:	33250513          	addi	a0,a0,818 # 33333332 <_end+0x3332982a>
    1998:	00354593          	xori	a1,a0,3
    199c:	64b1a023          	sw	a1,1600(gp)

000019a0 <inst_423>:
    19a0:	33333537          	lui	a0,0x33333
    19a4:	33250513          	addi	a0,a0,818 # 33333332 <_end+0x3332982a>
    19a8:	55554593          	xori	a1,a0,1365
    19ac:	64b1a223          	sw	a1,1604(gp)

000019b0 <inst_424>:
    19b0:	33333537          	lui	a0,0x33333
    19b4:	33250513          	addi	a0,a0,818 # 33333332 <_end+0x3332982a>
    19b8:	aaa54593          	xori	a1,a0,-1366
    19bc:	64b1a423          	sw	a1,1608(gp)

000019c0 <inst_425>:
    19c0:	33333537          	lui	a0,0x33333
    19c4:	33250513          	addi	a0,a0,818 # 33333332 <_end+0x3332982a>
    19c8:	00554593          	xori	a1,a0,5
    19cc:	64b1a623          	sw	a1,1612(gp)

000019d0 <inst_426>:
    19d0:	33333537          	lui	a0,0x33333
    19d4:	33250513          	addi	a0,a0,818 # 33333332 <_end+0x3332982a>
    19d8:	33354593          	xori	a1,a0,819
    19dc:	64b1a823          	sw	a1,1616(gp)

000019e0 <inst_427>:
    19e0:	33333537          	lui	a0,0x33333
    19e4:	33250513          	addi	a0,a0,818 # 33333332 <_end+0x3332982a>
    19e8:	66654593          	xori	a1,a0,1638
    19ec:	64b1aa23          	sw	a1,1620(gp)

000019f0 <inst_428>:
    19f0:	33333537          	lui	a0,0x33333
    19f4:	33250513          	addi	a0,a0,818 # 33333332 <_end+0x3332982a>
    19f8:	fd354593          	xori	a1,a0,-45
    19fc:	64b1ac23          	sw	a1,1624(gp)

00001a00 <inst_429>:
    1a00:	33333537          	lui	a0,0x33333
    1a04:	33250513          	addi	a0,a0,818 # 33333332 <_end+0x3332982a>
    1a08:	02d54593          	xori	a1,a0,45
    1a0c:	64b1ae23          	sw	a1,1628(gp)

00001a10 <inst_430>:
    1a10:	33333537          	lui	a0,0x33333
    1a14:	33250513          	addi	a0,a0,818 # 33333332 <_end+0x3332982a>
    1a18:	00254593          	xori	a1,a0,2
    1a1c:	66b1a023          	sw	a1,1632(gp)

00001a20 <inst_431>:
    1a20:	33333537          	lui	a0,0x33333
    1a24:	33250513          	addi	a0,a0,818 # 33333332 <_end+0x3332982a>
    1a28:	55454593          	xori	a1,a0,1364
    1a2c:	66b1a223          	sw	a1,1636(gp)

00001a30 <inst_432>:
    1a30:	33333537          	lui	a0,0x33333
    1a34:	33250513          	addi	a0,a0,818 # 33333332 <_end+0x3332982a>
    1a38:	00054593          	xori	a1,a0,0
    1a3c:	66b1a423          	sw	a1,1640(gp)

00001a40 <inst_433>:
    1a40:	33333537          	lui	a0,0x33333
    1a44:	33250513          	addi	a0,a0,818 # 33333332 <_end+0x3332982a>
    1a48:	00454593          	xori	a1,a0,4
    1a4c:	66b1a623          	sw	a1,1644(gp)

00001a50 <inst_434>:
    1a50:	33333537          	lui	a0,0x33333
    1a54:	33250513          	addi	a0,a0,818 # 33333332 <_end+0x3332982a>
    1a58:	33254593          	xori	a1,a0,818
    1a5c:	66b1a823          	sw	a1,1648(gp)

00001a60 <inst_435>:
    1a60:	33333537          	lui	a0,0x33333
    1a64:	33250513          	addi	a0,a0,818 # 33333332 <_end+0x3332982a>
    1a68:	66554593          	xori	a1,a0,1637
    1a6c:	66b1aa23          	sw	a1,1652(gp)

00001a70 <inst_436>:
    1a70:	33333537          	lui	a0,0x33333
    1a74:	33250513          	addi	a0,a0,818 # 33333332 <_end+0x3332982a>
    1a78:	02c54593          	xori	a1,a0,44
    1a7c:	66b1ac23          	sw	a1,1656(gp)

00001a80 <inst_437>:
    1a80:	33333537          	lui	a0,0x33333
    1a84:	33250513          	addi	a0,a0,818 # 33333332 <_end+0x3332982a>
    1a88:	55654593          	xori	a1,a0,1366
    1a8c:	66b1ae23          	sw	a1,1660(gp)

00001a90 <inst_438>:
    1a90:	33333537          	lui	a0,0x33333
    1a94:	33250513          	addi	a0,a0,818 # 33333332 <_end+0x3332982a>
    1a98:	aab54593          	xori	a1,a0,-1365
    1a9c:	68b1a023          	sw	a1,1664(gp)

00001aa0 <inst_439>:
    1aa0:	33333537          	lui	a0,0x33333
    1aa4:	33250513          	addi	a0,a0,818 # 33333332 <_end+0x3332982a>
    1aa8:	00654593          	xori	a1,a0,6
    1aac:	68b1a223          	sw	a1,1668(gp)

00001ab0 <inst_440>:
    1ab0:	33333537          	lui	a0,0x33333
    1ab4:	33250513          	addi	a0,a0,818 # 33333332 <_end+0x3332982a>
    1ab8:	33454593          	xori	a1,a0,820
    1abc:	68b1a423          	sw	a1,1672(gp)

00001ac0 <inst_441>:
    1ac0:	33333537          	lui	a0,0x33333
    1ac4:	33250513          	addi	a0,a0,818 # 33333332 <_end+0x3332982a>
    1ac8:	66754593          	xori	a1,a0,1639
    1acc:	68b1a623          	sw	a1,1676(gp)

00001ad0 <inst_442>:
    1ad0:	33333537          	lui	a0,0x33333
    1ad4:	33250513          	addi	a0,a0,818 # 33333332 <_end+0x3332982a>
    1ad8:	fd454593          	xori	a1,a0,-44
    1adc:	68b1a823          	sw	a1,1680(gp)

00001ae0 <inst_443>:
    1ae0:	33333537          	lui	a0,0x33333
    1ae4:	33250513          	addi	a0,a0,818 # 33333332 <_end+0x3332982a>
    1ae8:	02e54593          	xori	a1,a0,46
    1aec:	68b1aa23          	sw	a1,1684(gp)

00001af0 <inst_444>:
    1af0:	66666537          	lui	a0,0x66666
    1af4:	66550513          	addi	a0,a0,1637 # 66666665 <absimm+0x21374136>
    1af8:	00354593          	xori	a1,a0,3
    1afc:	68b1ac23          	sw	a1,1688(gp)

00001b00 <inst_445>:
    1b00:	66666537          	lui	a0,0x66666
    1b04:	66550513          	addi	a0,a0,1637 # 66666665 <absimm+0x21374136>
    1b08:	55554593          	xori	a1,a0,1365
    1b0c:	68b1ae23          	sw	a1,1692(gp)

00001b10 <inst_446>:
    1b10:	66666537          	lui	a0,0x66666
    1b14:	66550513          	addi	a0,a0,1637 # 66666665 <absimm+0x21374136>
    1b18:	aaa54593          	xori	a1,a0,-1366
    1b1c:	6ab1a023          	sw	a1,1696(gp)

00001b20 <inst_447>:
    1b20:	66666537          	lui	a0,0x66666
    1b24:	66550513          	addi	a0,a0,1637 # 66666665 <absimm+0x21374136>
    1b28:	00554593          	xori	a1,a0,5
    1b2c:	6ab1a223          	sw	a1,1700(gp)

00001b30 <inst_448>:
    1b30:	66666537          	lui	a0,0x66666
    1b34:	66550513          	addi	a0,a0,1637 # 66666665 <absimm+0x21374136>
    1b38:	33354593          	xori	a1,a0,819
    1b3c:	6ab1a423          	sw	a1,1704(gp)

00001b40 <inst_449>:
    1b40:	66666537          	lui	a0,0x66666
    1b44:	66550513          	addi	a0,a0,1637 # 66666665 <absimm+0x21374136>
    1b48:	66654593          	xori	a1,a0,1638
    1b4c:	6ab1a623          	sw	a1,1708(gp)

00001b50 <inst_450>:
    1b50:	66666537          	lui	a0,0x66666
    1b54:	66550513          	addi	a0,a0,1637 # 66666665 <absimm+0x21374136>
    1b58:	fd354593          	xori	a1,a0,-45
    1b5c:	6ab1a823          	sw	a1,1712(gp)

00001b60 <inst_451>:
    1b60:	66666537          	lui	a0,0x66666
    1b64:	66550513          	addi	a0,a0,1637 # 66666665 <absimm+0x21374136>
    1b68:	02d54593          	xori	a1,a0,45
    1b6c:	6ab1aa23          	sw	a1,1716(gp)

00001b70 <inst_452>:
    1b70:	66666537          	lui	a0,0x66666
    1b74:	66550513          	addi	a0,a0,1637 # 66666665 <absimm+0x21374136>
    1b78:	00254593          	xori	a1,a0,2
    1b7c:	6ab1ac23          	sw	a1,1720(gp)

00001b80 <inst_453>:
    1b80:	66666537          	lui	a0,0x66666
    1b84:	66550513          	addi	a0,a0,1637 # 66666665 <absimm+0x21374136>
    1b88:	55454593          	xori	a1,a0,1364
    1b8c:	6ab1ae23          	sw	a1,1724(gp)

00001b90 <inst_454>:
    1b90:	66666537          	lui	a0,0x66666
    1b94:	66550513          	addi	a0,a0,1637 # 66666665 <absimm+0x21374136>
    1b98:	00054593          	xori	a1,a0,0
    1b9c:	6cb1a023          	sw	a1,1728(gp)

00001ba0 <inst_455>:
    1ba0:	66666537          	lui	a0,0x66666
    1ba4:	66550513          	addi	a0,a0,1637 # 66666665 <absimm+0x21374136>
    1ba8:	00454593          	xori	a1,a0,4
    1bac:	6cb1a223          	sw	a1,1732(gp)

00001bb0 <inst_456>:
    1bb0:	66666537          	lui	a0,0x66666
    1bb4:	66550513          	addi	a0,a0,1637 # 66666665 <absimm+0x21374136>
    1bb8:	33254593          	xori	a1,a0,818
    1bbc:	6cb1a423          	sw	a1,1736(gp)

00001bc0 <inst_457>:
    1bc0:	66666537          	lui	a0,0x66666
    1bc4:	66550513          	addi	a0,a0,1637 # 66666665 <absimm+0x21374136>
    1bc8:	66554593          	xori	a1,a0,1637
    1bcc:	6cb1a623          	sw	a1,1740(gp)

00001bd0 <inst_458>:
    1bd0:	66666537          	lui	a0,0x66666
    1bd4:	66550513          	addi	a0,a0,1637 # 66666665 <absimm+0x21374136>
    1bd8:	02c54593          	xori	a1,a0,44
    1bdc:	6cb1a823          	sw	a1,1744(gp)

00001be0 <inst_459>:
    1be0:	66666537          	lui	a0,0x66666
    1be4:	66550513          	addi	a0,a0,1637 # 66666665 <absimm+0x21374136>
    1be8:	55654593          	xori	a1,a0,1366
    1bec:	6cb1aa23          	sw	a1,1748(gp)

00001bf0 <inst_460>:
    1bf0:	66666537          	lui	a0,0x66666
    1bf4:	66550513          	addi	a0,a0,1637 # 66666665 <absimm+0x21374136>
    1bf8:	aab54593          	xori	a1,a0,-1365
    1bfc:	6cb1ac23          	sw	a1,1752(gp)

00001c00 <inst_461>:
    1c00:	66666537          	lui	a0,0x66666
    1c04:	66550513          	addi	a0,a0,1637 # 66666665 <absimm+0x21374136>
    1c08:	00654593          	xori	a1,a0,6
    1c0c:	6cb1ae23          	sw	a1,1756(gp)

00001c10 <inst_462>:
    1c10:	66666537          	lui	a0,0x66666
    1c14:	66550513          	addi	a0,a0,1637 # 66666665 <absimm+0x21374136>
    1c18:	33454593          	xori	a1,a0,820
    1c1c:	6eb1a023          	sw	a1,1760(gp)

00001c20 <inst_463>:
    1c20:	66666537          	lui	a0,0x66666
    1c24:	66550513          	addi	a0,a0,1637 # 66666665 <absimm+0x21374136>
    1c28:	66754593          	xori	a1,a0,1639
    1c2c:	6eb1a223          	sw	a1,1764(gp)

00001c30 <inst_464>:
    1c30:	66666537          	lui	a0,0x66666
    1c34:	66550513          	addi	a0,a0,1637 # 66666665 <absimm+0x21374136>
    1c38:	fd454593          	xori	a1,a0,-44
    1c3c:	6eb1a423          	sw	a1,1768(gp)

00001c40 <inst_465>:
    1c40:	66666537          	lui	a0,0x66666
    1c44:	66550513          	addi	a0,a0,1637 # 66666665 <absimm+0x21374136>
    1c48:	02e54593          	xori	a1,a0,46
    1c4c:	6eb1a623          	sw	a1,1772(gp)

00001c50 <inst_466>:
    1c50:	0000b537          	lui	a0,0xb
    1c54:	50350513          	addi	a0,a0,1283 # b503 <_end+0x19fb>
    1c58:	00354593          	xori	a1,a0,3
    1c5c:	6eb1a823          	sw	a1,1776(gp)

00001c60 <inst_467>:
    1c60:	0000b537          	lui	a0,0xb
    1c64:	50350513          	addi	a0,a0,1283 # b503 <_end+0x19fb>
    1c68:	55554593          	xori	a1,a0,1365
    1c6c:	6eb1aa23          	sw	a1,1780(gp)

00001c70 <inst_468>:
    1c70:	0000b537          	lui	a0,0xb
    1c74:	50350513          	addi	a0,a0,1283 # b503 <_end+0x19fb>
    1c78:	aaa54593          	xori	a1,a0,-1366
    1c7c:	6eb1ac23          	sw	a1,1784(gp)

00001c80 <inst_469>:
    1c80:	0000b537          	lui	a0,0xb
    1c84:	50350513          	addi	a0,a0,1283 # b503 <_end+0x19fb>
    1c88:	00554593          	xori	a1,a0,5
    1c8c:	6eb1ae23          	sw	a1,1788(gp)

00001c90 <inst_470>:
    1c90:	0000b537          	lui	a0,0xb
    1c94:	50350513          	addi	a0,a0,1283 # b503 <_end+0x19fb>
    1c98:	33354593          	xori	a1,a0,819
    1c9c:	70b1a023          	sw	a1,1792(gp)

00001ca0 <inst_471>:
    1ca0:	0000b537          	lui	a0,0xb
    1ca4:	50350513          	addi	a0,a0,1283 # b503 <_end+0x19fb>
    1ca8:	66654593          	xori	a1,a0,1638
    1cac:	70b1a223          	sw	a1,1796(gp)

00001cb0 <inst_472>:
    1cb0:	0000b537          	lui	a0,0xb
    1cb4:	50350513          	addi	a0,a0,1283 # b503 <_end+0x19fb>
    1cb8:	fd354593          	xori	a1,a0,-45
    1cbc:	70b1a423          	sw	a1,1800(gp)

00001cc0 <inst_473>:
    1cc0:	0000b537          	lui	a0,0xb
    1cc4:	50350513          	addi	a0,a0,1283 # b503 <_end+0x19fb>
    1cc8:	02d54593          	xori	a1,a0,45
    1ccc:	70b1a623          	sw	a1,1804(gp)

00001cd0 <inst_474>:
    1cd0:	0000b537          	lui	a0,0xb
    1cd4:	50350513          	addi	a0,a0,1283 # b503 <_end+0x19fb>
    1cd8:	00254593          	xori	a1,a0,2
    1cdc:	70b1a823          	sw	a1,1808(gp)

00001ce0 <inst_475>:
    1ce0:	0000b537          	lui	a0,0xb
    1ce4:	50350513          	addi	a0,a0,1283 # b503 <_end+0x19fb>
    1ce8:	55454593          	xori	a1,a0,1364
    1cec:	70b1aa23          	sw	a1,1812(gp)

00001cf0 <inst_476>:
    1cf0:	0000b537          	lui	a0,0xb
    1cf4:	50350513          	addi	a0,a0,1283 # b503 <_end+0x19fb>
    1cf8:	00054593          	xori	a1,a0,0
    1cfc:	70b1ac23          	sw	a1,1816(gp)

00001d00 <inst_477>:
    1d00:	0000b537          	lui	a0,0xb
    1d04:	50350513          	addi	a0,a0,1283 # b503 <_end+0x19fb>
    1d08:	00454593          	xori	a1,a0,4
    1d0c:	70b1ae23          	sw	a1,1820(gp)

00001d10 <inst_478>:
    1d10:	0000b537          	lui	a0,0xb
    1d14:	50350513          	addi	a0,a0,1283 # b503 <_end+0x19fb>
    1d18:	33254593          	xori	a1,a0,818
    1d1c:	72b1a023          	sw	a1,1824(gp)

00001d20 <inst_479>:
    1d20:	0000b537          	lui	a0,0xb
    1d24:	50350513          	addi	a0,a0,1283 # b503 <_end+0x19fb>
    1d28:	66554593          	xori	a1,a0,1637
    1d2c:	72b1a223          	sw	a1,1828(gp)

00001d30 <inst_480>:
    1d30:	0000b537          	lui	a0,0xb
    1d34:	50350513          	addi	a0,a0,1283 # b503 <_end+0x19fb>
    1d38:	02c54593          	xori	a1,a0,44
    1d3c:	72b1a423          	sw	a1,1832(gp)

00001d40 <inst_481>:
    1d40:	0000b537          	lui	a0,0xb
    1d44:	50350513          	addi	a0,a0,1283 # b503 <_end+0x19fb>
    1d48:	55654593          	xori	a1,a0,1366
    1d4c:	72b1a623          	sw	a1,1836(gp)

00001d50 <inst_482>:
    1d50:	0000b537          	lui	a0,0xb
    1d54:	50350513          	addi	a0,a0,1283 # b503 <_end+0x19fb>
    1d58:	aab54593          	xori	a1,a0,-1365
    1d5c:	72b1a823          	sw	a1,1840(gp)

00001d60 <inst_483>:
    1d60:	0000b537          	lui	a0,0xb
    1d64:	50350513          	addi	a0,a0,1283 # b503 <_end+0x19fb>
    1d68:	00654593          	xori	a1,a0,6
    1d6c:	72b1aa23          	sw	a1,1844(gp)

00001d70 <inst_484>:
    1d70:	0000b537          	lui	a0,0xb
    1d74:	50350513          	addi	a0,a0,1283 # b503 <_end+0x19fb>
    1d78:	33454593          	xori	a1,a0,820
    1d7c:	72b1ac23          	sw	a1,1848(gp)

00001d80 <inst_485>:
    1d80:	0000b537          	lui	a0,0xb
    1d84:	50350513          	addi	a0,a0,1283 # b503 <_end+0x19fb>
    1d88:	66754593          	xori	a1,a0,1639
    1d8c:	72b1ae23          	sw	a1,1852(gp)

00001d90 <inst_486>:
    1d90:	0000b537          	lui	a0,0xb
    1d94:	50350513          	addi	a0,a0,1283 # b503 <_end+0x19fb>
    1d98:	fd454593          	xori	a1,a0,-44
    1d9c:	74b1a023          	sw	a1,1856(gp)

00001da0 <inst_487>:
    1da0:	0000b537          	lui	a0,0xb
    1da4:	50350513          	addi	a0,a0,1283 # b503 <_end+0x19fb>
    1da8:	02e54593          	xori	a1,a0,46
    1dac:	74b1a223          	sw	a1,1860(gp)

00001db0 <inst_488>:
    1db0:	55555537          	lui	a0,0x55555
    1db4:	55650513          	addi	a0,a0,1366 # 55555556 <absimm+0x10263027>
    1db8:	00354593          	xori	a1,a0,3
    1dbc:	74b1a423          	sw	a1,1864(gp)

00001dc0 <inst_489>:
    1dc0:	55555537          	lui	a0,0x55555
    1dc4:	55650513          	addi	a0,a0,1366 # 55555556 <absimm+0x10263027>
    1dc8:	55554593          	xori	a1,a0,1365
    1dcc:	74b1a623          	sw	a1,1868(gp)

00001dd0 <inst_490>:
    1dd0:	55555537          	lui	a0,0x55555
    1dd4:	55650513          	addi	a0,a0,1366 # 55555556 <absimm+0x10263027>
    1dd8:	aaa54593          	xori	a1,a0,-1366
    1ddc:	74b1a823          	sw	a1,1872(gp)

00001de0 <inst_491>:
    1de0:	55555537          	lui	a0,0x55555
    1de4:	55650513          	addi	a0,a0,1366 # 55555556 <absimm+0x10263027>
    1de8:	00554593          	xori	a1,a0,5
    1dec:	74b1aa23          	sw	a1,1876(gp)

00001df0 <inst_492>:
    1df0:	55555537          	lui	a0,0x55555
    1df4:	55650513          	addi	a0,a0,1366 # 55555556 <absimm+0x10263027>
    1df8:	33354593          	xori	a1,a0,819
    1dfc:	74b1ac23          	sw	a1,1880(gp)

00001e00 <inst_493>:
    1e00:	55555537          	lui	a0,0x55555
    1e04:	55650513          	addi	a0,a0,1366 # 55555556 <absimm+0x10263027>
    1e08:	66654593          	xori	a1,a0,1638
    1e0c:	74b1ae23          	sw	a1,1884(gp)

00001e10 <inst_494>:
    1e10:	55555537          	lui	a0,0x55555
    1e14:	55650513          	addi	a0,a0,1366 # 55555556 <absimm+0x10263027>
    1e18:	fd354593          	xori	a1,a0,-45
    1e1c:	76b1a023          	sw	a1,1888(gp)

00001e20 <inst_495>:
    1e20:	55555537          	lui	a0,0x55555
    1e24:	55650513          	addi	a0,a0,1366 # 55555556 <absimm+0x10263027>
    1e28:	02d54593          	xori	a1,a0,45
    1e2c:	76b1a223          	sw	a1,1892(gp)

00001e30 <inst_496>:
    1e30:	55555537          	lui	a0,0x55555
    1e34:	55650513          	addi	a0,a0,1366 # 55555556 <absimm+0x10263027>
    1e38:	00254593          	xori	a1,a0,2
    1e3c:	76b1a423          	sw	a1,1896(gp)

00001e40 <inst_497>:
    1e40:	55555537          	lui	a0,0x55555
    1e44:	55650513          	addi	a0,a0,1366 # 55555556 <absimm+0x10263027>
    1e48:	55454593          	xori	a1,a0,1364
    1e4c:	76b1a623          	sw	a1,1900(gp)

00001e50 <inst_498>:
    1e50:	55555537          	lui	a0,0x55555
    1e54:	55650513          	addi	a0,a0,1366 # 55555556 <absimm+0x10263027>
    1e58:	00054593          	xori	a1,a0,0
    1e5c:	76b1a823          	sw	a1,1904(gp)

00001e60 <inst_499>:
    1e60:	55555537          	lui	a0,0x55555
    1e64:	55650513          	addi	a0,a0,1366 # 55555556 <absimm+0x10263027>
    1e68:	00454593          	xori	a1,a0,4
    1e6c:	76b1aa23          	sw	a1,1908(gp)

00001e70 <inst_500>:
    1e70:	55555537          	lui	a0,0x55555
    1e74:	55650513          	addi	a0,a0,1366 # 55555556 <absimm+0x10263027>
    1e78:	33254593          	xori	a1,a0,818
    1e7c:	76b1ac23          	sw	a1,1912(gp)

00001e80 <inst_501>:
    1e80:	55555537          	lui	a0,0x55555
    1e84:	55650513          	addi	a0,a0,1366 # 55555556 <absimm+0x10263027>
    1e88:	66554593          	xori	a1,a0,1637
    1e8c:	76b1ae23          	sw	a1,1916(gp)

00001e90 <inst_502>:
    1e90:	55555537          	lui	a0,0x55555
    1e94:	55650513          	addi	a0,a0,1366 # 55555556 <absimm+0x10263027>
    1e98:	02c54593          	xori	a1,a0,44
    1e9c:	78b1a023          	sw	a1,1920(gp)

00001ea0 <inst_503>:
    1ea0:	55555537          	lui	a0,0x55555
    1ea4:	55650513          	addi	a0,a0,1366 # 55555556 <absimm+0x10263027>
    1ea8:	55654593          	xori	a1,a0,1366
    1eac:	78b1a223          	sw	a1,1924(gp)

00001eb0 <inst_504>:
    1eb0:	55555537          	lui	a0,0x55555
    1eb4:	55650513          	addi	a0,a0,1366 # 55555556 <absimm+0x10263027>
    1eb8:	aab54593          	xori	a1,a0,-1365
    1ebc:	78b1a423          	sw	a1,1928(gp)

00001ec0 <inst_505>:
    1ec0:	55555537          	lui	a0,0x55555
    1ec4:	55650513          	addi	a0,a0,1366 # 55555556 <absimm+0x10263027>
    1ec8:	00654593          	xori	a1,a0,6
    1ecc:	78b1a623          	sw	a1,1932(gp)

00001ed0 <inst_506>:
    1ed0:	55555537          	lui	a0,0x55555
    1ed4:	55650513          	addi	a0,a0,1366 # 55555556 <absimm+0x10263027>
    1ed8:	33454593          	xori	a1,a0,820
    1edc:	78b1a823          	sw	a1,1936(gp)

00001ee0 <inst_507>:
    1ee0:	55555537          	lui	a0,0x55555
    1ee4:	55650513          	addi	a0,a0,1366 # 55555556 <absimm+0x10263027>
    1ee8:	66754593          	xori	a1,a0,1639
    1eec:	78b1aa23          	sw	a1,1940(gp)

00001ef0 <inst_508>:
    1ef0:	55555537          	lui	a0,0x55555
    1ef4:	55650513          	addi	a0,a0,1366 # 55555556 <absimm+0x10263027>
    1ef8:	fd454593          	xori	a1,a0,-44
    1efc:	78b1ac23          	sw	a1,1944(gp)

00001f00 <inst_509>:
    1f00:	55555537          	lui	a0,0x55555
    1f04:	55650513          	addi	a0,a0,1366 # 55555556 <absimm+0x10263027>
    1f08:	02e54593          	xori	a1,a0,46
    1f0c:	78b1ae23          	sw	a1,1948(gp)

00001f10 <inst_510>:
    1f10:	aaaab537          	lui	a0,0xaaaab
    1f14:	aab50513          	addi	a0,a0,-1365 # aaaaaaab <absimm+0x657b857c>
    1f18:	00354593          	xori	a1,a0,3
    1f1c:	7ab1a023          	sw	a1,1952(gp)

00001f20 <inst_511>:
    1f20:	aaaab537          	lui	a0,0xaaaab
    1f24:	aab50513          	addi	a0,a0,-1365 # aaaaaaab <absimm+0x657b857c>
    1f28:	55554593          	xori	a1,a0,1365
    1f2c:	7ab1a223          	sw	a1,1956(gp)

00001f30 <inst_512>:
    1f30:	aaaab537          	lui	a0,0xaaaab
    1f34:	aab50513          	addi	a0,a0,-1365 # aaaaaaab <absimm+0x657b857c>
    1f38:	aaa54593          	xori	a1,a0,-1366
    1f3c:	7ab1a423          	sw	a1,1960(gp)

00001f40 <inst_513>:
    1f40:	aaaab537          	lui	a0,0xaaaab
    1f44:	aab50513          	addi	a0,a0,-1365 # aaaaaaab <absimm+0x657b857c>
    1f48:	00554593          	xori	a1,a0,5
    1f4c:	7ab1a623          	sw	a1,1964(gp)

00001f50 <inst_514>:
    1f50:	aaaab537          	lui	a0,0xaaaab
    1f54:	aab50513          	addi	a0,a0,-1365 # aaaaaaab <absimm+0x657b857c>
    1f58:	33354593          	xori	a1,a0,819
    1f5c:	7ab1a823          	sw	a1,1968(gp)

00001f60 <inst_515>:
    1f60:	aaaab537          	lui	a0,0xaaaab
    1f64:	aab50513          	addi	a0,a0,-1365 # aaaaaaab <absimm+0x657b857c>
    1f68:	66654593          	xori	a1,a0,1638
    1f6c:	7ab1aa23          	sw	a1,1972(gp)

00001f70 <inst_516>:
    1f70:	aaaab537          	lui	a0,0xaaaab
    1f74:	aab50513          	addi	a0,a0,-1365 # aaaaaaab <absimm+0x657b857c>
    1f78:	fd354593          	xori	a1,a0,-45
    1f7c:	7ab1ac23          	sw	a1,1976(gp)

00001f80 <inst_517>:
    1f80:	aaaab537          	lui	a0,0xaaaab
    1f84:	aab50513          	addi	a0,a0,-1365 # aaaaaaab <absimm+0x657b857c>
    1f88:	02d54593          	xori	a1,a0,45
    1f8c:	7ab1ae23          	sw	a1,1980(gp)

00001f90 <inst_518>:
    1f90:	aaaab537          	lui	a0,0xaaaab
    1f94:	aab50513          	addi	a0,a0,-1365 # aaaaaaab <absimm+0x657b857c>
    1f98:	00254593          	xori	a1,a0,2
    1f9c:	7cb1a023          	sw	a1,1984(gp)

00001fa0 <inst_519>:
    1fa0:	aaaab537          	lui	a0,0xaaaab
    1fa4:	aab50513          	addi	a0,a0,-1365 # aaaaaaab <absimm+0x657b857c>
    1fa8:	55454593          	xori	a1,a0,1364
    1fac:	7cb1a223          	sw	a1,1988(gp)

00001fb0 <inst_520>:
    1fb0:	aaaab537          	lui	a0,0xaaaab
    1fb4:	aab50513          	addi	a0,a0,-1365 # aaaaaaab <absimm+0x657b857c>
    1fb8:	00054593          	xori	a1,a0,0
    1fbc:	7cb1a423          	sw	a1,1992(gp)

00001fc0 <inst_521>:
    1fc0:	aaaab537          	lui	a0,0xaaaab
    1fc4:	aab50513          	addi	a0,a0,-1365 # aaaaaaab <absimm+0x657b857c>
    1fc8:	00454593          	xori	a1,a0,4
    1fcc:	7cb1a623          	sw	a1,1996(gp)

00001fd0 <inst_522>:
    1fd0:	aaaab537          	lui	a0,0xaaaab
    1fd4:	aab50513          	addi	a0,a0,-1365 # aaaaaaab <absimm+0x657b857c>
    1fd8:	33254593          	xori	a1,a0,818
    1fdc:	7cb1a823          	sw	a1,2000(gp)

00001fe0 <inst_523>:
    1fe0:	aaaab537          	lui	a0,0xaaaab
    1fe4:	aab50513          	addi	a0,a0,-1365 # aaaaaaab <absimm+0x657b857c>
    1fe8:	66554593          	xori	a1,a0,1637
    1fec:	7cb1aa23          	sw	a1,2004(gp)

00001ff0 <inst_524>:
    1ff0:	aaaab537          	lui	a0,0xaaaab
    1ff4:	aab50513          	addi	a0,a0,-1365 # aaaaaaab <absimm+0x657b857c>
    1ff8:	02c54593          	xori	a1,a0,44
    1ffc:	7cb1ac23          	sw	a1,2008(gp)

00002000 <inst_525>:
    2000:	aaaab537          	lui	a0,0xaaaab
    2004:	aab50513          	addi	a0,a0,-1365 # aaaaaaab <absimm+0x657b857c>
    2008:	55654593          	xori	a1,a0,1366
    200c:	7cb1ae23          	sw	a1,2012(gp)

00002010 <inst_526>:
    2010:	aaaab537          	lui	a0,0xaaaab
    2014:	aab50513          	addi	a0,a0,-1365 # aaaaaaab <absimm+0x657b857c>
    2018:	aab54593          	xori	a1,a0,-1365
    201c:	7eb1a023          	sw	a1,2016(gp)

00002020 <inst_527>:
    2020:	aaaab537          	lui	a0,0xaaaab
    2024:	aab50513          	addi	a0,a0,-1365 # aaaaaaab <absimm+0x657b857c>
    2028:	00654593          	xori	a1,a0,6
    202c:	7eb1a223          	sw	a1,2020(gp)

00002030 <inst_528>:
    2030:	aaaab537          	lui	a0,0xaaaab
    2034:	aab50513          	addi	a0,a0,-1365 # aaaaaaab <absimm+0x657b857c>
    2038:	33454593          	xori	a1,a0,820
    203c:	7eb1a423          	sw	a1,2024(gp)

00002040 <inst_529>:
    2040:	aaaab537          	lui	a0,0xaaaab
    2044:	aab50513          	addi	a0,a0,-1365 # aaaaaaab <absimm+0x657b857c>
    2048:	66754593          	xori	a1,a0,1639
    204c:	7eb1a623          	sw	a1,2028(gp)

00002050 <inst_530>:
    2050:	aaaab537          	lui	a0,0xaaaab
    2054:	aab50513          	addi	a0,a0,-1365 # aaaaaaab <absimm+0x657b857c>
    2058:	fd454593          	xori	a1,a0,-44
    205c:	7eb1a823          	sw	a1,2032(gp)

00002060 <inst_531>:
    2060:	aaaab537          	lui	a0,0xaaaab
    2064:	aab50513          	addi	a0,a0,-1365 # aaaaaaab <absimm+0x657b857c>
    2068:	02e54593          	xori	a1,a0,46
    206c:	7eb1aa23          	sw	a1,2036(gp)

00002070 <inst_532>:
    2070:	00600513          	addi	a0,zero,6
    2074:	00354593          	xori	a1,a0,3
    2078:	7eb1ac23          	sw	a1,2040(gp)

0000207c <inst_533>:
    207c:	00600513          	addi	a0,zero,6
    2080:	55554593          	xori	a1,a0,1365
    2084:	7eb1ae23          	sw	a1,2044(gp)
    2088:	00000013          	addi	zero,zero,0
    208c:	00000013          	addi	zero,zero,0
    2090:	00000013          	addi	zero,zero,0
    2094:	00000013          	addi	zero,zero,0
    2098:	00000013          	addi	zero,zero,0
    209c:	00000013          	addi	zero,zero,0
    20a0:	00008197          	auipc	gp,0x8
    20a4:	8cc18193          	addi	gp,gp,-1844 # 996c <signature_x3_1>
    20a8:	00000013          	addi	zero,zero,0
    20ac:	00000013          	addi	zero,zero,0
    20b0:	00000013          	addi	zero,zero,0
    20b4:	00000013          	addi	zero,zero,0
    20b8:	00000013          	addi	zero,zero,0
    20bc:	00000013          	addi	zero,zero,0

000020c0 <inst_534>:
    20c0:	00600513          	addi	a0,zero,6
    20c4:	aaa54593          	xori	a1,a0,-1366
    20c8:	00b1a023          	sw	a1,0(gp)

000020cc <inst_535>:
    20cc:	00600513          	addi	a0,zero,6
    20d0:	00554593          	xori	a1,a0,5
    20d4:	00b1a223          	sw	a1,4(gp)

000020d8 <inst_536>:
    20d8:	00600513          	addi	a0,zero,6
    20dc:	33354593          	xori	a1,a0,819
    20e0:	00b1a423          	sw	a1,8(gp)

000020e4 <inst_537>:
    20e4:	00600513          	addi	a0,zero,6
    20e8:	66654593          	xori	a1,a0,1638
    20ec:	00b1a623          	sw	a1,12(gp)

000020f0 <inst_538>:
    20f0:	00600513          	addi	a0,zero,6
    20f4:	fd354593          	xori	a1,a0,-45
    20f8:	00b1a823          	sw	a1,16(gp)

000020fc <inst_539>:
    20fc:	00600513          	addi	a0,zero,6
    2100:	02d54593          	xori	a1,a0,45
    2104:	00b1aa23          	sw	a1,20(gp)

00002108 <inst_540>:
    2108:	00600513          	addi	a0,zero,6
    210c:	00254593          	xori	a1,a0,2
    2110:	00b1ac23          	sw	a1,24(gp)

00002114 <inst_541>:
    2114:	00600513          	addi	a0,zero,6
    2118:	55454593          	xori	a1,a0,1364
    211c:	00b1ae23          	sw	a1,28(gp)

00002120 <inst_542>:
    2120:	00600513          	addi	a0,zero,6
    2124:	00054593          	xori	a1,a0,0
    2128:	02b1a023          	sw	a1,32(gp)

0000212c <inst_543>:
    212c:	00600513          	addi	a0,zero,6
    2130:	00454593          	xori	a1,a0,4
    2134:	02b1a223          	sw	a1,36(gp)

00002138 <inst_544>:
    2138:	00600513          	addi	a0,zero,6
    213c:	33254593          	xori	a1,a0,818
    2140:	02b1a423          	sw	a1,40(gp)

00002144 <inst_545>:
    2144:	00600513          	addi	a0,zero,6
    2148:	66554593          	xori	a1,a0,1637
    214c:	02b1a623          	sw	a1,44(gp)

00002150 <inst_546>:
    2150:	00600513          	addi	a0,zero,6
    2154:	02c54593          	xori	a1,a0,44
    2158:	02b1a823          	sw	a1,48(gp)

0000215c <inst_547>:
    215c:	00600513          	addi	a0,zero,6
    2160:	55654593          	xori	a1,a0,1366
    2164:	02b1aa23          	sw	a1,52(gp)

00002168 <inst_548>:
    2168:	00600513          	addi	a0,zero,6
    216c:	aab54593          	xori	a1,a0,-1365
    2170:	02b1ac23          	sw	a1,56(gp)

00002174 <inst_549>:
    2174:	00600513          	addi	a0,zero,6
    2178:	00654593          	xori	a1,a0,6
    217c:	02b1ae23          	sw	a1,60(gp)

00002180 <inst_550>:
    2180:	00600513          	addi	a0,zero,6
    2184:	33454593          	xori	a1,a0,820
    2188:	04b1a023          	sw	a1,64(gp)

0000218c <inst_551>:
    218c:	00600513          	addi	a0,zero,6
    2190:	66754593          	xori	a1,a0,1639
    2194:	04b1a223          	sw	a1,68(gp)

00002198 <inst_552>:
    2198:	00600513          	addi	a0,zero,6
    219c:	fd454593          	xori	a1,a0,-44
    21a0:	04b1a423          	sw	a1,72(gp)

000021a4 <inst_553>:
    21a4:	00600513          	addi	a0,zero,6
    21a8:	02e54593          	xori	a1,a0,46
    21ac:	04b1a623          	sw	a1,76(gp)

000021b0 <inst_554>:
    21b0:	33333537          	lui	a0,0x33333
    21b4:	33450513          	addi	a0,a0,820 # 33333334 <_end+0x3332982c>
    21b8:	00354593          	xori	a1,a0,3
    21bc:	04b1a823          	sw	a1,80(gp)

000021c0 <inst_555>:
    21c0:	33333537          	lui	a0,0x33333
    21c4:	33450513          	addi	a0,a0,820 # 33333334 <_end+0x3332982c>
    21c8:	55554593          	xori	a1,a0,1365
    21cc:	04b1aa23          	sw	a1,84(gp)

000021d0 <inst_556>:
    21d0:	33333537          	lui	a0,0x33333
    21d4:	33450513          	addi	a0,a0,820 # 33333334 <_end+0x3332982c>
    21d8:	aaa54593          	xori	a1,a0,-1366
    21dc:	04b1ac23          	sw	a1,88(gp)

000021e0 <inst_557>:
    21e0:	33333537          	lui	a0,0x33333
    21e4:	33450513          	addi	a0,a0,820 # 33333334 <_end+0x3332982c>
    21e8:	00554593          	xori	a1,a0,5
    21ec:	04b1ae23          	sw	a1,92(gp)

000021f0 <inst_558>:
    21f0:	33333537          	lui	a0,0x33333
    21f4:	33450513          	addi	a0,a0,820 # 33333334 <_end+0x3332982c>
    21f8:	33354593          	xori	a1,a0,819
    21fc:	06b1a023          	sw	a1,96(gp)

00002200 <inst_559>:
    2200:	33333537          	lui	a0,0x33333
    2204:	33450513          	addi	a0,a0,820 # 33333334 <_end+0x3332982c>
    2208:	66654593          	xori	a1,a0,1638
    220c:	06b1a223          	sw	a1,100(gp)

00002210 <inst_560>:
    2210:	33333537          	lui	a0,0x33333
    2214:	33450513          	addi	a0,a0,820 # 33333334 <_end+0x3332982c>
    2218:	fd354593          	xori	a1,a0,-45
    221c:	06b1a423          	sw	a1,104(gp)

00002220 <inst_561>:
    2220:	33333537          	lui	a0,0x33333
    2224:	33450513          	addi	a0,a0,820 # 33333334 <_end+0x3332982c>
    2228:	02d54593          	xori	a1,a0,45
    222c:	06b1a623          	sw	a1,108(gp)

00002230 <inst_562>:
    2230:	33333537          	lui	a0,0x33333
    2234:	33450513          	addi	a0,a0,820 # 33333334 <_end+0x3332982c>
    2238:	00254593          	xori	a1,a0,2
    223c:	06b1a823          	sw	a1,112(gp)

00002240 <inst_563>:
    2240:	33333537          	lui	a0,0x33333
    2244:	33450513          	addi	a0,a0,820 # 33333334 <_end+0x3332982c>
    2248:	55454593          	xori	a1,a0,1364
    224c:	06b1aa23          	sw	a1,116(gp)

00002250 <inst_564>:
    2250:	33333537          	lui	a0,0x33333
    2254:	33450513          	addi	a0,a0,820 # 33333334 <_end+0x3332982c>
    2258:	00054593          	xori	a1,a0,0
    225c:	06b1ac23          	sw	a1,120(gp)

00002260 <inst_565>:
    2260:	33333537          	lui	a0,0x33333
    2264:	33450513          	addi	a0,a0,820 # 33333334 <_end+0x3332982c>
    2268:	00454593          	xori	a1,a0,4
    226c:	06b1ae23          	sw	a1,124(gp)

00002270 <cleanup_epilogs>:
    2270:	0200006f          	jal	zero,2290 <exit_cleanup>

00002274 <abort_tests>:
    2274:	17812483          	lw	s1,376(sp)
    2278:	18012303          	lw	t1,384(sp)
    227c:	00930333          	add	t1,t1,s1
    2280:	bad0e337          	lui	t1,0xbad0e
    2284:	ad030313          	addi	t1,t1,-1328 # bad0dad0 <immx>
    2288:	fe64ae23          	sw	t1,-4(s1)
    228c:	0040006f          	jal	zero,2290 <exit_cleanup>

00002290 <exit_cleanup>:
    2290:	00007517          	auipc	a0,0x7
    2294:	e8050513          	addi	a0,a0,-384 # 9110 <begin_signature>
    2298:	00007597          	auipc	a1,0x7
    229c:	75858593          	addi	a1,a1,1880 # 99f0 <end_signature>
    22a0:	00008637          	lui	a2,0x8
    22a4:	00460613          	addi	a2,a2,4 # 8004 <rvtest_data_begin+0x4>

000022a8 <sig_dump_loop>:
    22a8:	00052283          	lw	t0,0(a0)
    22ac:	00562023          	sw	t0,0(a2)
    22b0:	00450513          	addi	a0,a0,4
    22b4:	00b55463          	bge	a0,a1,22bc <end_sim>
    22b8:	ff1ff06f          	jal	zero,22a8 <sig_dump_loop>

000022bc <end_sim>:
    22bc:	00008537          	lui	a0,0x8
    22c0:	00850513          	addi	a0,a0,8 # 8008 <rvtest_data_begin+0x8>
    22c4:	cafed5b7          	lui	a1,0xcafed
    22c8:	afe58593          	addi	a1,a1,-1282 # cafecafe <immx+0x102df02e>
    22cc:	00b52023          	sw	a1,0(a0)
    22d0:	fedff06f          	jal	zero,22bc <end_sim>
	...
