
my.elf:     file format elf32-littleriscv


Disassembly of section .text.init:

00000000 <rvtest_entry_point>:
       0:	7d5c0837          	lui	a6,0x7d5c0
       4:	ddb80813          	addi	a6,a6,-549 # 7d5bfddb <absimm+0x382cd8ac>
       8:	00785893          	srli	a7,a6,0x7
       c:	01985793          	srli	a5,a6,0x19
      10:	00f8e8b3          	or	a7,a7,a5
      14:	0078d913          	srli	s2,a7,0x7
      18:	0198d793          	srli	a5,a7,0x19
      1c:	00f96933          	or	s2,s2,a5
      20:	00795993          	srli	s3,s2,0x7
      24:	01995793          	srli	a5,s2,0x19
      28:	00f9e9b3          	or	s3,s3,a5
      2c:	0079da13          	srli	s4,s3,0x7
      30:	0199d793          	srli	a5,s3,0x19
      34:	00fa6a33          	or	s4,s4,a5
      38:	007a5a93          	srli	s5,s4,0x7
      3c:	019a5793          	srli	a5,s4,0x19
      40:	00faeab3          	or	s5,s5,a5
      44:	007adb13          	srli	s6,s5,0x7
      48:	019ad793          	srli	a5,s5,0x19
      4c:	00fb6b33          	or	s6,s6,a5
      50:	007b5b93          	srli	s7,s6,0x7
      54:	019b5793          	srli	a5,s6,0x19
      58:	00fbebb3          	or	s7,s7,a5
      5c:	007bdc13          	srli	s8,s7,0x7
      60:	019bd793          	srli	a5,s7,0x19
      64:	00fc6c33          	or	s8,s8,a5
      68:	007c5c93          	srli	s9,s8,0x7
      6c:	019c5793          	srli	a5,s8,0x19
      70:	00fcecb3          	or	s9,s9,a5
      74:	007cdd13          	srli	s10,s9,0x7
      78:	019cd793          	srli	a5,s9,0x19
      7c:	00fd6d33          	or	s10,s10,a5
      80:	007d5d93          	srli	s11,s10,0x7
      84:	019d5793          	srli	a5,s10,0x19
      88:	00fdedb3          	or	s11,s11,a5
      8c:	007dde13          	srli	t3,s11,0x7
      90:	019dd793          	srli	a5,s11,0x19
      94:	00fe6e33          	or	t3,t3,a5
      98:	007e5e93          	srli	t4,t3,0x7
      9c:	019e5793          	srli	a5,t3,0x19
      a0:	00feeeb3          	or	t4,t4,a5
      a4:	007edf13          	srli	t5,t4,0x7
      a8:	019ed793          	srli	a5,t4,0x19
      ac:	00ff6f33          	or	t5,t5,a5
      b0:	feedc0b7          	lui	ra,0xfeedc
      b4:	ead08093          	addi	ra,ra,-339 # feedbead <immx+0x441ce3dd>
      b8:	0070d113          	srli	sp,ra,0x7
      bc:	0190d793          	srli	a5,ra,0x19
      c0:	00f16133          	or	sp,sp,a5
      c4:	00715193          	srli	gp,sp,0x7
      c8:	01915793          	srli	a5,sp,0x19
      cc:	00f1e1b3          	or	gp,gp,a5
      d0:	0071d213          	srli	tp,gp,0x7
      d4:	0191d793          	srli	a5,gp,0x19
      d8:	00f26233          	or	tp,tp,a5
      dc:	00725293          	srli	t0,tp,0x7
      e0:	01925793          	srli	a5,tp,0x19
      e4:	00f2e2b3          	or	t0,t0,a5
      e8:	0072d313          	srli	t1,t0,0x7
      ec:	0192d793          	srli	a5,t0,0x19
      f0:	00f36333          	or	t1,t1,a5
      f4:	00735393          	srli	t2,t1,0x7
      f8:	01935793          	srli	a5,t1,0x19
      fc:	00f3e3b3          	or	t2,t2,a5
     100:	0073d413          	srli	s0,t2,0x7
     104:	0193d793          	srli	a5,t2,0x19
     108:	00f46433          	or	s0,s0,a5
     10c:	00745493          	srli	s1,s0,0x7
     110:	01945793          	srli	a5,s0,0x19
     114:	00f4e4b3          	or	s1,s1,a5
     118:	0074d513          	srli	a0,s1,0x7
     11c:	0194d793          	srli	a5,s1,0x19
     120:	00f56533          	or	a0,a0,a5
     124:	00755593          	srli	a1,a0,0x7
     128:	01955793          	srli	a5,a0,0x19
     12c:	00f5e5b3          	or	a1,a1,a5
     130:	0075d613          	srli	a2,a1,0x7
     134:	0195d793          	srli	a5,a1,0x19
     138:	00f66633          	or	a2,a2,a5
     13c:	00765693          	srli	a3,a2,0x7
     140:	01965793          	srli	a5,a2,0x19
     144:	00f6e6b3          	or	a3,a3,a5

00000148 <rvtest_code_begin>:
     148:	00000013          	addi	zero,zero,0
     14c:	00000013          	addi	zero,zero,0
     150:	00000013          	addi	zero,zero,0
     154:	00000013          	addi	zero,zero,0
     158:	00000013          	addi	zero,zero,0
     15c:	00000013          	addi	zero,zero,0
     160:	00009097          	auipc	ra,0x9
     164:	fb408093          	addi	ra,ra,-76 # 9114 <signature_x1_0>
     168:	00000013          	addi	zero,zero,0
     16c:	00000013          	addi	zero,zero,0
     170:	00000013          	addi	zero,zero,0
     174:	00000013          	addi	zero,zero,0
     178:	00000013          	addi	zero,zero,0
     17c:	00000013          	addi	zero,zero,0

00000180 <inst_0>:
     180:	55555c37          	lui	s8,0x55555
     184:	554c0c13          	addi	s8,s8,1364 # 55555554 <absimm+0x10263025>
     188:	00600d13          	addi	s10,zero,6
     18c:	41ac0d33          	sub	s10,s8,s10
     190:	01a0a023          	sw	s10,0(ra)

00000194 <inst_1>:
     194:	020008b7          	lui	a7,0x2000
     198:	020008b7          	lui	a7,0x2000
     19c:	41188bb3          	sub	s7,a7,a7
     1a0:	0170a223          	sw	s7,4(ra)

000001a4 <inst_2>:
     1a4:	ff900813          	addi	a6,zero,-7
     1a8:	ff900813          	addi	a6,zero,-7
     1ac:	41080833          	sub	a6,a6,a6
     1b0:	0100a423          	sw	a6,8(ra)

000001b4 <inst_3>:
     1b4:	ffd00f93          	addi	t6,zero,-3
     1b8:	666669b7          	lui	s3,0x66666
     1bc:	66598993          	addi	s3,s3,1637 # 66666665 <absimm+0x21374136>
     1c0:	413f8fb3          	sub	t6,t6,s3
     1c4:	01f0a623          	sw	t6,12(ra)

000001c8 <inst_4>:
     1c8:	00080bb7          	lui	s7,0x80
     1cc:	00080737          	lui	a4,0x80
     1d0:	40eb8433          	sub	s0,s7,a4
     1d4:	0080a823          	sw	s0,16(ra)

000001d8 <inst_5>:
     1d8:	fc0006b7          	lui	a3,0xfc000
     1dc:	fff68693          	addi	a3,a3,-1 # fbffffff <immx+0x412f252f>
     1e0:	80000c37          	lui	s8,0x80000
     1e4:	41868933          	sub	s2,a3,s8
     1e8:	0120aa23          	sw	s2,20(ra)

000001ec <inst_6>:
     1ec:	02000613          	addi	a2,zero,32
     1f0:	00000213          	addi	tp,zero,0
     1f4:	40460033          	sub	zero,a2,tp
     1f8:	0000ac23          	sw	zero,24(ra)

000001fc <inst_7>:
     1fc:	e0000b37          	lui	s6,0xe0000
     200:	fffb0b13          	addi	s6,s6,-1 # dfffffff <immx+0x252f252f>
     204:	800004b7          	lui	s1,0x80000
     208:	fff48493          	addi	s1,s1,-1 # 7fffffff <absimm+0x3ad0dad0>
     20c:	409b0533          	sub	a0,s6,s1
     210:	00a0ae23          	sw	a0,28(ra)

00000214 <inst_8>:
     214:	00010537          	lui	a0,0x10
     218:	00100d93          	addi	s11,zero,1
     21c:	41b50cb3          	sub	s9,a0,s11
     220:	0390a023          	sw	s9,32(ra)

00000224 <inst_9>:
     224:	80000437          	lui	s0,0x80000
     228:	c00001b7          	lui	gp,0xc0000
     22c:	40340733          	sub	a4,s0,gp
     230:	02e0a223          	sw	a4,36(ra)

00000234 <inst_10>:
     234:	00000c93          	addi	s9,zero,0
     238:	00200f37          	lui	t5,0x200
     23c:	41ec8eb3          	sub	t4,s9,t5
     240:	03d0a423          	sw	t4,40(ra)

00000244 <inst_11>:
     244:	80000937          	lui	s2,0x80000
     248:	fff90913          	addi	s2,s2,-1 # 7fffffff <absimm+0x3ad0dad0>
     24c:	00002437          	lui	s0,0x2
     250:	408907b3          	sub	a5,s2,s0
     254:	02f0a623          	sw	a5,44(ra)

00000258 <inst_12>:
     258:	00100713          	addi	a4,zero,1
     25c:	01000793          	addi	a5,zero,16
     260:	40f701b3          	sub	gp,a4,a5
     264:	0230a823          	sw	gp,48(ra)

00000268 <inst_13>:
     268:	ff900d13          	addi	s10,zero,-7
     26c:	00200e93          	addi	t4,zero,2
     270:	41dd06b3          	sub	a3,s10,t4
     274:	02d0aa23          	sw	a3,52(ra)

00000278 <inst_14>:
     278:	00200a93          	addi	s5,zero,2
     27c:	00400f93          	addi	t6,zero,4
     280:	41fa89b3          	sub	s3,s5,t6
     284:	0330ac23          	sw	s3,56(ra)

00000288 <inst_15>:
     288:	ff000f37          	lui	t5,0xff000
     28c:	ffff0f13          	addi	t5,t5,-1 # feffffff <immx+0x442f252f>
     290:	00800293          	addi	t0,zero,8
     294:	405f05b3          	sub	a1,t5,t0
     298:	02b0ae23          	sw	a1,60(ra)

0000029c <inst_16>:
     29c:	aaaabe37          	lui	t3,0xaaaab
     2a0:	aaae0e13          	addi	t3,t3,-1366 # aaaaaaaa <absimm+0x657b857b>
     2a4:	02000393          	addi	t2,zero,32
     2a8:	407e0f33          	sub	t5,t3,t2
     2ac:	05e0a023          	sw	t5,64(ra)

000002b0 <inst_17>:
     2b0:	fbf00493          	addi	s1,zero,-65
     2b4:	04000513          	addi	a0,zero,64
     2b8:	40a483b3          	sub	t2,s1,a0
     2bc:	0470a223          	sw	t2,68(ra)

000002c0 <inst_18>:
     2c0:	00000013          	addi	zero,zero,0
     2c4:	08000913          	addi	s2,zero,128
     2c8:	412008b3          	sub	a7,zero,s2
     2cc:	0510a423          	sw	a7,72(ra)

000002d0 <inst_19>:
     2d0:	c0000137          	lui	sp,0xc0000
     2d4:	10000613          	addi	a2,zero,256
     2d8:	40c10db3          	sub	s11,sp,a2
     2dc:	05b0a623          	sw	s11,76(ra)
     2e0:	00009417          	auipc	s0,0x9
     2e4:	e8440413          	addi	s0,s0,-380 # 9164 <signature_x8_0>
     2e8:	00000013          	addi	zero,zero,0
     2ec:	00000013          	addi	zero,zero,0
     2f0:	00000013          	addi	zero,zero,0
     2f4:	00000013          	addi	zero,zero,0
     2f8:	00000013          	addi	zero,zero,0
     2fc:	00000013          	addi	zero,zero,0

00000300 <inst_20>:
     300:	ffff5237          	lui	tp,0xffff5
     304:	afd20213          	addi	tp,tp,-1283 # ffff4afd <immx+0x452e702d>
     308:	20000e13          	addi	t3,zero,512
     30c:	41c20a33          	sub	s4,tp,t3
     310:	01442023          	sw	s4,0(s0)

00000314 <inst_21>:
     314:	00000793          	addi	a5,zero,0
     318:	40000093          	addi	ra,zero,1024
     31c:	40178333          	sub	t1,a5,ra
     320:	00642223          	sw	t1,4(s0)

00000324 <inst_22>:
     324:	800002b7          	lui	t0,0x80000
     328:	00000013          	addi	zero,zero,0
     32c:	400284b3          	sub	s1,t0,zero
     330:	00942423          	sw	s1,8(s0)

00000334 <inst_23>:
     334:	000203b7          	lui	t2,0x20
     338:	000015b7          	lui	a1,0x1
     33c:	40b38233          	sub	tp,t2,a1
     340:	00442623          	sw	tp,12(s0)

00000344 <inst_24>:
     344:	f00009b7          	lui	s3,0xf0000
     348:	fff98993          	addi	s3,s3,-1 # efffffff <immx+0x352f252f>
     34c:	00004337          	lui	t1,0x4
     350:	406980b3          	sub	ra,s3,t1
     354:	00142823          	sw	ra,16(s0)

00000358 <inst_25>:
     358:	80000337          	lui	t1,0x80000
     35c:	fff30313          	addi	t1,t1,-1 # 7fffffff <absimm+0x3ad0dad0>
     360:	00008a37          	lui	s4,0x8
     364:	414302b3          	sub	t0,t1,s4
     368:	00542a23          	sw	t0,20(s0)

0000036c <inst_26>:
     36c:	ffff5eb7          	lui	t4,0xffff5
     370:	afde8e93          	addi	t4,t4,-1283 # ffff4afd <immx+0x452e702d>
     374:	00010b37          	lui	s6,0x10
     378:	416e8133          	sub	sp,t4,s6
     37c:	00242c23          	sw	sp,24(s0)

00000380 <inst_27>:
     380:	ff8001b7          	lui	gp,0xff800
     384:	fff18193          	addi	gp,gp,-1 # ff7fffff <immx+0x44af252f>
     388:	000206b7          	lui	a3,0x20
     38c:	40d18ab3          	sub	s5,gp,a3
     390:	01542e23          	sw	s5,28(s0)

00000394 <inst_28>:
     394:	10000093          	addi	ra,zero,256
     398:	00040ab7          	lui	s5,0x40
     39c:	41508e33          	sub	t3,ra,s5
     3a0:	03c42023          	sw	t3,32(s0)

000003a4 <inst_29>:
     3a4:	10000a13          	addi	s4,zero,256
     3a8:	00100bb7          	lui	s7,0x100
     3ac:	417a0633          	sub	a2,s4,s7
     3b0:	02c42223          	sw	a2,36(s0)

000003b4 <inst_30>:
     3b4:	ffc00d93          	addi	s11,zero,-4
     3b8:	00400cb7          	lui	s9,0x400
     3bc:	419d8b33          	sub	s6,s11,s9
     3c0:	03642423          	sw	s6,40(s0)

000003c4 <inst_31>:
     3c4:	666665b7          	lui	a1,0x66666
     3c8:	66558593          	addi	a1,a1,1637 # 66666665 <absimm+0x21374136>
     3cc:	00800137          	lui	sp,0x800
     3d0:	40258c33          	sub	s8,a1,sp
     3d4:	03842623          	sw	s8,44(s0)

000003d8 <inst_32>:
     3d8:	40000537          	lui	a0,0x40000
     3dc:	fff50513          	addi	a0,a0,-1 # 3fffffff <_end+0x3fff63f7>
     3e0:	010005b7          	lui	a1,0x1000
     3e4:	40b50633          	sub	a2,a0,a1
     3e8:	02c42823          	sw	a2,48(s0)

000003ec <inst_33>:
     3ec:	ffff5537          	lui	a0,0xffff5
     3f0:	afc50513          	addi	a0,a0,-1284 # ffff4afc <immx+0x452e702c>
     3f4:	020005b7          	lui	a1,0x2000
     3f8:	40b50633          	sub	a2,a0,a1
     3fc:	02c42a23          	sw	a2,52(s0)

00000400 <inst_34>:
     400:	ffff8537          	lui	a0,0xffff8
     404:	fff50513          	addi	a0,a0,-1 # ffff7fff <immx+0x452ea52f>
     408:	040005b7          	lui	a1,0x4000
     40c:	40b50633          	sub	a2,a0,a1
     410:	02c42c23          	sw	a2,56(s0)

00000414 <inst_35>:
     414:	00400513          	addi	a0,zero,4
     418:	080005b7          	lui	a1,0x8000
     41c:	40b50633          	sub	a2,a0,a1
     420:	02c42e23          	sw	a2,60(s0)

00000424 <inst_36>:
     424:	fffff537          	lui	a0,0xfffff
     428:	fff50513          	addi	a0,a0,-1 # ffffefff <immx+0x452f152f>
     42c:	100005b7          	lui	a1,0x10000
     430:	40b50633          	sub	a2,a0,a1
     434:	04c42023          	sw	a2,64(s0)

00000438 <inst_37>:
     438:	fffff537          	lui	a0,0xfffff
     43c:	fff50513          	addi	a0,a0,-1 # ffffefff <immx+0x452f152f>
     440:	200005b7          	lui	a1,0x20000
     444:	40b50633          	sub	a2,a0,a1
     448:	04c42223          	sw	a2,68(s0)

0000044c <inst_38>:
     44c:	00080537          	lui	a0,0x80
     450:	400005b7          	lui	a1,0x40000
     454:	40b50633          	sub	a2,a0,a1
     458:	04c42423          	sw	a2,72(s0)

0000045c <inst_39>:
     45c:	55555537          	lui	a0,0x55555
     460:	55550513          	addi	a0,a0,1365 # 55555555 <absimm+0x10263026>
     464:	ffe00593          	addi	a1,zero,-2
     468:	40b50633          	sub	a2,a0,a1
     46c:	04c42623          	sw	a2,76(s0)

00000470 <inst_40>:
     470:	ffff0537          	lui	a0,0xffff0
     474:	fff50513          	addi	a0,a0,-1 # fffeffff <immx+0x452e252f>
     478:	ffd00593          	addi	a1,zero,-3
     47c:	40b50633          	sub	a2,a0,a1
     480:	04c42823          	sw	a2,80(s0)

00000484 <inst_41>:
     484:	10000513          	addi	a0,zero,256
     488:	ffb00593          	addi	a1,zero,-5
     48c:	40b50633          	sub	a2,a0,a1
     490:	04c42a23          	sw	a2,84(s0)

00000494 <inst_42>:
     494:	02000537          	lui	a0,0x2000
     498:	ff700593          	addi	a1,zero,-9
     49c:	40b50633          	sub	a2,a0,a1
     4a0:	04c42c23          	sw	a2,88(s0)

000004a4 <inst_43>:
     4a4:	10000537          	lui	a0,0x10000
     4a8:	fef00593          	addi	a1,zero,-17
     4ac:	40b50633          	sub	a2,a0,a1
     4b0:	04c42e23          	sw	a2,92(s0)

000004b4 <inst_44>:
     4b4:	00200513          	addi	a0,zero,2
     4b8:	fdf00593          	addi	a1,zero,-33
     4bc:	40b50633          	sub	a2,a0,a1
     4c0:	06c42023          	sw	a2,96(s0)

000004c4 <inst_45>:
     4c4:	aaaab537          	lui	a0,0xaaaab
     4c8:	aaa50513          	addi	a0,a0,-1366 # aaaaaaaa <absimm+0x657b857b>
     4cc:	fbf00593          	addi	a1,zero,-65
     4d0:	40b50633          	sub	a2,a0,a1
     4d4:	06c42223          	sw	a2,100(s0)

000004d8 <inst_46>:
     4d8:	0000b537          	lui	a0,0xb
     4dc:	50550513          	addi	a0,a0,1285 # b505 <_end+0x18fd>
     4e0:	eff00593          	addi	a1,zero,-257
     4e4:	40b50633          	sub	a2,a0,a1
     4e8:	06c42423          	sw	a2,104(s0)

000004ec <inst_47>:
     4ec:	0000b537          	lui	a0,0xb
     4f0:	50550513          	addi	a0,a0,1285 # b505 <_end+0x18fd>
     4f4:	dff00593          	addi	a1,zero,-513
     4f8:	40b50633          	sub	a2,a0,a1
     4fc:	06c42623          	sw	a2,108(s0)

00000500 <inst_48>:
     500:	40000537          	lui	a0,0x40000
     504:	fff50513          	addi	a0,a0,-1 # 3fffffff <_end+0x3fff63f7>
     508:	bff00593          	addi	a1,zero,-1025
     50c:	40b50633          	sub	a2,a0,a1
     510:	06c42823          	sw	a2,112(s0)

00000514 <inst_49>:
     514:	ffff5537          	lui	a0,0xffff5
     518:	afc50513          	addi	a0,a0,-1284 # ffff4afc <immx+0x452e702c>
     51c:	fffff5b7          	lui	a1,0xfffff
     520:	7ff58593          	addi	a1,a1,2047 # fffff7ff <immx+0x452f1d2f>
     524:	40b50633          	sub	a2,a0,a1
     528:	06c42a23          	sw	a2,116(s0)

0000052c <inst_50>:
     52c:	fdf00513          	addi	a0,zero,-33
     530:	fffff5b7          	lui	a1,0xfffff
     534:	fff58593          	addi	a1,a1,-1 # ffffefff <immx+0x452f152f>
     538:	40b50633          	sub	a2,a0,a1
     53c:	06c42c23          	sw	a2,120(s0)

00000540 <inst_51>:
     540:	bff00513          	addi	a0,zero,-1025
     544:	ffffe5b7          	lui	a1,0xffffe
     548:	fff58593          	addi	a1,a1,-1 # ffffdfff <immx+0x452f052f>
     54c:	40b50633          	sub	a2,a0,a1
     550:	06c42e23          	sw	a2,124(s0)

00000554 <inst_52>:
     554:	ffff0537          	lui	a0,0xffff0
     558:	fff50513          	addi	a0,a0,-1 # fffeffff <immx+0x452e252f>
     55c:	ffffc5b7          	lui	a1,0xffffc
     560:	fff58593          	addi	a1,a1,-1 # ffffbfff <immx+0x452ee52f>
     564:	40b50633          	sub	a2,a0,a1
     568:	08c42023          	sw	a2,128(s0)

0000056c <inst_53>:
     56c:	00200513          	addi	a0,zero,2
     570:	ffff85b7          	lui	a1,0xffff8
     574:	fff58593          	addi	a1,a1,-1 # ffff7fff <immx+0x452ea52f>
     578:	40b50633          	sub	a2,a0,a1
     57c:	08c42223          	sw	a2,132(s0)

00000580 <inst_54>:
     580:	fffff537          	lui	a0,0xfffff
     584:	7ff50513          	addi	a0,a0,2047 # fffff7ff <immx+0x452f1d2f>
     588:	ffff05b7          	lui	a1,0xffff0
     58c:	fff58593          	addi	a1,a1,-1 # fffeffff <immx+0x452e252f>
     590:	40b50633          	sub	a2,a0,a1
     594:	08c42423          	sw	a2,136(s0)

00000598 <inst_55>:
     598:	ff800537          	lui	a0,0xff800
     59c:	fff50513          	addi	a0,a0,-1 # ff7fffff <immx+0x44af252f>
     5a0:	fffe05b7          	lui	a1,0xfffe0
     5a4:	fff58593          	addi	a1,a1,-1 # fffdffff <immx+0x452d252f>
     5a8:	40b50633          	sub	a2,a0,a1
     5ac:	08c42623          	sw	a2,140(s0)

000005b0 <inst_56>:
     5b0:	eff00513          	addi	a0,zero,-257
     5b4:	fffc05b7          	lui	a1,0xfffc0
     5b8:	fff58593          	addi	a1,a1,-1 # fffbffff <immx+0x452b252f>
     5bc:	40b50633          	sub	a2,a0,a1
     5c0:	08c42823          	sw	a2,144(s0)

000005c4 <inst_57>:
     5c4:	f8000537          	lui	a0,0xf8000
     5c8:	fff50513          	addi	a0,a0,-1 # f7ffffff <immx+0x3d2f252f>
     5cc:	fff805b7          	lui	a1,0xfff80
     5d0:	fff58593          	addi	a1,a1,-1 # fff7ffff <immx+0x4527252f>
     5d4:	40b50633          	sub	a2,a0,a1
     5d8:	08c42a23          	sw	a2,148(s0)

000005dc <inst_58>:
     5dc:	ffc00537          	lui	a0,0xffc00
     5e0:	fff50513          	addi	a0,a0,-1 # ffbfffff <immx+0x44ef252f>
     5e4:	fff005b7          	lui	a1,0xfff00
     5e8:	fff58593          	addi	a1,a1,-1 # ffefffff <immx+0x451f252f>
     5ec:	40b50633          	sub	a2,a0,a1
     5f0:	08c42c23          	sw	a2,152(s0)

000005f4 <inst_59>:
     5f4:	ffd00513          	addi	a0,zero,-3
     5f8:	ffe005b7          	lui	a1,0xffe00
     5fc:	fff58593          	addi	a1,a1,-1 # ffdfffff <immx+0x450f252f>
     600:	40b50633          	sub	a2,a0,a1
     604:	08c42e23          	sw	a2,156(s0)

00000608 <inst_60>:
     608:	f8000537          	lui	a0,0xf8000
     60c:	fff50513          	addi	a0,a0,-1 # f7ffffff <immx+0x3d2f252f>
     610:	ffc005b7          	lui	a1,0xffc00
     614:	fff58593          	addi	a1,a1,-1 # ffbfffff <immx+0x44ef252f>
     618:	40b50633          	sub	a2,a0,a1
     61c:	0ac42023          	sw	a2,160(s0)

00000620 <inst_61>:
     620:	f8000537          	lui	a0,0xf8000
     624:	fff50513          	addi	a0,a0,-1 # f7ffffff <immx+0x3d2f252f>
     628:	ff8005b7          	lui	a1,0xff800
     62c:	fff58593          	addi	a1,a1,-1 # ff7fffff <immx+0x44af252f>
     630:	40b50633          	sub	a2,a0,a1
     634:	0ac42223          	sw	a2,164(s0)

00000638 <inst_62>:
     638:	33333537          	lui	a0,0x33333
     63c:	33450513          	addi	a0,a0,820 # 33333334 <_end+0x3332972c>
     640:	ff0005b7          	lui	a1,0xff000
     644:	fff58593          	addi	a1,a1,-1 # feffffff <immx+0x442f252f>
     648:	40b50633          	sub	a2,a0,a1
     64c:	0ac42423          	sw	a2,168(s0)

00000650 <inst_63>:
     650:	55555537          	lui	a0,0x55555
     654:	55550513          	addi	a0,a0,1365 # 55555555 <absimm+0x10263026>
     658:	fe0005b7          	lui	a1,0xfe000
     65c:	fff58593          	addi	a1,a1,-1 # fdffffff <immx+0x432f252f>
     660:	40b50633          	sub	a2,a0,a1
     664:	0ac42623          	sw	a2,172(s0)

00000668 <inst_64>:
     668:	00300513          	addi	a0,zero,3
     66c:	fc0005b7          	lui	a1,0xfc000
     670:	fff58593          	addi	a1,a1,-1 # fbffffff <immx+0x412f252f>
     674:	40b50633          	sub	a2,a0,a1
     678:	0ac42823          	sw	a2,176(s0)

0000067c <inst_65>:
     67c:	33333537          	lui	a0,0x33333
     680:	33450513          	addi	a0,a0,820 # 33333334 <_end+0x3332972c>
     684:	f80005b7          	lui	a1,0xf8000
     688:	fff58593          	addi	a1,a1,-1 # f7ffffff <immx+0x3d2f252f>
     68c:	40b50633          	sub	a2,a0,a1
     690:	0ac42a23          	sw	a2,180(s0)

00000694 <inst_66>:
     694:	0000b537          	lui	a0,0xb
     698:	50350513          	addi	a0,a0,1283 # b503 <_end+0x18fb>
     69c:	f00005b7          	lui	a1,0xf0000
     6a0:	fff58593          	addi	a1,a1,-1 # efffffff <immx+0x352f252f>
     6a4:	40b50633          	sub	a2,a0,a1
     6a8:	0ac42c23          	sw	a2,184(s0)

000006ac <inst_67>:
     6ac:	00400513          	addi	a0,zero,4
     6b0:	e00005b7          	lui	a1,0xe0000
     6b4:	fff58593          	addi	a1,a1,-1 # dfffffff <immx+0x252f252f>
     6b8:	40b50633          	sub	a2,a0,a1
     6bc:	0ac42e23          	sw	a2,188(s0)

000006c0 <inst_68>:
     6c0:	00000513          	addi	a0,zero,0
     6c4:	c00005b7          	lui	a1,0xc0000
     6c8:	fff58593          	addi	a1,a1,-1 # bfffffff <immx+0x52f252f>
     6cc:	40b50633          	sub	a2,a0,a1
     6d0:	0cc42023          	sw	a2,192(s0)

000006d4 <inst_69>:
     6d4:	10000513          	addi	a0,zero,256
     6d8:	555555b7          	lui	a1,0x55555
     6dc:	55558593          	addi	a1,a1,1365 # 55555555 <absimm+0x10263026>
     6e0:	40b50633          	sub	a2,a0,a1
     6e4:	0cc42223          	sw	a2,196(s0)

000006e8 <inst_70>:
     6e8:	00040537          	lui	a0,0x40
     6ec:	aaaab5b7          	lui	a1,0xaaaab
     6f0:	aaa58593          	addi	a1,a1,-1366 # aaaaaaaa <absimm+0x657b857b>
     6f4:	40b50633          	sub	a2,a0,a1
     6f8:	0cc42423          	sw	a2,200(s0)

000006fc <inst_71>:
     6fc:	00800513          	addi	a0,zero,8
     700:	fffff5b7          	lui	a1,0xfffff
     704:	fff58593          	addi	a1,a1,-1 # ffffefff <immx+0x452f152f>
     708:	40b50633          	sub	a2,a0,a1
     70c:	0cc42623          	sw	a2,204(s0)

00000710 <inst_72>:
     710:	01000513          	addi	a0,zero,16
     714:	fffc05b7          	lui	a1,0xfffc0
     718:	fff58593          	addi	a1,a1,-1 # fffbffff <immx+0x452b252f>
     71c:	40b50633          	sub	a2,a0,a1
     720:	0cc42823          	sw	a2,208(s0)

00000724 <inst_73>:
     724:	04000513          	addi	a0,zero,64
     728:	aaaab5b7          	lui	a1,0xaaaab
     72c:	aaa58593          	addi	a1,a1,-1366 # aaaaaaaa <absimm+0x657b857b>
     730:	40b50633          	sub	a2,a0,a1
     734:	0cc42a23          	sw	a2,212(s0)

00000738 <inst_74>:
     738:	08000513          	addi	a0,zero,128
     73c:	ffffe5b7          	lui	a1,0xffffe
     740:	fff58593          	addi	a1,a1,-1 # ffffdfff <immx+0x452f052f>
     744:	40b50633          	sub	a2,a0,a1
     748:	0cc42c23          	sw	a2,216(s0)

0000074c <inst_75>:
     74c:	20000513          	addi	a0,zero,512
     750:	ffff85b7          	lui	a1,0xffff8
     754:	fff58593          	addi	a1,a1,-1 # ffff7fff <immx+0x452ea52f>
     758:	40b50633          	sub	a2,a0,a1
     75c:	0cc42e23          	sw	a2,220(s0)

00000760 <inst_76>:
     760:	40000513          	addi	a0,zero,1024
     764:	00300593          	addi	a1,zero,3
     768:	40b50633          	sub	a2,a0,a1
     76c:	0ec42023          	sw	a2,224(s0)

00000770 <inst_77>:
     770:	00001537          	lui	a0,0x1
     774:	80050513          	addi	a0,a0,-2048 # 800 <inst_85+0x4>
     778:	ffe005b7          	lui	a1,0xffe00
     77c:	fff58593          	addi	a1,a1,-1 # ffdfffff <immx+0x450f252f>
     780:	40b50633          	sub	a2,a0,a1
     784:	0ec42223          	sw	a2,228(s0)

00000788 <inst_78>:
     788:	00001537          	lui	a0,0x1
     78c:	01000593          	addi	a1,zero,16
     790:	40b50633          	sub	a2,a0,a1
     794:	0ec42423          	sw	a2,232(s0)

00000798 <inst_79>:
     798:	00002537          	lui	a0,0x2
     79c:	008005b7          	lui	a1,0x800
     7a0:	40b50633          	sub	a2,a0,a1
     7a4:	0ec42623          	sw	a2,236(s0)

000007a8 <inst_80>:
     7a8:	00004537          	lui	a0,0x4
     7ac:	000205b7          	lui	a1,0x20
     7b0:	40b50633          	sub	a2,a0,a1
     7b4:	0ec42823          	sw	a2,240(s0)

000007b8 <inst_81>:
     7b8:	00008537          	lui	a0,0x8
     7bc:	fff00593          	addi	a1,zero,-1
     7c0:	40b50633          	sub	a2,a0,a1
     7c4:	0ec42a23          	sw	a2,244(s0)

000007c8 <inst_82>:
     7c8:	00100537          	lui	a0,0x100
     7cc:	00800593          	addi	a1,zero,8
     7d0:	40b50633          	sub	a2,a0,a1
     7d4:	0ec42c23          	sw	a2,248(s0)

000007d8 <inst_83>:
     7d8:	00200537          	lui	a0,0x200
     7dc:	fef00593          	addi	a1,zero,-17
     7e0:	40b50633          	sub	a2,a0,a1
     7e4:	0ec42e23          	sw	a2,252(s0)

000007e8 <inst_84>:
     7e8:	00400537          	lui	a0,0x400
     7ec:	555555b7          	lui	a1,0x55555
     7f0:	55558593          	addi	a1,a1,1365 # 55555555 <absimm+0x10263026>
     7f4:	40b50633          	sub	a2,a0,a1
     7f8:	10c42023          	sw	a2,256(s0)

000007fc <inst_85>:
     7fc:	00800537          	lui	a0,0x800
     800:	fdf00593          	addi	a1,zero,-33
     804:	40b50633          	sub	a2,a0,a1
     808:	10c42223          	sw	a2,260(s0)

0000080c <inst_86>:
     80c:	01000537          	lui	a0,0x1000
     810:	fffe05b7          	lui	a1,0xfffe0
     814:	fff58593          	addi	a1,a1,-1 # fffdffff <immx+0x452d252f>
     818:	40b50633          	sub	a2,a0,a1
     81c:	10c42423          	sw	a2,264(s0)

00000820 <inst_87>:
     820:	04000537          	lui	a0,0x4000
     824:	00600593          	addi	a1,zero,6
     828:	40b50633          	sub	a2,a0,a1
     82c:	10c42623          	sw	a2,268(s0)

00000830 <inst_88>:
     830:	08000537          	lui	a0,0x8000
     834:	00800593          	addi	a1,zero,8
     838:	40b50633          	sub	a2,a0,a1
     83c:	10c42823          	sw	a2,272(s0)

00000840 <inst_89>:
     840:	20000537          	lui	a0,0x20000
     844:	ff0005b7          	lui	a1,0xff000
     848:	fff58593          	addi	a1,a1,-1 # feffffff <immx+0x442f252f>
     84c:	40b50633          	sub	a2,a0,a1
     850:	10c42a23          	sw	a2,276(s0)

00000854 <inst_90>:
     854:	40000537          	lui	a0,0x40000
     858:	00300593          	addi	a1,zero,3
     85c:	40b50633          	sub	a2,a0,a1
     860:	10c42c23          	sw	a2,280(s0)

00000864 <inst_91>:
     864:	ffe00513          	addi	a0,zero,-2
     868:	333335b7          	lui	a1,0x33333
     86c:	33358593          	addi	a1,a1,819 # 33333333 <_end+0x3332972b>
     870:	40b50633          	sub	a2,a0,a1
     874:	10c42e23          	sw	a2,284(s0)

00000878 <inst_92>:
     878:	ffb00513          	addi	a0,zero,-5
     87c:	00500593          	addi	a1,zero,5
     880:	40b50633          	sub	a2,a0,a1
     884:	12c42023          	sw	a2,288(s0)

00000888 <inst_93>:
     888:	ff700513          	addi	a0,zero,-9
     88c:	00000593          	addi	a1,zero,0
     890:	40b50633          	sub	a2,a0,a1
     894:	12c42223          	sw	a2,292(s0)

00000898 <inst_94>:
     898:	fef00513          	addi	a0,zero,-17
     89c:	fffe05b7          	lui	a1,0xfffe0
     8a0:	fff58593          	addi	a1,a1,-1 # fffdffff <immx+0x452d252f>
     8a4:	40b50633          	sub	a2,a0,a1
     8a8:	12c42423          	sw	a2,296(s0)

000008ac <inst_95>:
     8ac:	f7f00513          	addi	a0,zero,-129
     8b0:	40000593          	addi	a1,zero,1024
     8b4:	40b50633          	sub	a2,a0,a1
     8b8:	12c42623          	sw	a2,300(s0)

000008bc <inst_96>:
     8bc:	dff00513          	addi	a0,zero,-513
     8c0:	008005b7          	lui	a1,0x800
     8c4:	40b50633          	sub	a2,a0,a1
     8c8:	12c42823          	sw	a2,304(s0)

000008cc <inst_97>:
     8cc:	ffffe537          	lui	a0,0xffffe
     8d0:	fff50513          	addi	a0,a0,-1 # ffffdfff <immx+0x452f052f>
     8d4:	ffe00593          	addi	a1,zero,-2
     8d8:	40b50633          	sub	a2,a0,a1
     8dc:	12c42a23          	sw	a2,308(s0)

000008e0 <inst_98>:
     8e0:	ffffc537          	lui	a0,0xffffc
     8e4:	fff50513          	addi	a0,a0,-1 # ffffbfff <immx+0x452ee52f>
     8e8:	ffff55b7          	lui	a1,0xffff5
     8ec:	afc58593          	addi	a1,a1,-1284 # ffff4afc <immx+0x452e702c>
     8f0:	40b50633          	sub	a2,a0,a1
     8f4:	12c42c23          	sw	a2,312(s0)

000008f8 <inst_99>:
     8f8:	fffe0537          	lui	a0,0xfffe0
     8fc:	fff50513          	addi	a0,a0,-1 # fffdffff <immx+0x452d252f>
     900:	fff805b7          	lui	a1,0xfff80
     904:	fff58593          	addi	a1,a1,-1 # fff7ffff <immx+0x4527252f>
     908:	40b50633          	sub	a2,a0,a1
     90c:	12c42e23          	sw	a2,316(s0)

00000910 <inst_100>:
     910:	fffc0537          	lui	a0,0xfffc0
     914:	fff50513          	addi	a0,a0,-1 # fffbffff <immx+0x452b252f>
     918:	01000593          	addi	a1,zero,16
     91c:	40b50633          	sub	a2,a0,a1
     920:	14c42023          	sw	a2,320(s0)

00000924 <inst_101>:
     924:	fff80537          	lui	a0,0xfff80
     928:	fff50513          	addi	a0,a0,-1 # fff7ffff <immx+0x4527252f>
     92c:	ffff55b7          	lui	a1,0xffff5
     930:	afc58593          	addi	a1,a1,-1284 # ffff4afc <immx+0x452e702c>
     934:	40b50633          	sub	a2,a0,a1
     938:	14c42223          	sw	a2,324(s0)

0000093c <inst_102>:
     93c:	fff00537          	lui	a0,0xfff00
     940:	fff50513          	addi	a0,a0,-1 # ffefffff <immx+0x451f252f>
     944:	01000593          	addi	a1,zero,16
     948:	40b50633          	sub	a2,a0,a1
     94c:	14c42423          	sw	a2,328(s0)

00000950 <inst_103>:
     950:	ffe00537          	lui	a0,0xffe00
     954:	fff50513          	addi	a0,a0,-1 # ffdfffff <immx+0x450f252f>
     958:	ff900593          	addi	a1,zero,-7
     95c:	40b50633          	sub	a2,a0,a1
     960:	14c42623          	sw	a2,332(s0)

00000964 <inst_104>:
     964:	fe000537          	lui	a0,0xfe000
     968:	fff50513          	addi	a0,a0,-1 # fdffffff <immx+0x432f252f>
     96c:	333335b7          	lui	a1,0x33333
     970:	33258593          	addi	a1,a1,818 # 33333332 <_end+0x3332972a>
     974:	40b50633          	sub	a2,a0,a1
     978:	14c42823          	sw	a2,336(s0)

0000097c <inst_105>:
     97c:	c0000537          	lui	a0,0xc0000
     980:	fff50513          	addi	a0,a0,-1 # bfffffff <immx+0x52f252f>
     984:	333335b7          	lui	a1,0x33333
     988:	33358593          	addi	a1,a1,819 # 33333333 <_end+0x3332972b>
     98c:	40b50633          	sub	a2,a0,a1
     990:	14c42a23          	sw	a2,340(s0)

00000994 <inst_106>:
     994:	00300513          	addi	a0,zero,3
     998:	00300593          	addi	a1,zero,3
     99c:	40b50633          	sub	a2,a0,a1
     9a0:	14c42c23          	sw	a2,344(s0)

000009a4 <inst_107>:
     9a4:	00300513          	addi	a0,zero,3
     9a8:	555555b7          	lui	a1,0x55555
     9ac:	55558593          	addi	a1,a1,1365 # 55555555 <absimm+0x10263026>
     9b0:	40b50633          	sub	a2,a0,a1
     9b4:	14c42e23          	sw	a2,348(s0)

000009b8 <inst_108>:
     9b8:	00300513          	addi	a0,zero,3
     9bc:	aaaab5b7          	lui	a1,0xaaaab
     9c0:	aaa58593          	addi	a1,a1,-1366 # aaaaaaaa <absimm+0x657b857b>
     9c4:	40b50633          	sub	a2,a0,a1
     9c8:	16c42023          	sw	a2,352(s0)

000009cc <inst_109>:
     9cc:	00300513          	addi	a0,zero,3
     9d0:	00500593          	addi	a1,zero,5
     9d4:	40b50633          	sub	a2,a0,a1
     9d8:	16c42223          	sw	a2,356(s0)

000009dc <inst_110>:
     9dc:	00300513          	addi	a0,zero,3
     9e0:	333335b7          	lui	a1,0x33333
     9e4:	33358593          	addi	a1,a1,819 # 33333333 <_end+0x3332972b>
     9e8:	40b50633          	sub	a2,a0,a1
     9ec:	16c42423          	sw	a2,360(s0)

000009f0 <inst_111>:
     9f0:	00300513          	addi	a0,zero,3
     9f4:	666665b7          	lui	a1,0x66666
     9f8:	66658593          	addi	a1,a1,1638 # 66666666 <absimm+0x21374137>
     9fc:	40b50633          	sub	a2,a0,a1
     a00:	16c42623          	sw	a2,364(s0)

00000a04 <inst_112>:
     a04:	00300513          	addi	a0,zero,3
     a08:	ffff55b7          	lui	a1,0xffff5
     a0c:	afc58593          	addi	a1,a1,-1284 # ffff4afc <immx+0x452e702c>
     a10:	40b50633          	sub	a2,a0,a1
     a14:	16c42823          	sw	a2,368(s0)

00000a18 <inst_113>:
     a18:	00300513          	addi	a0,zero,3
     a1c:	0000b5b7          	lui	a1,0xb
     a20:	50458593          	addi	a1,a1,1284 # b504 <_end+0x18fc>
     a24:	40b50633          	sub	a2,a0,a1
     a28:	16c42a23          	sw	a2,372(s0)

00000a2c <inst_114>:
     a2c:	00300513          	addi	a0,zero,3
     a30:	00200593          	addi	a1,zero,2
     a34:	40b50633          	sub	a2,a0,a1
     a38:	16c42c23          	sw	a2,376(s0)

00000a3c <inst_115>:
     a3c:	00300513          	addi	a0,zero,3
     a40:	555555b7          	lui	a1,0x55555
     a44:	55458593          	addi	a1,a1,1364 # 55555554 <absimm+0x10263025>
     a48:	40b50633          	sub	a2,a0,a1
     a4c:	16c42e23          	sw	a2,380(s0)

00000a50 <inst_116>:
     a50:	00300513          	addi	a0,zero,3
     a54:	00000593          	addi	a1,zero,0
     a58:	40b50633          	sub	a2,a0,a1
     a5c:	18c42023          	sw	a2,384(s0)

00000a60 <inst_117>:
     a60:	00300513          	addi	a0,zero,3
     a64:	00400593          	addi	a1,zero,4
     a68:	40b50633          	sub	a2,a0,a1
     a6c:	18c42223          	sw	a2,388(s0)

00000a70 <inst_118>:
     a70:	00300513          	addi	a0,zero,3
     a74:	333335b7          	lui	a1,0x33333
     a78:	33258593          	addi	a1,a1,818 # 33333332 <_end+0x3332972a>
     a7c:	40b50633          	sub	a2,a0,a1
     a80:	18c42423          	sw	a2,392(s0)

00000a84 <inst_119>:
     a84:	00300513          	addi	a0,zero,3
     a88:	666665b7          	lui	a1,0x66666
     a8c:	66558593          	addi	a1,a1,1637 # 66666665 <absimm+0x21374136>
     a90:	40b50633          	sub	a2,a0,a1
     a94:	18c42623          	sw	a2,396(s0)

00000a98 <inst_120>:
     a98:	00300513          	addi	a0,zero,3
     a9c:	0000b5b7          	lui	a1,0xb
     aa0:	50358593          	addi	a1,a1,1283 # b503 <_end+0x18fb>
     aa4:	40b50633          	sub	a2,a0,a1
     aa8:	18c42823          	sw	a2,400(s0)

00000aac <inst_121>:
     aac:	00300513          	addi	a0,zero,3
     ab0:	555555b7          	lui	a1,0x55555
     ab4:	55658593          	addi	a1,a1,1366 # 55555556 <absimm+0x10263027>
     ab8:	40b50633          	sub	a2,a0,a1
     abc:	18c42a23          	sw	a2,404(s0)

00000ac0 <inst_122>:
     ac0:	00300513          	addi	a0,zero,3
     ac4:	aaaab5b7          	lui	a1,0xaaaab
     ac8:	aab58593          	addi	a1,a1,-1365 # aaaaaaab <absimm+0x657b857c>
     acc:	40b50633          	sub	a2,a0,a1
     ad0:	18c42c23          	sw	a2,408(s0)

00000ad4 <inst_123>:
     ad4:	00300513          	addi	a0,zero,3
     ad8:	00600593          	addi	a1,zero,6
     adc:	40b50633          	sub	a2,a0,a1
     ae0:	18c42e23          	sw	a2,412(s0)

00000ae4 <inst_124>:
     ae4:	00300513          	addi	a0,zero,3
     ae8:	333335b7          	lui	a1,0x33333
     aec:	33458593          	addi	a1,a1,820 # 33333334 <_end+0x3332972c>
     af0:	40b50633          	sub	a2,a0,a1
     af4:	1ac42023          	sw	a2,416(s0)

00000af8 <inst_125>:
     af8:	00300513          	addi	a0,zero,3
     afc:	666665b7          	lui	a1,0x66666
     b00:	66758593          	addi	a1,a1,1639 # 66666667 <absimm+0x21374138>
     b04:	40b50633          	sub	a2,a0,a1
     b08:	1ac42223          	sw	a2,420(s0)

00000b0c <inst_126>:
     b0c:	00300513          	addi	a0,zero,3
     b10:	ffff55b7          	lui	a1,0xffff5
     b14:	afd58593          	addi	a1,a1,-1283 # ffff4afd <immx+0x452e702d>
     b18:	40b50633          	sub	a2,a0,a1
     b1c:	1ac42423          	sw	a2,424(s0)

00000b20 <inst_127>:
     b20:	00300513          	addi	a0,zero,3
     b24:	0000b5b7          	lui	a1,0xb
     b28:	50558593          	addi	a1,a1,1285 # b505 <_end+0x18fd>
     b2c:	40b50633          	sub	a2,a0,a1
     b30:	1ac42623          	sw	a2,428(s0)

00000b34 <inst_128>:
     b34:	55555537          	lui	a0,0x55555
     b38:	55550513          	addi	a0,a0,1365 # 55555555 <absimm+0x10263026>
     b3c:	00300593          	addi	a1,zero,3
     b40:	40b50633          	sub	a2,a0,a1
     b44:	1ac42823          	sw	a2,432(s0)

00000b48 <inst_129>:
     b48:	55555537          	lui	a0,0x55555
     b4c:	55550513          	addi	a0,a0,1365 # 55555555 <absimm+0x10263026>
     b50:	555555b7          	lui	a1,0x55555
     b54:	55558593          	addi	a1,a1,1365 # 55555555 <absimm+0x10263026>
     b58:	40b50633          	sub	a2,a0,a1
     b5c:	1ac42a23          	sw	a2,436(s0)

00000b60 <inst_130>:
     b60:	55555537          	lui	a0,0x55555
     b64:	55550513          	addi	a0,a0,1365 # 55555555 <absimm+0x10263026>
     b68:	aaaab5b7          	lui	a1,0xaaaab
     b6c:	aaa58593          	addi	a1,a1,-1366 # aaaaaaaa <absimm+0x657b857b>
     b70:	40b50633          	sub	a2,a0,a1
     b74:	1ac42c23          	sw	a2,440(s0)

00000b78 <inst_131>:
     b78:	55555537          	lui	a0,0x55555
     b7c:	55550513          	addi	a0,a0,1365 # 55555555 <absimm+0x10263026>
     b80:	00500593          	addi	a1,zero,5
     b84:	40b50633          	sub	a2,a0,a1
     b88:	1ac42e23          	sw	a2,444(s0)

00000b8c <inst_132>:
     b8c:	55555537          	lui	a0,0x55555
     b90:	55550513          	addi	a0,a0,1365 # 55555555 <absimm+0x10263026>
     b94:	333335b7          	lui	a1,0x33333
     b98:	33358593          	addi	a1,a1,819 # 33333333 <_end+0x3332972b>
     b9c:	40b50633          	sub	a2,a0,a1
     ba0:	1cc42023          	sw	a2,448(s0)

00000ba4 <inst_133>:
     ba4:	55555537          	lui	a0,0x55555
     ba8:	55550513          	addi	a0,a0,1365 # 55555555 <absimm+0x10263026>
     bac:	666665b7          	lui	a1,0x66666
     bb0:	66658593          	addi	a1,a1,1638 # 66666666 <absimm+0x21374137>
     bb4:	40b50633          	sub	a2,a0,a1
     bb8:	1cc42223          	sw	a2,452(s0)

00000bbc <inst_134>:
     bbc:	55555537          	lui	a0,0x55555
     bc0:	55550513          	addi	a0,a0,1365 # 55555555 <absimm+0x10263026>
     bc4:	ffff55b7          	lui	a1,0xffff5
     bc8:	afc58593          	addi	a1,a1,-1284 # ffff4afc <immx+0x452e702c>
     bcc:	40b50633          	sub	a2,a0,a1
     bd0:	1cc42423          	sw	a2,456(s0)

00000bd4 <inst_135>:
     bd4:	55555537          	lui	a0,0x55555
     bd8:	55550513          	addi	a0,a0,1365 # 55555555 <absimm+0x10263026>
     bdc:	0000b5b7          	lui	a1,0xb
     be0:	50458593          	addi	a1,a1,1284 # b504 <_end+0x18fc>
     be4:	40b50633          	sub	a2,a0,a1
     be8:	1cc42623          	sw	a2,460(s0)

00000bec <inst_136>:
     bec:	55555537          	lui	a0,0x55555
     bf0:	55550513          	addi	a0,a0,1365 # 55555555 <absimm+0x10263026>
     bf4:	00200593          	addi	a1,zero,2
     bf8:	40b50633          	sub	a2,a0,a1
     bfc:	1cc42823          	sw	a2,464(s0)

00000c00 <inst_137>:
     c00:	55555537          	lui	a0,0x55555
     c04:	55550513          	addi	a0,a0,1365 # 55555555 <absimm+0x10263026>
     c08:	555555b7          	lui	a1,0x55555
     c0c:	55458593          	addi	a1,a1,1364 # 55555554 <absimm+0x10263025>
     c10:	40b50633          	sub	a2,a0,a1
     c14:	1cc42a23          	sw	a2,468(s0)

00000c18 <inst_138>:
     c18:	55555537          	lui	a0,0x55555
     c1c:	55550513          	addi	a0,a0,1365 # 55555555 <absimm+0x10263026>
     c20:	00000593          	addi	a1,zero,0
     c24:	40b50633          	sub	a2,a0,a1
     c28:	1cc42c23          	sw	a2,472(s0)

00000c2c <inst_139>:
     c2c:	55555537          	lui	a0,0x55555
     c30:	55550513          	addi	a0,a0,1365 # 55555555 <absimm+0x10263026>
     c34:	00400593          	addi	a1,zero,4
     c38:	40b50633          	sub	a2,a0,a1
     c3c:	1cc42e23          	sw	a2,476(s0)

00000c40 <inst_140>:
     c40:	55555537          	lui	a0,0x55555
     c44:	55550513          	addi	a0,a0,1365 # 55555555 <absimm+0x10263026>
     c48:	333335b7          	lui	a1,0x33333
     c4c:	33258593          	addi	a1,a1,818 # 33333332 <_end+0x3332972a>
     c50:	40b50633          	sub	a2,a0,a1
     c54:	1ec42023          	sw	a2,480(s0)

00000c58 <inst_141>:
     c58:	55555537          	lui	a0,0x55555
     c5c:	55550513          	addi	a0,a0,1365 # 55555555 <absimm+0x10263026>
     c60:	666665b7          	lui	a1,0x66666
     c64:	66558593          	addi	a1,a1,1637 # 66666665 <absimm+0x21374136>
     c68:	40b50633          	sub	a2,a0,a1
     c6c:	1ec42223          	sw	a2,484(s0)

00000c70 <inst_142>:
     c70:	55555537          	lui	a0,0x55555
     c74:	55550513          	addi	a0,a0,1365 # 55555555 <absimm+0x10263026>
     c78:	0000b5b7          	lui	a1,0xb
     c7c:	50358593          	addi	a1,a1,1283 # b503 <_end+0x18fb>
     c80:	40b50633          	sub	a2,a0,a1
     c84:	1ec42423          	sw	a2,488(s0)

00000c88 <inst_143>:
     c88:	55555537          	lui	a0,0x55555
     c8c:	55550513          	addi	a0,a0,1365 # 55555555 <absimm+0x10263026>
     c90:	555555b7          	lui	a1,0x55555
     c94:	55658593          	addi	a1,a1,1366 # 55555556 <absimm+0x10263027>
     c98:	40b50633          	sub	a2,a0,a1
     c9c:	1ec42623          	sw	a2,492(s0)

00000ca0 <inst_144>:
     ca0:	55555537          	lui	a0,0x55555
     ca4:	55550513          	addi	a0,a0,1365 # 55555555 <absimm+0x10263026>
     ca8:	aaaab5b7          	lui	a1,0xaaaab
     cac:	aab58593          	addi	a1,a1,-1365 # aaaaaaab <absimm+0x657b857c>
     cb0:	40b50633          	sub	a2,a0,a1
     cb4:	1ec42823          	sw	a2,496(s0)

00000cb8 <inst_145>:
     cb8:	55555537          	lui	a0,0x55555
     cbc:	55550513          	addi	a0,a0,1365 # 55555555 <absimm+0x10263026>
     cc0:	00600593          	addi	a1,zero,6
     cc4:	40b50633          	sub	a2,a0,a1
     cc8:	1ec42a23          	sw	a2,500(s0)

00000ccc <inst_146>:
     ccc:	55555537          	lui	a0,0x55555
     cd0:	55550513          	addi	a0,a0,1365 # 55555555 <absimm+0x10263026>
     cd4:	333335b7          	lui	a1,0x33333
     cd8:	33458593          	addi	a1,a1,820 # 33333334 <_end+0x3332972c>
     cdc:	40b50633          	sub	a2,a0,a1
     ce0:	1ec42c23          	sw	a2,504(s0)

00000ce4 <inst_147>:
     ce4:	55555537          	lui	a0,0x55555
     ce8:	55550513          	addi	a0,a0,1365 # 55555555 <absimm+0x10263026>
     cec:	666665b7          	lui	a1,0x66666
     cf0:	66758593          	addi	a1,a1,1639 # 66666667 <absimm+0x21374138>
     cf4:	40b50633          	sub	a2,a0,a1
     cf8:	1ec42e23          	sw	a2,508(s0)

00000cfc <inst_148>:
     cfc:	55555537          	lui	a0,0x55555
     d00:	55550513          	addi	a0,a0,1365 # 55555555 <absimm+0x10263026>
     d04:	ffff55b7          	lui	a1,0xffff5
     d08:	afd58593          	addi	a1,a1,-1283 # ffff4afd <immx+0x452e702d>
     d0c:	40b50633          	sub	a2,a0,a1
     d10:	20c42023          	sw	a2,512(s0)

00000d14 <inst_149>:
     d14:	55555537          	lui	a0,0x55555
     d18:	55550513          	addi	a0,a0,1365 # 55555555 <absimm+0x10263026>
     d1c:	0000b5b7          	lui	a1,0xb
     d20:	50558593          	addi	a1,a1,1285 # b505 <_end+0x18fd>
     d24:	40b50633          	sub	a2,a0,a1
     d28:	20c42223          	sw	a2,516(s0)

00000d2c <inst_150>:
     d2c:	aaaab537          	lui	a0,0xaaaab
     d30:	aaa50513          	addi	a0,a0,-1366 # aaaaaaaa <absimm+0x657b857b>
     d34:	00300593          	addi	a1,zero,3
     d38:	40b50633          	sub	a2,a0,a1
     d3c:	20c42423          	sw	a2,520(s0)

00000d40 <inst_151>:
     d40:	aaaab537          	lui	a0,0xaaaab
     d44:	aaa50513          	addi	a0,a0,-1366 # aaaaaaaa <absimm+0x657b857b>
     d48:	555555b7          	lui	a1,0x55555
     d4c:	55558593          	addi	a1,a1,1365 # 55555555 <absimm+0x10263026>
     d50:	40b50633          	sub	a2,a0,a1
     d54:	20c42623          	sw	a2,524(s0)

00000d58 <inst_152>:
     d58:	aaaab537          	lui	a0,0xaaaab
     d5c:	aaa50513          	addi	a0,a0,-1366 # aaaaaaaa <absimm+0x657b857b>
     d60:	aaaab5b7          	lui	a1,0xaaaab
     d64:	aaa58593          	addi	a1,a1,-1366 # aaaaaaaa <absimm+0x657b857b>
     d68:	40b50633          	sub	a2,a0,a1
     d6c:	20c42823          	sw	a2,528(s0)

00000d70 <inst_153>:
     d70:	aaaab537          	lui	a0,0xaaaab
     d74:	aaa50513          	addi	a0,a0,-1366 # aaaaaaaa <absimm+0x657b857b>
     d78:	00500593          	addi	a1,zero,5
     d7c:	40b50633          	sub	a2,a0,a1
     d80:	20c42a23          	sw	a2,532(s0)

00000d84 <inst_154>:
     d84:	aaaab537          	lui	a0,0xaaaab
     d88:	aaa50513          	addi	a0,a0,-1366 # aaaaaaaa <absimm+0x657b857b>
     d8c:	333335b7          	lui	a1,0x33333
     d90:	33358593          	addi	a1,a1,819 # 33333333 <_end+0x3332972b>
     d94:	40b50633          	sub	a2,a0,a1
     d98:	20c42c23          	sw	a2,536(s0)

00000d9c <inst_155>:
     d9c:	aaaab537          	lui	a0,0xaaaab
     da0:	aaa50513          	addi	a0,a0,-1366 # aaaaaaaa <absimm+0x657b857b>
     da4:	666665b7          	lui	a1,0x66666
     da8:	66658593          	addi	a1,a1,1638 # 66666666 <absimm+0x21374137>
     dac:	40b50633          	sub	a2,a0,a1
     db0:	20c42e23          	sw	a2,540(s0)

00000db4 <inst_156>:
     db4:	aaaab537          	lui	a0,0xaaaab
     db8:	aaa50513          	addi	a0,a0,-1366 # aaaaaaaa <absimm+0x657b857b>
     dbc:	ffff55b7          	lui	a1,0xffff5
     dc0:	afc58593          	addi	a1,a1,-1284 # ffff4afc <immx+0x452e702c>
     dc4:	40b50633          	sub	a2,a0,a1
     dc8:	22c42023          	sw	a2,544(s0)

00000dcc <inst_157>:
     dcc:	aaaab537          	lui	a0,0xaaaab
     dd0:	aaa50513          	addi	a0,a0,-1366 # aaaaaaaa <absimm+0x657b857b>
     dd4:	0000b5b7          	lui	a1,0xb
     dd8:	50458593          	addi	a1,a1,1284 # b504 <_end+0x18fc>
     ddc:	40b50633          	sub	a2,a0,a1
     de0:	22c42223          	sw	a2,548(s0)

00000de4 <inst_158>:
     de4:	aaaab537          	lui	a0,0xaaaab
     de8:	aaa50513          	addi	a0,a0,-1366 # aaaaaaaa <absimm+0x657b857b>
     dec:	00200593          	addi	a1,zero,2
     df0:	40b50633          	sub	a2,a0,a1
     df4:	22c42423          	sw	a2,552(s0)

00000df8 <inst_159>:
     df8:	aaaab537          	lui	a0,0xaaaab
     dfc:	aaa50513          	addi	a0,a0,-1366 # aaaaaaaa <absimm+0x657b857b>
     e00:	555555b7          	lui	a1,0x55555
     e04:	55458593          	addi	a1,a1,1364 # 55555554 <absimm+0x10263025>
     e08:	40b50633          	sub	a2,a0,a1
     e0c:	22c42623          	sw	a2,556(s0)

00000e10 <inst_160>:
     e10:	aaaab537          	lui	a0,0xaaaab
     e14:	aaa50513          	addi	a0,a0,-1366 # aaaaaaaa <absimm+0x657b857b>
     e18:	00000593          	addi	a1,zero,0
     e1c:	40b50633          	sub	a2,a0,a1
     e20:	22c42823          	sw	a2,560(s0)

00000e24 <inst_161>:
     e24:	aaaab537          	lui	a0,0xaaaab
     e28:	aaa50513          	addi	a0,a0,-1366 # aaaaaaaa <absimm+0x657b857b>
     e2c:	00400593          	addi	a1,zero,4
     e30:	40b50633          	sub	a2,a0,a1
     e34:	22c42a23          	sw	a2,564(s0)

00000e38 <inst_162>:
     e38:	aaaab537          	lui	a0,0xaaaab
     e3c:	aaa50513          	addi	a0,a0,-1366 # aaaaaaaa <absimm+0x657b857b>
     e40:	333335b7          	lui	a1,0x33333
     e44:	33258593          	addi	a1,a1,818 # 33333332 <_end+0x3332972a>
     e48:	40b50633          	sub	a2,a0,a1
     e4c:	22c42c23          	sw	a2,568(s0)

00000e50 <inst_163>:
     e50:	aaaab537          	lui	a0,0xaaaab
     e54:	aaa50513          	addi	a0,a0,-1366 # aaaaaaaa <absimm+0x657b857b>
     e58:	666665b7          	lui	a1,0x66666
     e5c:	66558593          	addi	a1,a1,1637 # 66666665 <absimm+0x21374136>
     e60:	40b50633          	sub	a2,a0,a1
     e64:	22c42e23          	sw	a2,572(s0)

00000e68 <inst_164>:
     e68:	aaaab537          	lui	a0,0xaaaab
     e6c:	aaa50513          	addi	a0,a0,-1366 # aaaaaaaa <absimm+0x657b857b>
     e70:	0000b5b7          	lui	a1,0xb
     e74:	50358593          	addi	a1,a1,1283 # b503 <_end+0x18fb>
     e78:	40b50633          	sub	a2,a0,a1
     e7c:	24c42023          	sw	a2,576(s0)

00000e80 <inst_165>:
     e80:	aaaab537          	lui	a0,0xaaaab
     e84:	aaa50513          	addi	a0,a0,-1366 # aaaaaaaa <absimm+0x657b857b>
     e88:	555555b7          	lui	a1,0x55555
     e8c:	55658593          	addi	a1,a1,1366 # 55555556 <absimm+0x10263027>
     e90:	40b50633          	sub	a2,a0,a1
     e94:	24c42223          	sw	a2,580(s0)

00000e98 <inst_166>:
     e98:	aaaab537          	lui	a0,0xaaaab
     e9c:	aaa50513          	addi	a0,a0,-1366 # aaaaaaaa <absimm+0x657b857b>
     ea0:	aaaab5b7          	lui	a1,0xaaaab
     ea4:	aab58593          	addi	a1,a1,-1365 # aaaaaaab <absimm+0x657b857c>
     ea8:	40b50633          	sub	a2,a0,a1
     eac:	24c42423          	sw	a2,584(s0)

00000eb0 <inst_167>:
     eb0:	aaaab537          	lui	a0,0xaaaab
     eb4:	aaa50513          	addi	a0,a0,-1366 # aaaaaaaa <absimm+0x657b857b>
     eb8:	00600593          	addi	a1,zero,6
     ebc:	40b50633          	sub	a2,a0,a1
     ec0:	24c42623          	sw	a2,588(s0)

00000ec4 <inst_168>:
     ec4:	aaaab537          	lui	a0,0xaaaab
     ec8:	aaa50513          	addi	a0,a0,-1366 # aaaaaaaa <absimm+0x657b857b>
     ecc:	333335b7          	lui	a1,0x33333
     ed0:	33458593          	addi	a1,a1,820 # 33333334 <_end+0x3332972c>
     ed4:	40b50633          	sub	a2,a0,a1
     ed8:	24c42823          	sw	a2,592(s0)

00000edc <inst_169>:
     edc:	aaaab537          	lui	a0,0xaaaab
     ee0:	aaa50513          	addi	a0,a0,-1366 # aaaaaaaa <absimm+0x657b857b>
     ee4:	666665b7          	lui	a1,0x66666
     ee8:	66758593          	addi	a1,a1,1639 # 66666667 <absimm+0x21374138>
     eec:	40b50633          	sub	a2,a0,a1
     ef0:	24c42a23          	sw	a2,596(s0)

00000ef4 <inst_170>:
     ef4:	aaaab537          	lui	a0,0xaaaab
     ef8:	aaa50513          	addi	a0,a0,-1366 # aaaaaaaa <absimm+0x657b857b>
     efc:	ffff55b7          	lui	a1,0xffff5
     f00:	afd58593          	addi	a1,a1,-1283 # ffff4afd <immx+0x452e702d>
     f04:	40b50633          	sub	a2,a0,a1
     f08:	24c42c23          	sw	a2,600(s0)

00000f0c <inst_171>:
     f0c:	aaaab537          	lui	a0,0xaaaab
     f10:	aaa50513          	addi	a0,a0,-1366 # aaaaaaaa <absimm+0x657b857b>
     f14:	0000b5b7          	lui	a1,0xb
     f18:	50558593          	addi	a1,a1,1285 # b505 <_end+0x18fd>
     f1c:	40b50633          	sub	a2,a0,a1
     f20:	24c42e23          	sw	a2,604(s0)

00000f24 <inst_172>:
     f24:	00500513          	addi	a0,zero,5
     f28:	00300593          	addi	a1,zero,3
     f2c:	40b50633          	sub	a2,a0,a1
     f30:	26c42023          	sw	a2,608(s0)

00000f34 <inst_173>:
     f34:	00500513          	addi	a0,zero,5
     f38:	555555b7          	lui	a1,0x55555
     f3c:	55558593          	addi	a1,a1,1365 # 55555555 <absimm+0x10263026>
     f40:	40b50633          	sub	a2,a0,a1
     f44:	26c42223          	sw	a2,612(s0)

00000f48 <inst_174>:
     f48:	00500513          	addi	a0,zero,5
     f4c:	aaaab5b7          	lui	a1,0xaaaab
     f50:	aaa58593          	addi	a1,a1,-1366 # aaaaaaaa <absimm+0x657b857b>
     f54:	40b50633          	sub	a2,a0,a1
     f58:	26c42423          	sw	a2,616(s0)

00000f5c <inst_175>:
     f5c:	00500513          	addi	a0,zero,5
     f60:	00500593          	addi	a1,zero,5
     f64:	40b50633          	sub	a2,a0,a1
     f68:	26c42623          	sw	a2,620(s0)

00000f6c <inst_176>:
     f6c:	00500513          	addi	a0,zero,5
     f70:	333335b7          	lui	a1,0x33333
     f74:	33358593          	addi	a1,a1,819 # 33333333 <_end+0x3332972b>
     f78:	40b50633          	sub	a2,a0,a1
     f7c:	26c42823          	sw	a2,624(s0)

00000f80 <inst_177>:
     f80:	00500513          	addi	a0,zero,5
     f84:	666665b7          	lui	a1,0x66666
     f88:	66658593          	addi	a1,a1,1638 # 66666666 <absimm+0x21374137>
     f8c:	40b50633          	sub	a2,a0,a1
     f90:	26c42a23          	sw	a2,628(s0)

00000f94 <inst_178>:
     f94:	00500513          	addi	a0,zero,5
     f98:	ffff55b7          	lui	a1,0xffff5
     f9c:	afc58593          	addi	a1,a1,-1284 # ffff4afc <immx+0x452e702c>
     fa0:	40b50633          	sub	a2,a0,a1
     fa4:	26c42c23          	sw	a2,632(s0)

00000fa8 <inst_179>:
     fa8:	00500513          	addi	a0,zero,5
     fac:	0000b5b7          	lui	a1,0xb
     fb0:	50458593          	addi	a1,a1,1284 # b504 <_end+0x18fc>
     fb4:	40b50633          	sub	a2,a0,a1
     fb8:	26c42e23          	sw	a2,636(s0)

00000fbc <inst_180>:
     fbc:	00500513          	addi	a0,zero,5
     fc0:	00200593          	addi	a1,zero,2
     fc4:	40b50633          	sub	a2,a0,a1
     fc8:	28c42023          	sw	a2,640(s0)

00000fcc <inst_181>:
     fcc:	00500513          	addi	a0,zero,5
     fd0:	555555b7          	lui	a1,0x55555
     fd4:	55458593          	addi	a1,a1,1364 # 55555554 <absimm+0x10263025>
     fd8:	40b50633          	sub	a2,a0,a1
     fdc:	28c42223          	sw	a2,644(s0)

00000fe0 <inst_182>:
     fe0:	00500513          	addi	a0,zero,5
     fe4:	00000593          	addi	a1,zero,0
     fe8:	40b50633          	sub	a2,a0,a1
     fec:	28c42423          	sw	a2,648(s0)

00000ff0 <inst_183>:
     ff0:	00500513          	addi	a0,zero,5
     ff4:	00400593          	addi	a1,zero,4
     ff8:	40b50633          	sub	a2,a0,a1
     ffc:	28c42623          	sw	a2,652(s0)

00001000 <inst_184>:
    1000:	00500513          	addi	a0,zero,5
    1004:	333335b7          	lui	a1,0x33333
    1008:	33258593          	addi	a1,a1,818 # 33333332 <_end+0x3332972a>
    100c:	40b50633          	sub	a2,a0,a1
    1010:	28c42823          	sw	a2,656(s0)

00001014 <inst_185>:
    1014:	00500513          	addi	a0,zero,5
    1018:	666665b7          	lui	a1,0x66666
    101c:	66558593          	addi	a1,a1,1637 # 66666665 <absimm+0x21374136>
    1020:	40b50633          	sub	a2,a0,a1
    1024:	28c42a23          	sw	a2,660(s0)

00001028 <inst_186>:
    1028:	00500513          	addi	a0,zero,5
    102c:	0000b5b7          	lui	a1,0xb
    1030:	50358593          	addi	a1,a1,1283 # b503 <_end+0x18fb>
    1034:	40b50633          	sub	a2,a0,a1
    1038:	28c42c23          	sw	a2,664(s0)

0000103c <inst_187>:
    103c:	00500513          	addi	a0,zero,5
    1040:	555555b7          	lui	a1,0x55555
    1044:	55658593          	addi	a1,a1,1366 # 55555556 <absimm+0x10263027>
    1048:	40b50633          	sub	a2,a0,a1
    104c:	28c42e23          	sw	a2,668(s0)

00001050 <inst_188>:
    1050:	00500513          	addi	a0,zero,5
    1054:	aaaab5b7          	lui	a1,0xaaaab
    1058:	aab58593          	addi	a1,a1,-1365 # aaaaaaab <absimm+0x657b857c>
    105c:	40b50633          	sub	a2,a0,a1
    1060:	2ac42023          	sw	a2,672(s0)

00001064 <inst_189>:
    1064:	00500513          	addi	a0,zero,5
    1068:	00600593          	addi	a1,zero,6
    106c:	40b50633          	sub	a2,a0,a1
    1070:	2ac42223          	sw	a2,676(s0)

00001074 <inst_190>:
    1074:	00500513          	addi	a0,zero,5
    1078:	333335b7          	lui	a1,0x33333
    107c:	33458593          	addi	a1,a1,820 # 33333334 <_end+0x3332972c>
    1080:	40b50633          	sub	a2,a0,a1
    1084:	2ac42423          	sw	a2,680(s0)

00001088 <inst_191>:
    1088:	00500513          	addi	a0,zero,5
    108c:	666665b7          	lui	a1,0x66666
    1090:	66758593          	addi	a1,a1,1639 # 66666667 <absimm+0x21374138>
    1094:	40b50633          	sub	a2,a0,a1
    1098:	2ac42623          	sw	a2,684(s0)

0000109c <inst_192>:
    109c:	00500513          	addi	a0,zero,5
    10a0:	ffff55b7          	lui	a1,0xffff5
    10a4:	afd58593          	addi	a1,a1,-1283 # ffff4afd <immx+0x452e702d>
    10a8:	40b50633          	sub	a2,a0,a1
    10ac:	2ac42823          	sw	a2,688(s0)

000010b0 <inst_193>:
    10b0:	00500513          	addi	a0,zero,5
    10b4:	0000b5b7          	lui	a1,0xb
    10b8:	50558593          	addi	a1,a1,1285 # b505 <_end+0x18fd>
    10bc:	40b50633          	sub	a2,a0,a1
    10c0:	2ac42a23          	sw	a2,692(s0)

000010c4 <inst_194>:
    10c4:	33333537          	lui	a0,0x33333
    10c8:	33350513          	addi	a0,a0,819 # 33333333 <_end+0x3332972b>
    10cc:	00300593          	addi	a1,zero,3
    10d0:	40b50633          	sub	a2,a0,a1
    10d4:	2ac42c23          	sw	a2,696(s0)

000010d8 <inst_195>:
    10d8:	33333537          	lui	a0,0x33333
    10dc:	33350513          	addi	a0,a0,819 # 33333333 <_end+0x3332972b>
    10e0:	555555b7          	lui	a1,0x55555
    10e4:	55558593          	addi	a1,a1,1365 # 55555555 <absimm+0x10263026>
    10e8:	40b50633          	sub	a2,a0,a1
    10ec:	2ac42e23          	sw	a2,700(s0)

000010f0 <inst_196>:
    10f0:	33333537          	lui	a0,0x33333
    10f4:	33350513          	addi	a0,a0,819 # 33333333 <_end+0x3332972b>
    10f8:	aaaab5b7          	lui	a1,0xaaaab
    10fc:	aaa58593          	addi	a1,a1,-1366 # aaaaaaaa <absimm+0x657b857b>
    1100:	40b50633          	sub	a2,a0,a1
    1104:	2cc42023          	sw	a2,704(s0)

00001108 <inst_197>:
    1108:	33333537          	lui	a0,0x33333
    110c:	33350513          	addi	a0,a0,819 # 33333333 <_end+0x3332972b>
    1110:	00500593          	addi	a1,zero,5
    1114:	40b50633          	sub	a2,a0,a1
    1118:	2cc42223          	sw	a2,708(s0)

0000111c <inst_198>:
    111c:	33333537          	lui	a0,0x33333
    1120:	33350513          	addi	a0,a0,819 # 33333333 <_end+0x3332972b>
    1124:	333335b7          	lui	a1,0x33333
    1128:	33358593          	addi	a1,a1,819 # 33333333 <_end+0x3332972b>
    112c:	40b50633          	sub	a2,a0,a1
    1130:	2cc42423          	sw	a2,712(s0)

00001134 <inst_199>:
    1134:	33333537          	lui	a0,0x33333
    1138:	33350513          	addi	a0,a0,819 # 33333333 <_end+0x3332972b>
    113c:	666665b7          	lui	a1,0x66666
    1140:	66658593          	addi	a1,a1,1638 # 66666666 <absimm+0x21374137>
    1144:	40b50633          	sub	a2,a0,a1
    1148:	2cc42623          	sw	a2,716(s0)

0000114c <inst_200>:
    114c:	33333537          	lui	a0,0x33333
    1150:	33350513          	addi	a0,a0,819 # 33333333 <_end+0x3332972b>
    1154:	ffff55b7          	lui	a1,0xffff5
    1158:	afc58593          	addi	a1,a1,-1284 # ffff4afc <immx+0x452e702c>
    115c:	40b50633          	sub	a2,a0,a1
    1160:	2cc42823          	sw	a2,720(s0)

00001164 <inst_201>:
    1164:	33333537          	lui	a0,0x33333
    1168:	33350513          	addi	a0,a0,819 # 33333333 <_end+0x3332972b>
    116c:	0000b5b7          	lui	a1,0xb
    1170:	50458593          	addi	a1,a1,1284 # b504 <_end+0x18fc>
    1174:	40b50633          	sub	a2,a0,a1
    1178:	2cc42a23          	sw	a2,724(s0)

0000117c <inst_202>:
    117c:	33333537          	lui	a0,0x33333
    1180:	33350513          	addi	a0,a0,819 # 33333333 <_end+0x3332972b>
    1184:	00200593          	addi	a1,zero,2
    1188:	40b50633          	sub	a2,a0,a1
    118c:	2cc42c23          	sw	a2,728(s0)

00001190 <inst_203>:
    1190:	33333537          	lui	a0,0x33333
    1194:	33350513          	addi	a0,a0,819 # 33333333 <_end+0x3332972b>
    1198:	555555b7          	lui	a1,0x55555
    119c:	55458593          	addi	a1,a1,1364 # 55555554 <absimm+0x10263025>
    11a0:	40b50633          	sub	a2,a0,a1
    11a4:	2cc42e23          	sw	a2,732(s0)

000011a8 <inst_204>:
    11a8:	33333537          	lui	a0,0x33333
    11ac:	33350513          	addi	a0,a0,819 # 33333333 <_end+0x3332972b>
    11b0:	00000593          	addi	a1,zero,0
    11b4:	40b50633          	sub	a2,a0,a1
    11b8:	2ec42023          	sw	a2,736(s0)

000011bc <inst_205>:
    11bc:	33333537          	lui	a0,0x33333
    11c0:	33350513          	addi	a0,a0,819 # 33333333 <_end+0x3332972b>
    11c4:	00400593          	addi	a1,zero,4
    11c8:	40b50633          	sub	a2,a0,a1
    11cc:	2ec42223          	sw	a2,740(s0)

000011d0 <inst_206>:
    11d0:	33333537          	lui	a0,0x33333
    11d4:	33350513          	addi	a0,a0,819 # 33333333 <_end+0x3332972b>
    11d8:	333335b7          	lui	a1,0x33333
    11dc:	33258593          	addi	a1,a1,818 # 33333332 <_end+0x3332972a>
    11e0:	40b50633          	sub	a2,a0,a1
    11e4:	2ec42423          	sw	a2,744(s0)

000011e8 <inst_207>:
    11e8:	33333537          	lui	a0,0x33333
    11ec:	33350513          	addi	a0,a0,819 # 33333333 <_end+0x3332972b>
    11f0:	666665b7          	lui	a1,0x66666
    11f4:	66558593          	addi	a1,a1,1637 # 66666665 <absimm+0x21374136>
    11f8:	40b50633          	sub	a2,a0,a1
    11fc:	2ec42623          	sw	a2,748(s0)

00001200 <inst_208>:
    1200:	33333537          	lui	a0,0x33333
    1204:	33350513          	addi	a0,a0,819 # 33333333 <_end+0x3332972b>
    1208:	0000b5b7          	lui	a1,0xb
    120c:	50358593          	addi	a1,a1,1283 # b503 <_end+0x18fb>
    1210:	40b50633          	sub	a2,a0,a1
    1214:	2ec42823          	sw	a2,752(s0)

00001218 <inst_209>:
    1218:	33333537          	lui	a0,0x33333
    121c:	33350513          	addi	a0,a0,819 # 33333333 <_end+0x3332972b>
    1220:	555555b7          	lui	a1,0x55555
    1224:	55658593          	addi	a1,a1,1366 # 55555556 <absimm+0x10263027>
    1228:	40b50633          	sub	a2,a0,a1
    122c:	2ec42a23          	sw	a2,756(s0)

00001230 <inst_210>:
    1230:	33333537          	lui	a0,0x33333
    1234:	33350513          	addi	a0,a0,819 # 33333333 <_end+0x3332972b>
    1238:	aaaab5b7          	lui	a1,0xaaaab
    123c:	aab58593          	addi	a1,a1,-1365 # aaaaaaab <absimm+0x657b857c>
    1240:	40b50633          	sub	a2,a0,a1
    1244:	2ec42c23          	sw	a2,760(s0)

00001248 <inst_211>:
    1248:	33333537          	lui	a0,0x33333
    124c:	33350513          	addi	a0,a0,819 # 33333333 <_end+0x3332972b>
    1250:	00600593          	addi	a1,zero,6
    1254:	40b50633          	sub	a2,a0,a1
    1258:	2ec42e23          	sw	a2,764(s0)

0000125c <inst_212>:
    125c:	33333537          	lui	a0,0x33333
    1260:	33350513          	addi	a0,a0,819 # 33333333 <_end+0x3332972b>
    1264:	333335b7          	lui	a1,0x33333
    1268:	33458593          	addi	a1,a1,820 # 33333334 <_end+0x3332972c>
    126c:	40b50633          	sub	a2,a0,a1
    1270:	30c42023          	sw	a2,768(s0)

00001274 <inst_213>:
    1274:	33333537          	lui	a0,0x33333
    1278:	33350513          	addi	a0,a0,819 # 33333333 <_end+0x3332972b>
    127c:	666665b7          	lui	a1,0x66666
    1280:	66758593          	addi	a1,a1,1639 # 66666667 <absimm+0x21374138>
    1284:	40b50633          	sub	a2,a0,a1
    1288:	30c42223          	sw	a2,772(s0)

0000128c <inst_214>:
    128c:	33333537          	lui	a0,0x33333
    1290:	33350513          	addi	a0,a0,819 # 33333333 <_end+0x3332972b>
    1294:	ffff55b7          	lui	a1,0xffff5
    1298:	afd58593          	addi	a1,a1,-1283 # ffff4afd <immx+0x452e702d>
    129c:	40b50633          	sub	a2,a0,a1
    12a0:	30c42423          	sw	a2,776(s0)

000012a4 <inst_215>:
    12a4:	33333537          	lui	a0,0x33333
    12a8:	33350513          	addi	a0,a0,819 # 33333333 <_end+0x3332972b>
    12ac:	0000b5b7          	lui	a1,0xb
    12b0:	50558593          	addi	a1,a1,1285 # b505 <_end+0x18fd>
    12b4:	40b50633          	sub	a2,a0,a1
    12b8:	30c42623          	sw	a2,780(s0)

000012bc <inst_216>:
    12bc:	66666537          	lui	a0,0x66666
    12c0:	66650513          	addi	a0,a0,1638 # 66666666 <absimm+0x21374137>
    12c4:	00300593          	addi	a1,zero,3
    12c8:	40b50633          	sub	a2,a0,a1
    12cc:	30c42823          	sw	a2,784(s0)

000012d0 <inst_217>:
    12d0:	66666537          	lui	a0,0x66666
    12d4:	66650513          	addi	a0,a0,1638 # 66666666 <absimm+0x21374137>
    12d8:	555555b7          	lui	a1,0x55555
    12dc:	55558593          	addi	a1,a1,1365 # 55555555 <absimm+0x10263026>
    12e0:	40b50633          	sub	a2,a0,a1
    12e4:	30c42a23          	sw	a2,788(s0)

000012e8 <inst_218>:
    12e8:	66666537          	lui	a0,0x66666
    12ec:	66650513          	addi	a0,a0,1638 # 66666666 <absimm+0x21374137>
    12f0:	aaaab5b7          	lui	a1,0xaaaab
    12f4:	aaa58593          	addi	a1,a1,-1366 # aaaaaaaa <absimm+0x657b857b>
    12f8:	40b50633          	sub	a2,a0,a1
    12fc:	30c42c23          	sw	a2,792(s0)

00001300 <inst_219>:
    1300:	66666537          	lui	a0,0x66666
    1304:	66650513          	addi	a0,a0,1638 # 66666666 <absimm+0x21374137>
    1308:	00500593          	addi	a1,zero,5
    130c:	40b50633          	sub	a2,a0,a1
    1310:	30c42e23          	sw	a2,796(s0)

00001314 <inst_220>:
    1314:	66666537          	lui	a0,0x66666
    1318:	66650513          	addi	a0,a0,1638 # 66666666 <absimm+0x21374137>
    131c:	333335b7          	lui	a1,0x33333
    1320:	33358593          	addi	a1,a1,819 # 33333333 <_end+0x3332972b>
    1324:	40b50633          	sub	a2,a0,a1
    1328:	32c42023          	sw	a2,800(s0)

0000132c <inst_221>:
    132c:	66666537          	lui	a0,0x66666
    1330:	66650513          	addi	a0,a0,1638 # 66666666 <absimm+0x21374137>
    1334:	666665b7          	lui	a1,0x66666
    1338:	66658593          	addi	a1,a1,1638 # 66666666 <absimm+0x21374137>
    133c:	40b50633          	sub	a2,a0,a1
    1340:	32c42223          	sw	a2,804(s0)

00001344 <inst_222>:
    1344:	66666537          	lui	a0,0x66666
    1348:	66650513          	addi	a0,a0,1638 # 66666666 <absimm+0x21374137>
    134c:	ffff55b7          	lui	a1,0xffff5
    1350:	afc58593          	addi	a1,a1,-1284 # ffff4afc <immx+0x452e702c>
    1354:	40b50633          	sub	a2,a0,a1
    1358:	32c42423          	sw	a2,808(s0)

0000135c <inst_223>:
    135c:	66666537          	lui	a0,0x66666
    1360:	66650513          	addi	a0,a0,1638 # 66666666 <absimm+0x21374137>
    1364:	0000b5b7          	lui	a1,0xb
    1368:	50458593          	addi	a1,a1,1284 # b504 <_end+0x18fc>
    136c:	40b50633          	sub	a2,a0,a1
    1370:	32c42623          	sw	a2,812(s0)

00001374 <inst_224>:
    1374:	66666537          	lui	a0,0x66666
    1378:	66650513          	addi	a0,a0,1638 # 66666666 <absimm+0x21374137>
    137c:	00200593          	addi	a1,zero,2
    1380:	40b50633          	sub	a2,a0,a1
    1384:	32c42823          	sw	a2,816(s0)

00001388 <inst_225>:
    1388:	66666537          	lui	a0,0x66666
    138c:	66650513          	addi	a0,a0,1638 # 66666666 <absimm+0x21374137>
    1390:	555555b7          	lui	a1,0x55555
    1394:	55458593          	addi	a1,a1,1364 # 55555554 <absimm+0x10263025>
    1398:	40b50633          	sub	a2,a0,a1
    139c:	32c42a23          	sw	a2,820(s0)

000013a0 <inst_226>:
    13a0:	66666537          	lui	a0,0x66666
    13a4:	66650513          	addi	a0,a0,1638 # 66666666 <absimm+0x21374137>
    13a8:	00000593          	addi	a1,zero,0
    13ac:	40b50633          	sub	a2,a0,a1
    13b0:	32c42c23          	sw	a2,824(s0)

000013b4 <inst_227>:
    13b4:	66666537          	lui	a0,0x66666
    13b8:	66650513          	addi	a0,a0,1638 # 66666666 <absimm+0x21374137>
    13bc:	00400593          	addi	a1,zero,4
    13c0:	40b50633          	sub	a2,a0,a1
    13c4:	32c42e23          	sw	a2,828(s0)

000013c8 <inst_228>:
    13c8:	66666537          	lui	a0,0x66666
    13cc:	66650513          	addi	a0,a0,1638 # 66666666 <absimm+0x21374137>
    13d0:	333335b7          	lui	a1,0x33333
    13d4:	33258593          	addi	a1,a1,818 # 33333332 <_end+0x3332972a>
    13d8:	40b50633          	sub	a2,a0,a1
    13dc:	34c42023          	sw	a2,832(s0)

000013e0 <inst_229>:
    13e0:	66666537          	lui	a0,0x66666
    13e4:	66650513          	addi	a0,a0,1638 # 66666666 <absimm+0x21374137>
    13e8:	666665b7          	lui	a1,0x66666
    13ec:	66558593          	addi	a1,a1,1637 # 66666665 <absimm+0x21374136>
    13f0:	40b50633          	sub	a2,a0,a1
    13f4:	34c42223          	sw	a2,836(s0)

000013f8 <inst_230>:
    13f8:	66666537          	lui	a0,0x66666
    13fc:	66650513          	addi	a0,a0,1638 # 66666666 <absimm+0x21374137>
    1400:	0000b5b7          	lui	a1,0xb
    1404:	50358593          	addi	a1,a1,1283 # b503 <_end+0x18fb>
    1408:	40b50633          	sub	a2,a0,a1
    140c:	34c42423          	sw	a2,840(s0)

00001410 <inst_231>:
    1410:	66666537          	lui	a0,0x66666
    1414:	66650513          	addi	a0,a0,1638 # 66666666 <absimm+0x21374137>
    1418:	555555b7          	lui	a1,0x55555
    141c:	55658593          	addi	a1,a1,1366 # 55555556 <absimm+0x10263027>
    1420:	40b50633          	sub	a2,a0,a1
    1424:	34c42623          	sw	a2,844(s0)

00001428 <inst_232>:
    1428:	66666537          	lui	a0,0x66666
    142c:	66650513          	addi	a0,a0,1638 # 66666666 <absimm+0x21374137>
    1430:	aaaab5b7          	lui	a1,0xaaaab
    1434:	aab58593          	addi	a1,a1,-1365 # aaaaaaab <absimm+0x657b857c>
    1438:	40b50633          	sub	a2,a0,a1
    143c:	34c42823          	sw	a2,848(s0)

00001440 <inst_233>:
    1440:	66666537          	lui	a0,0x66666
    1444:	66650513          	addi	a0,a0,1638 # 66666666 <absimm+0x21374137>
    1448:	00600593          	addi	a1,zero,6
    144c:	40b50633          	sub	a2,a0,a1
    1450:	34c42a23          	sw	a2,852(s0)

00001454 <inst_234>:
    1454:	66666537          	lui	a0,0x66666
    1458:	66650513          	addi	a0,a0,1638 # 66666666 <absimm+0x21374137>
    145c:	333335b7          	lui	a1,0x33333
    1460:	33458593          	addi	a1,a1,820 # 33333334 <_end+0x3332972c>
    1464:	40b50633          	sub	a2,a0,a1
    1468:	34c42c23          	sw	a2,856(s0)

0000146c <inst_235>:
    146c:	66666537          	lui	a0,0x66666
    1470:	66650513          	addi	a0,a0,1638 # 66666666 <absimm+0x21374137>
    1474:	666665b7          	lui	a1,0x66666
    1478:	66758593          	addi	a1,a1,1639 # 66666667 <absimm+0x21374138>
    147c:	40b50633          	sub	a2,a0,a1
    1480:	34c42e23          	sw	a2,860(s0)

00001484 <inst_236>:
    1484:	66666537          	lui	a0,0x66666
    1488:	66650513          	addi	a0,a0,1638 # 66666666 <absimm+0x21374137>
    148c:	ffff55b7          	lui	a1,0xffff5
    1490:	afd58593          	addi	a1,a1,-1283 # ffff4afd <immx+0x452e702d>
    1494:	40b50633          	sub	a2,a0,a1
    1498:	36c42023          	sw	a2,864(s0)

0000149c <inst_237>:
    149c:	66666537          	lui	a0,0x66666
    14a0:	66650513          	addi	a0,a0,1638 # 66666666 <absimm+0x21374137>
    14a4:	0000b5b7          	lui	a1,0xb
    14a8:	50558593          	addi	a1,a1,1285 # b505 <_end+0x18fd>
    14ac:	40b50633          	sub	a2,a0,a1
    14b0:	36c42223          	sw	a2,868(s0)

000014b4 <inst_238>:
    14b4:	ffff5537          	lui	a0,0xffff5
    14b8:	afc50513          	addi	a0,a0,-1284 # ffff4afc <immx+0x452e702c>
    14bc:	00300593          	addi	a1,zero,3
    14c0:	40b50633          	sub	a2,a0,a1
    14c4:	36c42423          	sw	a2,872(s0)

000014c8 <inst_239>:
    14c8:	ffff5537          	lui	a0,0xffff5
    14cc:	afc50513          	addi	a0,a0,-1284 # ffff4afc <immx+0x452e702c>
    14d0:	555555b7          	lui	a1,0x55555
    14d4:	55558593          	addi	a1,a1,1365 # 55555555 <absimm+0x10263026>
    14d8:	40b50633          	sub	a2,a0,a1
    14dc:	36c42623          	sw	a2,876(s0)

000014e0 <inst_240>:
    14e0:	ffff5537          	lui	a0,0xffff5
    14e4:	afc50513          	addi	a0,a0,-1284 # ffff4afc <immx+0x452e702c>
    14e8:	aaaab5b7          	lui	a1,0xaaaab
    14ec:	aaa58593          	addi	a1,a1,-1366 # aaaaaaaa <absimm+0x657b857b>
    14f0:	40b50633          	sub	a2,a0,a1
    14f4:	36c42823          	sw	a2,880(s0)

000014f8 <inst_241>:
    14f8:	ffff5537          	lui	a0,0xffff5
    14fc:	afc50513          	addi	a0,a0,-1284 # ffff4afc <immx+0x452e702c>
    1500:	00500593          	addi	a1,zero,5
    1504:	40b50633          	sub	a2,a0,a1
    1508:	36c42a23          	sw	a2,884(s0)

0000150c <inst_242>:
    150c:	ffff5537          	lui	a0,0xffff5
    1510:	afc50513          	addi	a0,a0,-1284 # ffff4afc <immx+0x452e702c>
    1514:	333335b7          	lui	a1,0x33333
    1518:	33358593          	addi	a1,a1,819 # 33333333 <_end+0x3332972b>
    151c:	40b50633          	sub	a2,a0,a1
    1520:	36c42c23          	sw	a2,888(s0)

00001524 <inst_243>:
    1524:	ffff5537          	lui	a0,0xffff5
    1528:	afc50513          	addi	a0,a0,-1284 # ffff4afc <immx+0x452e702c>
    152c:	666665b7          	lui	a1,0x66666
    1530:	66658593          	addi	a1,a1,1638 # 66666666 <absimm+0x21374137>
    1534:	40b50633          	sub	a2,a0,a1
    1538:	36c42e23          	sw	a2,892(s0)

0000153c <inst_244>:
    153c:	ffff5537          	lui	a0,0xffff5
    1540:	afc50513          	addi	a0,a0,-1284 # ffff4afc <immx+0x452e702c>
    1544:	ffff55b7          	lui	a1,0xffff5
    1548:	afc58593          	addi	a1,a1,-1284 # ffff4afc <immx+0x452e702c>
    154c:	40b50633          	sub	a2,a0,a1
    1550:	38c42023          	sw	a2,896(s0)

00001554 <inst_245>:
    1554:	ffff5537          	lui	a0,0xffff5
    1558:	afc50513          	addi	a0,a0,-1284 # ffff4afc <immx+0x452e702c>
    155c:	0000b5b7          	lui	a1,0xb
    1560:	50458593          	addi	a1,a1,1284 # b504 <_end+0x18fc>
    1564:	40b50633          	sub	a2,a0,a1
    1568:	38c42223          	sw	a2,900(s0)

0000156c <inst_246>:
    156c:	ffff5537          	lui	a0,0xffff5
    1570:	afc50513          	addi	a0,a0,-1284 # ffff4afc <immx+0x452e702c>
    1574:	00200593          	addi	a1,zero,2
    1578:	40b50633          	sub	a2,a0,a1
    157c:	38c42423          	sw	a2,904(s0)

00001580 <inst_247>:
    1580:	ffff5537          	lui	a0,0xffff5
    1584:	afc50513          	addi	a0,a0,-1284 # ffff4afc <immx+0x452e702c>
    1588:	555555b7          	lui	a1,0x55555
    158c:	55458593          	addi	a1,a1,1364 # 55555554 <absimm+0x10263025>
    1590:	40b50633          	sub	a2,a0,a1
    1594:	38c42623          	sw	a2,908(s0)

00001598 <inst_248>:
    1598:	ffff5537          	lui	a0,0xffff5
    159c:	afc50513          	addi	a0,a0,-1284 # ffff4afc <immx+0x452e702c>
    15a0:	00000593          	addi	a1,zero,0
    15a4:	40b50633          	sub	a2,a0,a1
    15a8:	38c42823          	sw	a2,912(s0)

000015ac <inst_249>:
    15ac:	ffff5537          	lui	a0,0xffff5
    15b0:	afc50513          	addi	a0,a0,-1284 # ffff4afc <immx+0x452e702c>
    15b4:	00400593          	addi	a1,zero,4
    15b8:	40b50633          	sub	a2,a0,a1
    15bc:	38c42a23          	sw	a2,916(s0)

000015c0 <inst_250>:
    15c0:	ffff5537          	lui	a0,0xffff5
    15c4:	afc50513          	addi	a0,a0,-1284 # ffff4afc <immx+0x452e702c>
    15c8:	333335b7          	lui	a1,0x33333
    15cc:	33258593          	addi	a1,a1,818 # 33333332 <_end+0x3332972a>
    15d0:	40b50633          	sub	a2,a0,a1
    15d4:	38c42c23          	sw	a2,920(s0)

000015d8 <inst_251>:
    15d8:	ffff5537          	lui	a0,0xffff5
    15dc:	afc50513          	addi	a0,a0,-1284 # ffff4afc <immx+0x452e702c>
    15e0:	666665b7          	lui	a1,0x66666
    15e4:	66558593          	addi	a1,a1,1637 # 66666665 <absimm+0x21374136>
    15e8:	40b50633          	sub	a2,a0,a1
    15ec:	38c42e23          	sw	a2,924(s0)

000015f0 <inst_252>:
    15f0:	ffff5537          	lui	a0,0xffff5
    15f4:	afc50513          	addi	a0,a0,-1284 # ffff4afc <immx+0x452e702c>
    15f8:	0000b5b7          	lui	a1,0xb
    15fc:	50358593          	addi	a1,a1,1283 # b503 <_end+0x18fb>
    1600:	40b50633          	sub	a2,a0,a1
    1604:	3ac42023          	sw	a2,928(s0)

00001608 <inst_253>:
    1608:	ffff5537          	lui	a0,0xffff5
    160c:	afc50513          	addi	a0,a0,-1284 # ffff4afc <immx+0x452e702c>
    1610:	555555b7          	lui	a1,0x55555
    1614:	55658593          	addi	a1,a1,1366 # 55555556 <absimm+0x10263027>
    1618:	40b50633          	sub	a2,a0,a1
    161c:	3ac42223          	sw	a2,932(s0)

00001620 <inst_254>:
    1620:	ffff5537          	lui	a0,0xffff5
    1624:	afc50513          	addi	a0,a0,-1284 # ffff4afc <immx+0x452e702c>
    1628:	aaaab5b7          	lui	a1,0xaaaab
    162c:	aab58593          	addi	a1,a1,-1365 # aaaaaaab <absimm+0x657b857c>
    1630:	40b50633          	sub	a2,a0,a1
    1634:	3ac42423          	sw	a2,936(s0)

00001638 <inst_255>:
    1638:	ffff5537          	lui	a0,0xffff5
    163c:	afc50513          	addi	a0,a0,-1284 # ffff4afc <immx+0x452e702c>
    1640:	00600593          	addi	a1,zero,6
    1644:	40b50633          	sub	a2,a0,a1
    1648:	3ac42623          	sw	a2,940(s0)

0000164c <inst_256>:
    164c:	ffff5537          	lui	a0,0xffff5
    1650:	afc50513          	addi	a0,a0,-1284 # ffff4afc <immx+0x452e702c>
    1654:	333335b7          	lui	a1,0x33333
    1658:	33458593          	addi	a1,a1,820 # 33333334 <_end+0x3332972c>
    165c:	40b50633          	sub	a2,a0,a1
    1660:	3ac42823          	sw	a2,944(s0)

00001664 <inst_257>:
    1664:	ffff5537          	lui	a0,0xffff5
    1668:	afc50513          	addi	a0,a0,-1284 # ffff4afc <immx+0x452e702c>
    166c:	666665b7          	lui	a1,0x66666
    1670:	66758593          	addi	a1,a1,1639 # 66666667 <absimm+0x21374138>
    1674:	40b50633          	sub	a2,a0,a1
    1678:	3ac42a23          	sw	a2,948(s0)

0000167c <inst_258>:
    167c:	ffff5537          	lui	a0,0xffff5
    1680:	afc50513          	addi	a0,a0,-1284 # ffff4afc <immx+0x452e702c>
    1684:	ffff55b7          	lui	a1,0xffff5
    1688:	afd58593          	addi	a1,a1,-1283 # ffff4afd <immx+0x452e702d>
    168c:	40b50633          	sub	a2,a0,a1
    1690:	3ac42c23          	sw	a2,952(s0)

00001694 <inst_259>:
    1694:	ffff5537          	lui	a0,0xffff5
    1698:	afc50513          	addi	a0,a0,-1284 # ffff4afc <immx+0x452e702c>
    169c:	0000b5b7          	lui	a1,0xb
    16a0:	50558593          	addi	a1,a1,1285 # b505 <_end+0x18fd>
    16a4:	40b50633          	sub	a2,a0,a1
    16a8:	3ac42e23          	sw	a2,956(s0)

000016ac <inst_260>:
    16ac:	0000b537          	lui	a0,0xb
    16b0:	50450513          	addi	a0,a0,1284 # b504 <_end+0x18fc>
    16b4:	00300593          	addi	a1,zero,3
    16b8:	40b50633          	sub	a2,a0,a1
    16bc:	3cc42023          	sw	a2,960(s0)

000016c0 <inst_261>:
    16c0:	0000b537          	lui	a0,0xb
    16c4:	50450513          	addi	a0,a0,1284 # b504 <_end+0x18fc>
    16c8:	555555b7          	lui	a1,0x55555
    16cc:	55558593          	addi	a1,a1,1365 # 55555555 <absimm+0x10263026>
    16d0:	40b50633          	sub	a2,a0,a1
    16d4:	3cc42223          	sw	a2,964(s0)

000016d8 <inst_262>:
    16d8:	0000b537          	lui	a0,0xb
    16dc:	50450513          	addi	a0,a0,1284 # b504 <_end+0x18fc>
    16e0:	aaaab5b7          	lui	a1,0xaaaab
    16e4:	aaa58593          	addi	a1,a1,-1366 # aaaaaaaa <absimm+0x657b857b>
    16e8:	40b50633          	sub	a2,a0,a1
    16ec:	3cc42423          	sw	a2,968(s0)

000016f0 <inst_263>:
    16f0:	0000b537          	lui	a0,0xb
    16f4:	50450513          	addi	a0,a0,1284 # b504 <_end+0x18fc>
    16f8:	00500593          	addi	a1,zero,5
    16fc:	40b50633          	sub	a2,a0,a1
    1700:	3cc42623          	sw	a2,972(s0)

00001704 <inst_264>:
    1704:	0000b537          	lui	a0,0xb
    1708:	50450513          	addi	a0,a0,1284 # b504 <_end+0x18fc>
    170c:	333335b7          	lui	a1,0x33333
    1710:	33358593          	addi	a1,a1,819 # 33333333 <_end+0x3332972b>
    1714:	40b50633          	sub	a2,a0,a1
    1718:	3cc42823          	sw	a2,976(s0)

0000171c <inst_265>:
    171c:	0000b537          	lui	a0,0xb
    1720:	50450513          	addi	a0,a0,1284 # b504 <_end+0x18fc>
    1724:	666665b7          	lui	a1,0x66666
    1728:	66658593          	addi	a1,a1,1638 # 66666666 <absimm+0x21374137>
    172c:	40b50633          	sub	a2,a0,a1
    1730:	3cc42a23          	sw	a2,980(s0)

00001734 <inst_266>:
    1734:	0000b537          	lui	a0,0xb
    1738:	50450513          	addi	a0,a0,1284 # b504 <_end+0x18fc>
    173c:	ffff55b7          	lui	a1,0xffff5
    1740:	afc58593          	addi	a1,a1,-1284 # ffff4afc <immx+0x452e702c>
    1744:	40b50633          	sub	a2,a0,a1
    1748:	3cc42c23          	sw	a2,984(s0)

0000174c <inst_267>:
    174c:	0000b537          	lui	a0,0xb
    1750:	50450513          	addi	a0,a0,1284 # b504 <_end+0x18fc>
    1754:	0000b5b7          	lui	a1,0xb
    1758:	50458593          	addi	a1,a1,1284 # b504 <_end+0x18fc>
    175c:	40b50633          	sub	a2,a0,a1
    1760:	3cc42e23          	sw	a2,988(s0)

00001764 <inst_268>:
    1764:	0000b537          	lui	a0,0xb
    1768:	50450513          	addi	a0,a0,1284 # b504 <_end+0x18fc>
    176c:	00200593          	addi	a1,zero,2
    1770:	40b50633          	sub	a2,a0,a1
    1774:	3ec42023          	sw	a2,992(s0)

00001778 <inst_269>:
    1778:	0000b537          	lui	a0,0xb
    177c:	50450513          	addi	a0,a0,1284 # b504 <_end+0x18fc>
    1780:	555555b7          	lui	a1,0x55555
    1784:	55458593          	addi	a1,a1,1364 # 55555554 <absimm+0x10263025>
    1788:	40b50633          	sub	a2,a0,a1
    178c:	3ec42223          	sw	a2,996(s0)

00001790 <inst_270>:
    1790:	0000b537          	lui	a0,0xb
    1794:	50450513          	addi	a0,a0,1284 # b504 <_end+0x18fc>
    1798:	00000593          	addi	a1,zero,0
    179c:	40b50633          	sub	a2,a0,a1
    17a0:	3ec42423          	sw	a2,1000(s0)

000017a4 <inst_271>:
    17a4:	0000b537          	lui	a0,0xb
    17a8:	50450513          	addi	a0,a0,1284 # b504 <_end+0x18fc>
    17ac:	00400593          	addi	a1,zero,4
    17b0:	40b50633          	sub	a2,a0,a1
    17b4:	3ec42623          	sw	a2,1004(s0)

000017b8 <inst_272>:
    17b8:	0000b537          	lui	a0,0xb
    17bc:	50450513          	addi	a0,a0,1284 # b504 <_end+0x18fc>
    17c0:	333335b7          	lui	a1,0x33333
    17c4:	33258593          	addi	a1,a1,818 # 33333332 <_end+0x3332972a>
    17c8:	40b50633          	sub	a2,a0,a1
    17cc:	3ec42823          	sw	a2,1008(s0)

000017d0 <inst_273>:
    17d0:	0000b537          	lui	a0,0xb
    17d4:	50450513          	addi	a0,a0,1284 # b504 <_end+0x18fc>
    17d8:	666665b7          	lui	a1,0x66666
    17dc:	66558593          	addi	a1,a1,1637 # 66666665 <absimm+0x21374136>
    17e0:	40b50633          	sub	a2,a0,a1
    17e4:	3ec42a23          	sw	a2,1012(s0)

000017e8 <inst_274>:
    17e8:	0000b537          	lui	a0,0xb
    17ec:	50450513          	addi	a0,a0,1284 # b504 <_end+0x18fc>
    17f0:	0000b5b7          	lui	a1,0xb
    17f4:	50358593          	addi	a1,a1,1283 # b503 <_end+0x18fb>
    17f8:	40b50633          	sub	a2,a0,a1
    17fc:	3ec42c23          	sw	a2,1016(s0)

00001800 <inst_275>:
    1800:	0000b537          	lui	a0,0xb
    1804:	50450513          	addi	a0,a0,1284 # b504 <_end+0x18fc>
    1808:	555555b7          	lui	a1,0x55555
    180c:	55658593          	addi	a1,a1,1366 # 55555556 <absimm+0x10263027>
    1810:	40b50633          	sub	a2,a0,a1
    1814:	3ec42e23          	sw	a2,1020(s0)

00001818 <inst_276>:
    1818:	0000b537          	lui	a0,0xb
    181c:	50450513          	addi	a0,a0,1284 # b504 <_end+0x18fc>
    1820:	aaaab5b7          	lui	a1,0xaaaab
    1824:	aab58593          	addi	a1,a1,-1365 # aaaaaaab <absimm+0x657b857c>
    1828:	40b50633          	sub	a2,a0,a1
    182c:	40c42023          	sw	a2,1024(s0)

00001830 <inst_277>:
    1830:	0000b537          	lui	a0,0xb
    1834:	50450513          	addi	a0,a0,1284 # b504 <_end+0x18fc>
    1838:	00600593          	addi	a1,zero,6
    183c:	40b50633          	sub	a2,a0,a1
    1840:	40c42223          	sw	a2,1028(s0)

00001844 <inst_278>:
    1844:	0000b537          	lui	a0,0xb
    1848:	50450513          	addi	a0,a0,1284 # b504 <_end+0x18fc>
    184c:	333335b7          	lui	a1,0x33333
    1850:	33458593          	addi	a1,a1,820 # 33333334 <_end+0x3332972c>
    1854:	40b50633          	sub	a2,a0,a1
    1858:	40c42423          	sw	a2,1032(s0)

0000185c <inst_279>:
    185c:	0000b537          	lui	a0,0xb
    1860:	50450513          	addi	a0,a0,1284 # b504 <_end+0x18fc>
    1864:	666665b7          	lui	a1,0x66666
    1868:	66758593          	addi	a1,a1,1639 # 66666667 <absimm+0x21374138>
    186c:	40b50633          	sub	a2,a0,a1
    1870:	40c42623          	sw	a2,1036(s0)

00001874 <inst_280>:
    1874:	0000b537          	lui	a0,0xb
    1878:	50450513          	addi	a0,a0,1284 # b504 <_end+0x18fc>
    187c:	ffff55b7          	lui	a1,0xffff5
    1880:	afd58593          	addi	a1,a1,-1283 # ffff4afd <immx+0x452e702d>
    1884:	40b50633          	sub	a2,a0,a1
    1888:	40c42823          	sw	a2,1040(s0)

0000188c <inst_281>:
    188c:	0000b537          	lui	a0,0xb
    1890:	50450513          	addi	a0,a0,1284 # b504 <_end+0x18fc>
    1894:	0000b5b7          	lui	a1,0xb
    1898:	50558593          	addi	a1,a1,1285 # b505 <_end+0x18fd>
    189c:	40b50633          	sub	a2,a0,a1
    18a0:	40c42a23          	sw	a2,1044(s0)

000018a4 <inst_282>:
    18a4:	00200513          	addi	a0,zero,2
    18a8:	00300593          	addi	a1,zero,3
    18ac:	40b50633          	sub	a2,a0,a1
    18b0:	40c42c23          	sw	a2,1048(s0)

000018b4 <inst_283>:
    18b4:	00200513          	addi	a0,zero,2
    18b8:	555555b7          	lui	a1,0x55555
    18bc:	55558593          	addi	a1,a1,1365 # 55555555 <absimm+0x10263026>
    18c0:	40b50633          	sub	a2,a0,a1
    18c4:	40c42e23          	sw	a2,1052(s0)

000018c8 <inst_284>:
    18c8:	00200513          	addi	a0,zero,2
    18cc:	aaaab5b7          	lui	a1,0xaaaab
    18d0:	aaa58593          	addi	a1,a1,-1366 # aaaaaaaa <absimm+0x657b857b>
    18d4:	40b50633          	sub	a2,a0,a1
    18d8:	42c42023          	sw	a2,1056(s0)

000018dc <inst_285>:
    18dc:	00200513          	addi	a0,zero,2
    18e0:	00500593          	addi	a1,zero,5
    18e4:	40b50633          	sub	a2,a0,a1
    18e8:	42c42223          	sw	a2,1060(s0)

000018ec <inst_286>:
    18ec:	00200513          	addi	a0,zero,2
    18f0:	333335b7          	lui	a1,0x33333
    18f4:	33358593          	addi	a1,a1,819 # 33333333 <_end+0x3332972b>
    18f8:	40b50633          	sub	a2,a0,a1
    18fc:	42c42423          	sw	a2,1064(s0)

00001900 <inst_287>:
    1900:	00200513          	addi	a0,zero,2
    1904:	666665b7          	lui	a1,0x66666
    1908:	66658593          	addi	a1,a1,1638 # 66666666 <absimm+0x21374137>
    190c:	40b50633          	sub	a2,a0,a1
    1910:	42c42623          	sw	a2,1068(s0)

00001914 <inst_288>:
    1914:	00200513          	addi	a0,zero,2
    1918:	ffff55b7          	lui	a1,0xffff5
    191c:	afc58593          	addi	a1,a1,-1284 # ffff4afc <immx+0x452e702c>
    1920:	40b50633          	sub	a2,a0,a1
    1924:	42c42823          	sw	a2,1072(s0)

00001928 <inst_289>:
    1928:	00200513          	addi	a0,zero,2
    192c:	0000b5b7          	lui	a1,0xb
    1930:	50458593          	addi	a1,a1,1284 # b504 <_end+0x18fc>
    1934:	40b50633          	sub	a2,a0,a1
    1938:	42c42a23          	sw	a2,1076(s0)

0000193c <inst_290>:
    193c:	00200513          	addi	a0,zero,2
    1940:	00200593          	addi	a1,zero,2
    1944:	40b50633          	sub	a2,a0,a1
    1948:	42c42c23          	sw	a2,1080(s0)

0000194c <inst_291>:
    194c:	00200513          	addi	a0,zero,2
    1950:	555555b7          	lui	a1,0x55555
    1954:	55458593          	addi	a1,a1,1364 # 55555554 <absimm+0x10263025>
    1958:	40b50633          	sub	a2,a0,a1
    195c:	42c42e23          	sw	a2,1084(s0)

00001960 <inst_292>:
    1960:	00200513          	addi	a0,zero,2
    1964:	00000593          	addi	a1,zero,0
    1968:	40b50633          	sub	a2,a0,a1
    196c:	44c42023          	sw	a2,1088(s0)

00001970 <inst_293>:
    1970:	00200513          	addi	a0,zero,2
    1974:	333335b7          	lui	a1,0x33333
    1978:	33258593          	addi	a1,a1,818 # 33333332 <_end+0x3332972a>
    197c:	40b50633          	sub	a2,a0,a1
    1980:	44c42223          	sw	a2,1092(s0)

00001984 <inst_294>:
    1984:	00200513          	addi	a0,zero,2
    1988:	666665b7          	lui	a1,0x66666
    198c:	66558593          	addi	a1,a1,1637 # 66666665 <absimm+0x21374136>
    1990:	40b50633          	sub	a2,a0,a1
    1994:	44c42423          	sw	a2,1096(s0)

00001998 <inst_295>:
    1998:	00200513          	addi	a0,zero,2
    199c:	0000b5b7          	lui	a1,0xb
    19a0:	50358593          	addi	a1,a1,1283 # b503 <_end+0x18fb>
    19a4:	40b50633          	sub	a2,a0,a1
    19a8:	44c42623          	sw	a2,1100(s0)

000019ac <inst_296>:
    19ac:	00200513          	addi	a0,zero,2
    19b0:	555555b7          	lui	a1,0x55555
    19b4:	55658593          	addi	a1,a1,1366 # 55555556 <absimm+0x10263027>
    19b8:	40b50633          	sub	a2,a0,a1
    19bc:	44c42823          	sw	a2,1104(s0)

000019c0 <inst_297>:
    19c0:	00200513          	addi	a0,zero,2
    19c4:	aaaab5b7          	lui	a1,0xaaaab
    19c8:	aab58593          	addi	a1,a1,-1365 # aaaaaaab <absimm+0x657b857c>
    19cc:	40b50633          	sub	a2,a0,a1
    19d0:	44c42a23          	sw	a2,1108(s0)

000019d4 <inst_298>:
    19d4:	00200513          	addi	a0,zero,2
    19d8:	00600593          	addi	a1,zero,6
    19dc:	40b50633          	sub	a2,a0,a1
    19e0:	44c42c23          	sw	a2,1112(s0)

000019e4 <inst_299>:
    19e4:	00200513          	addi	a0,zero,2
    19e8:	333335b7          	lui	a1,0x33333
    19ec:	33458593          	addi	a1,a1,820 # 33333334 <_end+0x3332972c>
    19f0:	40b50633          	sub	a2,a0,a1
    19f4:	44c42e23          	sw	a2,1116(s0)

000019f8 <inst_300>:
    19f8:	00200513          	addi	a0,zero,2
    19fc:	666665b7          	lui	a1,0x66666
    1a00:	66758593          	addi	a1,a1,1639 # 66666667 <absimm+0x21374138>
    1a04:	40b50633          	sub	a2,a0,a1
    1a08:	46c42023          	sw	a2,1120(s0)

00001a0c <inst_301>:
    1a0c:	00200513          	addi	a0,zero,2
    1a10:	ffff55b7          	lui	a1,0xffff5
    1a14:	afd58593          	addi	a1,a1,-1283 # ffff4afd <immx+0x452e702d>
    1a18:	40b50633          	sub	a2,a0,a1
    1a1c:	46c42223          	sw	a2,1124(s0)

00001a20 <inst_302>:
    1a20:	00200513          	addi	a0,zero,2
    1a24:	0000b5b7          	lui	a1,0xb
    1a28:	50558593          	addi	a1,a1,1285 # b505 <_end+0x18fd>
    1a2c:	40b50633          	sub	a2,a0,a1
    1a30:	46c42423          	sw	a2,1128(s0)

00001a34 <inst_303>:
    1a34:	55555537          	lui	a0,0x55555
    1a38:	55450513          	addi	a0,a0,1364 # 55555554 <absimm+0x10263025>
    1a3c:	00300593          	addi	a1,zero,3
    1a40:	40b50633          	sub	a2,a0,a1
    1a44:	46c42623          	sw	a2,1132(s0)

00001a48 <inst_304>:
    1a48:	55555537          	lui	a0,0x55555
    1a4c:	55450513          	addi	a0,a0,1364 # 55555554 <absimm+0x10263025>
    1a50:	555555b7          	lui	a1,0x55555
    1a54:	55558593          	addi	a1,a1,1365 # 55555555 <absimm+0x10263026>
    1a58:	40b50633          	sub	a2,a0,a1
    1a5c:	46c42823          	sw	a2,1136(s0)

00001a60 <inst_305>:
    1a60:	55555537          	lui	a0,0x55555
    1a64:	55450513          	addi	a0,a0,1364 # 55555554 <absimm+0x10263025>
    1a68:	aaaab5b7          	lui	a1,0xaaaab
    1a6c:	aaa58593          	addi	a1,a1,-1366 # aaaaaaaa <absimm+0x657b857b>
    1a70:	40b50633          	sub	a2,a0,a1
    1a74:	46c42a23          	sw	a2,1140(s0)

00001a78 <inst_306>:
    1a78:	55555537          	lui	a0,0x55555
    1a7c:	55450513          	addi	a0,a0,1364 # 55555554 <absimm+0x10263025>
    1a80:	00500593          	addi	a1,zero,5
    1a84:	40b50633          	sub	a2,a0,a1
    1a88:	46c42c23          	sw	a2,1144(s0)

00001a8c <inst_307>:
    1a8c:	55555537          	lui	a0,0x55555
    1a90:	55450513          	addi	a0,a0,1364 # 55555554 <absimm+0x10263025>
    1a94:	333335b7          	lui	a1,0x33333
    1a98:	33358593          	addi	a1,a1,819 # 33333333 <_end+0x3332972b>
    1a9c:	40b50633          	sub	a2,a0,a1
    1aa0:	46c42e23          	sw	a2,1148(s0)

00001aa4 <inst_308>:
    1aa4:	55555537          	lui	a0,0x55555
    1aa8:	55450513          	addi	a0,a0,1364 # 55555554 <absimm+0x10263025>
    1aac:	666665b7          	lui	a1,0x66666
    1ab0:	66658593          	addi	a1,a1,1638 # 66666666 <absimm+0x21374137>
    1ab4:	40b50633          	sub	a2,a0,a1
    1ab8:	48c42023          	sw	a2,1152(s0)

00001abc <inst_309>:
    1abc:	55555537          	lui	a0,0x55555
    1ac0:	55450513          	addi	a0,a0,1364 # 55555554 <absimm+0x10263025>
    1ac4:	ffff55b7          	lui	a1,0xffff5
    1ac8:	afc58593          	addi	a1,a1,-1284 # ffff4afc <immx+0x452e702c>
    1acc:	40b50633          	sub	a2,a0,a1
    1ad0:	48c42223          	sw	a2,1156(s0)

00001ad4 <inst_310>:
    1ad4:	55555537          	lui	a0,0x55555
    1ad8:	55450513          	addi	a0,a0,1364 # 55555554 <absimm+0x10263025>
    1adc:	0000b5b7          	lui	a1,0xb
    1ae0:	50458593          	addi	a1,a1,1284 # b504 <_end+0x18fc>
    1ae4:	40b50633          	sub	a2,a0,a1
    1ae8:	48c42423          	sw	a2,1160(s0)

00001aec <inst_311>:
    1aec:	55555537          	lui	a0,0x55555
    1af0:	55450513          	addi	a0,a0,1364 # 55555554 <absimm+0x10263025>
    1af4:	00200593          	addi	a1,zero,2
    1af8:	40b50633          	sub	a2,a0,a1
    1afc:	48c42623          	sw	a2,1164(s0)

00001b00 <inst_312>:
    1b00:	55555537          	lui	a0,0x55555
    1b04:	55450513          	addi	a0,a0,1364 # 55555554 <absimm+0x10263025>
    1b08:	555555b7          	lui	a1,0x55555
    1b0c:	55458593          	addi	a1,a1,1364 # 55555554 <absimm+0x10263025>
    1b10:	40b50633          	sub	a2,a0,a1
    1b14:	48c42823          	sw	a2,1168(s0)

00001b18 <inst_313>:
    1b18:	55555537          	lui	a0,0x55555
    1b1c:	55450513          	addi	a0,a0,1364 # 55555554 <absimm+0x10263025>
    1b20:	00000593          	addi	a1,zero,0
    1b24:	40b50633          	sub	a2,a0,a1
    1b28:	48c42a23          	sw	a2,1172(s0)

00001b2c <inst_314>:
    1b2c:	55555537          	lui	a0,0x55555
    1b30:	55450513          	addi	a0,a0,1364 # 55555554 <absimm+0x10263025>
    1b34:	00400593          	addi	a1,zero,4
    1b38:	40b50633          	sub	a2,a0,a1
    1b3c:	48c42c23          	sw	a2,1176(s0)

00001b40 <inst_315>:
    1b40:	55555537          	lui	a0,0x55555
    1b44:	55450513          	addi	a0,a0,1364 # 55555554 <absimm+0x10263025>
    1b48:	333335b7          	lui	a1,0x33333
    1b4c:	33258593          	addi	a1,a1,818 # 33333332 <_end+0x3332972a>
    1b50:	40b50633          	sub	a2,a0,a1
    1b54:	48c42e23          	sw	a2,1180(s0)

00001b58 <inst_316>:
    1b58:	55555537          	lui	a0,0x55555
    1b5c:	55450513          	addi	a0,a0,1364 # 55555554 <absimm+0x10263025>
    1b60:	666665b7          	lui	a1,0x66666
    1b64:	66558593          	addi	a1,a1,1637 # 66666665 <absimm+0x21374136>
    1b68:	40b50633          	sub	a2,a0,a1
    1b6c:	4ac42023          	sw	a2,1184(s0)

00001b70 <inst_317>:
    1b70:	55555537          	lui	a0,0x55555
    1b74:	55450513          	addi	a0,a0,1364 # 55555554 <absimm+0x10263025>
    1b78:	0000b5b7          	lui	a1,0xb
    1b7c:	50358593          	addi	a1,a1,1283 # b503 <_end+0x18fb>
    1b80:	40b50633          	sub	a2,a0,a1
    1b84:	4ac42223          	sw	a2,1188(s0)

00001b88 <inst_318>:
    1b88:	55555537          	lui	a0,0x55555
    1b8c:	55450513          	addi	a0,a0,1364 # 55555554 <absimm+0x10263025>
    1b90:	555555b7          	lui	a1,0x55555
    1b94:	55658593          	addi	a1,a1,1366 # 55555556 <absimm+0x10263027>
    1b98:	40b50633          	sub	a2,a0,a1
    1b9c:	4ac42423          	sw	a2,1192(s0)

00001ba0 <inst_319>:
    1ba0:	55555537          	lui	a0,0x55555
    1ba4:	55450513          	addi	a0,a0,1364 # 55555554 <absimm+0x10263025>
    1ba8:	aaaab5b7          	lui	a1,0xaaaab
    1bac:	aab58593          	addi	a1,a1,-1365 # aaaaaaab <absimm+0x657b857c>
    1bb0:	40b50633          	sub	a2,a0,a1
    1bb4:	4ac42623          	sw	a2,1196(s0)

00001bb8 <inst_320>:
    1bb8:	55555537          	lui	a0,0x55555
    1bbc:	55450513          	addi	a0,a0,1364 # 55555554 <absimm+0x10263025>
    1bc0:	333335b7          	lui	a1,0x33333
    1bc4:	33458593          	addi	a1,a1,820 # 33333334 <_end+0x3332972c>
    1bc8:	40b50633          	sub	a2,a0,a1
    1bcc:	4ac42823          	sw	a2,1200(s0)

00001bd0 <inst_321>:
    1bd0:	55555537          	lui	a0,0x55555
    1bd4:	55450513          	addi	a0,a0,1364 # 55555554 <absimm+0x10263025>
    1bd8:	666665b7          	lui	a1,0x66666
    1bdc:	66758593          	addi	a1,a1,1639 # 66666667 <absimm+0x21374138>
    1be0:	40b50633          	sub	a2,a0,a1
    1be4:	4ac42a23          	sw	a2,1204(s0)

00001be8 <inst_322>:
    1be8:	55555537          	lui	a0,0x55555
    1bec:	55450513          	addi	a0,a0,1364 # 55555554 <absimm+0x10263025>
    1bf0:	ffff55b7          	lui	a1,0xffff5
    1bf4:	afd58593          	addi	a1,a1,-1283 # ffff4afd <immx+0x452e702d>
    1bf8:	40b50633          	sub	a2,a0,a1
    1bfc:	4ac42c23          	sw	a2,1208(s0)

00001c00 <inst_323>:
    1c00:	55555537          	lui	a0,0x55555
    1c04:	55450513          	addi	a0,a0,1364 # 55555554 <absimm+0x10263025>
    1c08:	0000b5b7          	lui	a1,0xb
    1c0c:	50558593          	addi	a1,a1,1285 # b505 <_end+0x18fd>
    1c10:	40b50633          	sub	a2,a0,a1
    1c14:	4ac42e23          	sw	a2,1212(s0)

00001c18 <inst_324>:
    1c18:	00000513          	addi	a0,zero,0
    1c1c:	00300593          	addi	a1,zero,3
    1c20:	40b50633          	sub	a2,a0,a1
    1c24:	4cc42023          	sw	a2,1216(s0)

00001c28 <inst_325>:
    1c28:	00000513          	addi	a0,zero,0
    1c2c:	555555b7          	lui	a1,0x55555
    1c30:	55558593          	addi	a1,a1,1365 # 55555555 <absimm+0x10263026>
    1c34:	40b50633          	sub	a2,a0,a1
    1c38:	4cc42223          	sw	a2,1220(s0)

00001c3c <inst_326>:
    1c3c:	00000513          	addi	a0,zero,0
    1c40:	aaaab5b7          	lui	a1,0xaaaab
    1c44:	aaa58593          	addi	a1,a1,-1366 # aaaaaaaa <absimm+0x657b857b>
    1c48:	40b50633          	sub	a2,a0,a1
    1c4c:	4cc42423          	sw	a2,1224(s0)

00001c50 <inst_327>:
    1c50:	00000513          	addi	a0,zero,0
    1c54:	00500593          	addi	a1,zero,5
    1c58:	40b50633          	sub	a2,a0,a1
    1c5c:	4cc42623          	sw	a2,1228(s0)

00001c60 <inst_328>:
    1c60:	00000513          	addi	a0,zero,0
    1c64:	333335b7          	lui	a1,0x33333
    1c68:	33358593          	addi	a1,a1,819 # 33333333 <_end+0x3332972b>
    1c6c:	40b50633          	sub	a2,a0,a1
    1c70:	4cc42823          	sw	a2,1232(s0)

00001c74 <inst_329>:
    1c74:	00000513          	addi	a0,zero,0
    1c78:	666665b7          	lui	a1,0x66666
    1c7c:	66658593          	addi	a1,a1,1638 # 66666666 <absimm+0x21374137>
    1c80:	40b50633          	sub	a2,a0,a1
    1c84:	4cc42a23          	sw	a2,1236(s0)

00001c88 <inst_330>:
    1c88:	00000513          	addi	a0,zero,0
    1c8c:	ffff55b7          	lui	a1,0xffff5
    1c90:	afc58593          	addi	a1,a1,-1284 # ffff4afc <immx+0x452e702c>
    1c94:	40b50633          	sub	a2,a0,a1
    1c98:	4cc42c23          	sw	a2,1240(s0)

00001c9c <inst_331>:
    1c9c:	00000513          	addi	a0,zero,0
    1ca0:	0000b5b7          	lui	a1,0xb
    1ca4:	50458593          	addi	a1,a1,1284 # b504 <_end+0x18fc>
    1ca8:	40b50633          	sub	a2,a0,a1
    1cac:	4cc42e23          	sw	a2,1244(s0)

00001cb0 <inst_332>:
    1cb0:	00000513          	addi	a0,zero,0
    1cb4:	00200593          	addi	a1,zero,2
    1cb8:	40b50633          	sub	a2,a0,a1
    1cbc:	4ec42023          	sw	a2,1248(s0)

00001cc0 <inst_333>:
    1cc0:	aaaab537          	lui	a0,0xaaaab
    1cc4:	aab50513          	addi	a0,a0,-1365 # aaaaaaab <absimm+0x657b857c>
    1cc8:	aaaab5b7          	lui	a1,0xaaaab
    1ccc:	aab58593          	addi	a1,a1,-1365 # aaaaaaab <absimm+0x657b857c>
    1cd0:	40b50633          	sub	a2,a0,a1
    1cd4:	4ec42223          	sw	a2,1252(s0)

00001cd8 <inst_334>:
    1cd8:	aaaab537          	lui	a0,0xaaaab
    1cdc:	aab50513          	addi	a0,a0,-1365 # aaaaaaab <absimm+0x657b857c>
    1ce0:	00600593          	addi	a1,zero,6
    1ce4:	40b50633          	sub	a2,a0,a1
    1ce8:	4ec42423          	sw	a2,1256(s0)

00001cec <inst_335>:
    1cec:	aaaab537          	lui	a0,0xaaaab
    1cf0:	aab50513          	addi	a0,a0,-1365 # aaaaaaab <absimm+0x657b857c>
    1cf4:	333335b7          	lui	a1,0x33333
    1cf8:	33458593          	addi	a1,a1,820 # 33333334 <_end+0x3332972c>
    1cfc:	40b50633          	sub	a2,a0,a1
    1d00:	4ec42623          	sw	a2,1260(s0)

00001d04 <inst_336>:
    1d04:	aaaab537          	lui	a0,0xaaaab
    1d08:	aab50513          	addi	a0,a0,-1365 # aaaaaaab <absimm+0x657b857c>
    1d0c:	666665b7          	lui	a1,0x66666
    1d10:	66758593          	addi	a1,a1,1639 # 66666667 <absimm+0x21374138>
    1d14:	40b50633          	sub	a2,a0,a1
    1d18:	4ec42823          	sw	a2,1264(s0)

00001d1c <inst_337>:
    1d1c:	aaaab537          	lui	a0,0xaaaab
    1d20:	aab50513          	addi	a0,a0,-1365 # aaaaaaab <absimm+0x657b857c>
    1d24:	ffff55b7          	lui	a1,0xffff5
    1d28:	afd58593          	addi	a1,a1,-1283 # ffff4afd <immx+0x452e702d>
    1d2c:	40b50633          	sub	a2,a0,a1
    1d30:	4ec42a23          	sw	a2,1268(s0)

00001d34 <inst_338>:
    1d34:	aaaab537          	lui	a0,0xaaaab
    1d38:	aab50513          	addi	a0,a0,-1365 # aaaaaaab <absimm+0x657b857c>
    1d3c:	0000b5b7          	lui	a1,0xb
    1d40:	50558593          	addi	a1,a1,1285 # b505 <_end+0x18fd>
    1d44:	40b50633          	sub	a2,a0,a1
    1d48:	4ec42c23          	sw	a2,1272(s0)

00001d4c <inst_339>:
    1d4c:	00600513          	addi	a0,zero,6
    1d50:	00300593          	addi	a1,zero,3
    1d54:	40b50633          	sub	a2,a0,a1
    1d58:	4ec42e23          	sw	a2,1276(s0)

00001d5c <inst_340>:
    1d5c:	00600513          	addi	a0,zero,6
    1d60:	555555b7          	lui	a1,0x55555
    1d64:	55558593          	addi	a1,a1,1365 # 55555555 <absimm+0x10263026>
    1d68:	40b50633          	sub	a2,a0,a1
    1d6c:	50c42023          	sw	a2,1280(s0)

00001d70 <inst_341>:
    1d70:	00600513          	addi	a0,zero,6
    1d74:	aaaab5b7          	lui	a1,0xaaaab
    1d78:	aaa58593          	addi	a1,a1,-1366 # aaaaaaaa <absimm+0x657b857b>
    1d7c:	40b50633          	sub	a2,a0,a1
    1d80:	50c42223          	sw	a2,1284(s0)

00001d84 <inst_342>:
    1d84:	00600513          	addi	a0,zero,6
    1d88:	00500593          	addi	a1,zero,5
    1d8c:	40b50633          	sub	a2,a0,a1
    1d90:	50c42423          	sw	a2,1288(s0)

00001d94 <inst_343>:
    1d94:	00600513          	addi	a0,zero,6
    1d98:	333335b7          	lui	a1,0x33333
    1d9c:	33358593          	addi	a1,a1,819 # 33333333 <_end+0x3332972b>
    1da0:	40b50633          	sub	a2,a0,a1
    1da4:	50c42623          	sw	a2,1292(s0)

00001da8 <inst_344>:
    1da8:	00600513          	addi	a0,zero,6
    1dac:	666665b7          	lui	a1,0x66666
    1db0:	66658593          	addi	a1,a1,1638 # 66666666 <absimm+0x21374137>
    1db4:	40b50633          	sub	a2,a0,a1
    1db8:	50c42823          	sw	a2,1296(s0)

00001dbc <inst_345>:
    1dbc:	00600513          	addi	a0,zero,6
    1dc0:	ffff55b7          	lui	a1,0xffff5
    1dc4:	afc58593          	addi	a1,a1,-1284 # ffff4afc <immx+0x452e702c>
    1dc8:	40b50633          	sub	a2,a0,a1
    1dcc:	50c42a23          	sw	a2,1300(s0)

00001dd0 <inst_346>:
    1dd0:	00600513          	addi	a0,zero,6
    1dd4:	0000b5b7          	lui	a1,0xb
    1dd8:	50458593          	addi	a1,a1,1284 # b504 <_end+0x18fc>
    1ddc:	40b50633          	sub	a2,a0,a1
    1de0:	50c42c23          	sw	a2,1304(s0)

00001de4 <inst_347>:
    1de4:	00600513          	addi	a0,zero,6
    1de8:	00200593          	addi	a1,zero,2
    1dec:	40b50633          	sub	a2,a0,a1
    1df0:	50c42e23          	sw	a2,1308(s0)

00001df4 <inst_348>:
    1df4:	00600513          	addi	a0,zero,6
    1df8:	555555b7          	lui	a1,0x55555
    1dfc:	55458593          	addi	a1,a1,1364 # 55555554 <absimm+0x10263025>
    1e00:	40b50633          	sub	a2,a0,a1
    1e04:	52c42023          	sw	a2,1312(s0)

00001e08 <inst_349>:
    1e08:	00600513          	addi	a0,zero,6
    1e0c:	00000593          	addi	a1,zero,0
    1e10:	40b50633          	sub	a2,a0,a1
    1e14:	52c42223          	sw	a2,1316(s0)

00001e18 <inst_350>:
    1e18:	00600513          	addi	a0,zero,6
    1e1c:	00400593          	addi	a1,zero,4
    1e20:	40b50633          	sub	a2,a0,a1
    1e24:	52c42423          	sw	a2,1320(s0)

00001e28 <inst_351>:
    1e28:	00600513          	addi	a0,zero,6
    1e2c:	333335b7          	lui	a1,0x33333
    1e30:	33258593          	addi	a1,a1,818 # 33333332 <_end+0x3332972a>
    1e34:	40b50633          	sub	a2,a0,a1
    1e38:	52c42623          	sw	a2,1324(s0)

00001e3c <inst_352>:
    1e3c:	00600513          	addi	a0,zero,6
    1e40:	666665b7          	lui	a1,0x66666
    1e44:	66558593          	addi	a1,a1,1637 # 66666665 <absimm+0x21374136>
    1e48:	40b50633          	sub	a2,a0,a1
    1e4c:	52c42823          	sw	a2,1328(s0)

00001e50 <inst_353>:
    1e50:	00600513          	addi	a0,zero,6
    1e54:	0000b5b7          	lui	a1,0xb
    1e58:	50358593          	addi	a1,a1,1283 # b503 <_end+0x18fb>
    1e5c:	40b50633          	sub	a2,a0,a1
    1e60:	52c42a23          	sw	a2,1332(s0)

00001e64 <inst_354>:
    1e64:	00600513          	addi	a0,zero,6
    1e68:	555555b7          	lui	a1,0x55555
    1e6c:	55658593          	addi	a1,a1,1366 # 55555556 <absimm+0x10263027>
    1e70:	40b50633          	sub	a2,a0,a1
    1e74:	52c42c23          	sw	a2,1336(s0)

00001e78 <inst_355>:
    1e78:	00600513          	addi	a0,zero,6
    1e7c:	aaaab5b7          	lui	a1,0xaaaab
    1e80:	aab58593          	addi	a1,a1,-1365 # aaaaaaab <absimm+0x657b857c>
    1e84:	40b50633          	sub	a2,a0,a1
    1e88:	52c42e23          	sw	a2,1340(s0)

00001e8c <inst_356>:
    1e8c:	00600513          	addi	a0,zero,6
    1e90:	00600593          	addi	a1,zero,6
    1e94:	40b50633          	sub	a2,a0,a1
    1e98:	54c42023          	sw	a2,1344(s0)

00001e9c <inst_357>:
    1e9c:	00600513          	addi	a0,zero,6
    1ea0:	333335b7          	lui	a1,0x33333
    1ea4:	33458593          	addi	a1,a1,820 # 33333334 <_end+0x3332972c>
    1ea8:	40b50633          	sub	a2,a0,a1
    1eac:	54c42223          	sw	a2,1348(s0)

00001eb0 <inst_358>:
    1eb0:	00600513          	addi	a0,zero,6
    1eb4:	666665b7          	lui	a1,0x66666
    1eb8:	66758593          	addi	a1,a1,1639 # 66666667 <absimm+0x21374138>
    1ebc:	40b50633          	sub	a2,a0,a1
    1ec0:	54c42423          	sw	a2,1352(s0)

00001ec4 <inst_359>:
    1ec4:	00600513          	addi	a0,zero,6
    1ec8:	ffff55b7          	lui	a1,0xffff5
    1ecc:	afd58593          	addi	a1,a1,-1283 # ffff4afd <immx+0x452e702d>
    1ed0:	40b50633          	sub	a2,a0,a1
    1ed4:	54c42623          	sw	a2,1356(s0)

00001ed8 <inst_360>:
    1ed8:	00600513          	addi	a0,zero,6
    1edc:	0000b5b7          	lui	a1,0xb
    1ee0:	50558593          	addi	a1,a1,1285 # b505 <_end+0x18fd>
    1ee4:	40b50633          	sub	a2,a0,a1
    1ee8:	54c42823          	sw	a2,1360(s0)

00001eec <inst_361>:
    1eec:	33333537          	lui	a0,0x33333
    1ef0:	33450513          	addi	a0,a0,820 # 33333334 <_end+0x3332972c>
    1ef4:	00300593          	addi	a1,zero,3
    1ef8:	40b50633          	sub	a2,a0,a1
    1efc:	54c42a23          	sw	a2,1364(s0)

00001f00 <inst_362>:
    1f00:	33333537          	lui	a0,0x33333
    1f04:	33450513          	addi	a0,a0,820 # 33333334 <_end+0x3332972c>
    1f08:	555555b7          	lui	a1,0x55555
    1f0c:	55558593          	addi	a1,a1,1365 # 55555555 <absimm+0x10263026>
    1f10:	40b50633          	sub	a2,a0,a1
    1f14:	54c42c23          	sw	a2,1368(s0)

00001f18 <inst_363>:
    1f18:	33333537          	lui	a0,0x33333
    1f1c:	33450513          	addi	a0,a0,820 # 33333334 <_end+0x3332972c>
    1f20:	aaaab5b7          	lui	a1,0xaaaab
    1f24:	aaa58593          	addi	a1,a1,-1366 # aaaaaaaa <absimm+0x657b857b>
    1f28:	40b50633          	sub	a2,a0,a1
    1f2c:	54c42e23          	sw	a2,1372(s0)

00001f30 <inst_364>:
    1f30:	33333537          	lui	a0,0x33333
    1f34:	33450513          	addi	a0,a0,820 # 33333334 <_end+0x3332972c>
    1f38:	00500593          	addi	a1,zero,5
    1f3c:	40b50633          	sub	a2,a0,a1
    1f40:	56c42023          	sw	a2,1376(s0)

00001f44 <inst_365>:
    1f44:	33333537          	lui	a0,0x33333
    1f48:	33450513          	addi	a0,a0,820 # 33333334 <_end+0x3332972c>
    1f4c:	333335b7          	lui	a1,0x33333
    1f50:	33358593          	addi	a1,a1,819 # 33333333 <_end+0x3332972b>
    1f54:	40b50633          	sub	a2,a0,a1
    1f58:	56c42223          	sw	a2,1380(s0)

00001f5c <inst_366>:
    1f5c:	33333537          	lui	a0,0x33333
    1f60:	33450513          	addi	a0,a0,820 # 33333334 <_end+0x3332972c>
    1f64:	666665b7          	lui	a1,0x66666
    1f68:	66658593          	addi	a1,a1,1638 # 66666666 <absimm+0x21374137>
    1f6c:	40b50633          	sub	a2,a0,a1
    1f70:	56c42423          	sw	a2,1384(s0)

00001f74 <inst_367>:
    1f74:	33333537          	lui	a0,0x33333
    1f78:	33450513          	addi	a0,a0,820 # 33333334 <_end+0x3332972c>
    1f7c:	ffff55b7          	lui	a1,0xffff5
    1f80:	afc58593          	addi	a1,a1,-1284 # ffff4afc <immx+0x452e702c>
    1f84:	40b50633          	sub	a2,a0,a1
    1f88:	56c42623          	sw	a2,1388(s0)

00001f8c <inst_368>:
    1f8c:	33333537          	lui	a0,0x33333
    1f90:	33450513          	addi	a0,a0,820 # 33333334 <_end+0x3332972c>
    1f94:	0000b5b7          	lui	a1,0xb
    1f98:	50458593          	addi	a1,a1,1284 # b504 <_end+0x18fc>
    1f9c:	40b50633          	sub	a2,a0,a1
    1fa0:	56c42823          	sw	a2,1392(s0)

00001fa4 <inst_369>:
    1fa4:	33333537          	lui	a0,0x33333
    1fa8:	33450513          	addi	a0,a0,820 # 33333334 <_end+0x3332972c>
    1fac:	00200593          	addi	a1,zero,2
    1fb0:	40b50633          	sub	a2,a0,a1
    1fb4:	56c42a23          	sw	a2,1396(s0)

00001fb8 <inst_370>:
    1fb8:	33333537          	lui	a0,0x33333
    1fbc:	33450513          	addi	a0,a0,820 # 33333334 <_end+0x3332972c>
    1fc0:	555555b7          	lui	a1,0x55555
    1fc4:	55458593          	addi	a1,a1,1364 # 55555554 <absimm+0x10263025>
    1fc8:	40b50633          	sub	a2,a0,a1
    1fcc:	56c42c23          	sw	a2,1400(s0)

00001fd0 <inst_371>:
    1fd0:	33333537          	lui	a0,0x33333
    1fd4:	33450513          	addi	a0,a0,820 # 33333334 <_end+0x3332972c>
    1fd8:	00000593          	addi	a1,zero,0
    1fdc:	40b50633          	sub	a2,a0,a1
    1fe0:	56c42e23          	sw	a2,1404(s0)

00001fe4 <inst_372>:
    1fe4:	33333537          	lui	a0,0x33333
    1fe8:	33450513          	addi	a0,a0,820 # 33333334 <_end+0x3332972c>
    1fec:	00400593          	addi	a1,zero,4
    1ff0:	40b50633          	sub	a2,a0,a1
    1ff4:	58c42023          	sw	a2,1408(s0)

00001ff8 <inst_373>:
    1ff8:	33333537          	lui	a0,0x33333
    1ffc:	33450513          	addi	a0,a0,820 # 33333334 <_end+0x3332972c>
    2000:	333335b7          	lui	a1,0x33333
    2004:	33258593          	addi	a1,a1,818 # 33333332 <_end+0x3332972a>
    2008:	40b50633          	sub	a2,a0,a1
    200c:	58c42223          	sw	a2,1412(s0)

00002010 <inst_374>:
    2010:	33333537          	lui	a0,0x33333
    2014:	33450513          	addi	a0,a0,820 # 33333334 <_end+0x3332972c>
    2018:	666665b7          	lui	a1,0x66666
    201c:	66558593          	addi	a1,a1,1637 # 66666665 <absimm+0x21374136>
    2020:	40b50633          	sub	a2,a0,a1
    2024:	58c42423          	sw	a2,1416(s0)

00002028 <inst_375>:
    2028:	33333537          	lui	a0,0x33333
    202c:	33450513          	addi	a0,a0,820 # 33333334 <_end+0x3332972c>
    2030:	0000b5b7          	lui	a1,0xb
    2034:	50358593          	addi	a1,a1,1283 # b503 <_end+0x18fb>
    2038:	40b50633          	sub	a2,a0,a1
    203c:	58c42623          	sw	a2,1420(s0)

00002040 <inst_376>:
    2040:	33333537          	lui	a0,0x33333
    2044:	33450513          	addi	a0,a0,820 # 33333334 <_end+0x3332972c>
    2048:	555555b7          	lui	a1,0x55555
    204c:	55658593          	addi	a1,a1,1366 # 55555556 <absimm+0x10263027>
    2050:	40b50633          	sub	a2,a0,a1
    2054:	58c42823          	sw	a2,1424(s0)

00002058 <inst_377>:
    2058:	33333537          	lui	a0,0x33333
    205c:	33450513          	addi	a0,a0,820 # 33333334 <_end+0x3332972c>
    2060:	aaaab5b7          	lui	a1,0xaaaab
    2064:	aab58593          	addi	a1,a1,-1365 # aaaaaaab <absimm+0x657b857c>
    2068:	40b50633          	sub	a2,a0,a1
    206c:	58c42a23          	sw	a2,1428(s0)

00002070 <inst_378>:
    2070:	33333537          	lui	a0,0x33333
    2074:	33450513          	addi	a0,a0,820 # 33333334 <_end+0x3332972c>
    2078:	00600593          	addi	a1,zero,6
    207c:	40b50633          	sub	a2,a0,a1
    2080:	58c42c23          	sw	a2,1432(s0)

00002084 <inst_379>:
    2084:	33333537          	lui	a0,0x33333
    2088:	33450513          	addi	a0,a0,820 # 33333334 <_end+0x3332972c>
    208c:	333335b7          	lui	a1,0x33333
    2090:	33458593          	addi	a1,a1,820 # 33333334 <_end+0x3332972c>
    2094:	40b50633          	sub	a2,a0,a1
    2098:	58c42e23          	sw	a2,1436(s0)

0000209c <inst_380>:
    209c:	33333537          	lui	a0,0x33333
    20a0:	33450513          	addi	a0,a0,820 # 33333334 <_end+0x3332972c>
    20a4:	666665b7          	lui	a1,0x66666
    20a8:	66758593          	addi	a1,a1,1639 # 66666667 <absimm+0x21374138>
    20ac:	40b50633          	sub	a2,a0,a1
    20b0:	5ac42023          	sw	a2,1440(s0)

000020b4 <inst_381>:
    20b4:	33333537          	lui	a0,0x33333
    20b8:	33450513          	addi	a0,a0,820 # 33333334 <_end+0x3332972c>
    20bc:	ffff55b7          	lui	a1,0xffff5
    20c0:	afd58593          	addi	a1,a1,-1283 # ffff4afd <immx+0x452e702d>
    20c4:	40b50633          	sub	a2,a0,a1
    20c8:	5ac42223          	sw	a2,1444(s0)

000020cc <inst_382>:
    20cc:	33333537          	lui	a0,0x33333
    20d0:	33450513          	addi	a0,a0,820 # 33333334 <_end+0x3332972c>
    20d4:	0000b5b7          	lui	a1,0xb
    20d8:	50558593          	addi	a1,a1,1285 # b505 <_end+0x18fd>
    20dc:	40b50633          	sub	a2,a0,a1
    20e0:	5ac42423          	sw	a2,1448(s0)

000020e4 <inst_383>:
    20e4:	66666537          	lui	a0,0x66666
    20e8:	66750513          	addi	a0,a0,1639 # 66666667 <absimm+0x21374138>
    20ec:	00300593          	addi	a1,zero,3
    20f0:	40b50633          	sub	a2,a0,a1
    20f4:	5ac42623          	sw	a2,1452(s0)

000020f8 <inst_384>:
    20f8:	66666537          	lui	a0,0x66666
    20fc:	66750513          	addi	a0,a0,1639 # 66666667 <absimm+0x21374138>
    2100:	555555b7          	lui	a1,0x55555
    2104:	55558593          	addi	a1,a1,1365 # 55555555 <absimm+0x10263026>
    2108:	40b50633          	sub	a2,a0,a1
    210c:	5ac42823          	sw	a2,1456(s0)

00002110 <inst_385>:
    2110:	66666537          	lui	a0,0x66666
    2114:	66750513          	addi	a0,a0,1639 # 66666667 <absimm+0x21374138>
    2118:	aaaab5b7          	lui	a1,0xaaaab
    211c:	aaa58593          	addi	a1,a1,-1366 # aaaaaaaa <absimm+0x657b857b>
    2120:	40b50633          	sub	a2,a0,a1
    2124:	5ac42a23          	sw	a2,1460(s0)

00002128 <inst_386>:
    2128:	66666537          	lui	a0,0x66666
    212c:	66750513          	addi	a0,a0,1639 # 66666667 <absimm+0x21374138>
    2130:	00500593          	addi	a1,zero,5
    2134:	40b50633          	sub	a2,a0,a1
    2138:	5ac42c23          	sw	a2,1464(s0)

0000213c <inst_387>:
    213c:	66666537          	lui	a0,0x66666
    2140:	66750513          	addi	a0,a0,1639 # 66666667 <absimm+0x21374138>
    2144:	333335b7          	lui	a1,0x33333
    2148:	33358593          	addi	a1,a1,819 # 33333333 <_end+0x3332972b>
    214c:	40b50633          	sub	a2,a0,a1
    2150:	5ac42e23          	sw	a2,1468(s0)

00002154 <inst_388>:
    2154:	66666537          	lui	a0,0x66666
    2158:	66750513          	addi	a0,a0,1639 # 66666667 <absimm+0x21374138>
    215c:	666665b7          	lui	a1,0x66666
    2160:	66658593          	addi	a1,a1,1638 # 66666666 <absimm+0x21374137>
    2164:	40b50633          	sub	a2,a0,a1
    2168:	5cc42023          	sw	a2,1472(s0)

0000216c <inst_389>:
    216c:	66666537          	lui	a0,0x66666
    2170:	66750513          	addi	a0,a0,1639 # 66666667 <absimm+0x21374138>
    2174:	ffff55b7          	lui	a1,0xffff5
    2178:	afc58593          	addi	a1,a1,-1284 # ffff4afc <immx+0x452e702c>
    217c:	40b50633          	sub	a2,a0,a1
    2180:	5cc42223          	sw	a2,1476(s0)

00002184 <inst_390>:
    2184:	66666537          	lui	a0,0x66666
    2188:	66750513          	addi	a0,a0,1639 # 66666667 <absimm+0x21374138>
    218c:	0000b5b7          	lui	a1,0xb
    2190:	50458593          	addi	a1,a1,1284 # b504 <_end+0x18fc>
    2194:	40b50633          	sub	a2,a0,a1
    2198:	5cc42423          	sw	a2,1480(s0)

0000219c <inst_391>:
    219c:	66666537          	lui	a0,0x66666
    21a0:	66750513          	addi	a0,a0,1639 # 66666667 <absimm+0x21374138>
    21a4:	00200593          	addi	a1,zero,2
    21a8:	40b50633          	sub	a2,a0,a1
    21ac:	5cc42623          	sw	a2,1484(s0)

000021b0 <inst_392>:
    21b0:	66666537          	lui	a0,0x66666
    21b4:	66750513          	addi	a0,a0,1639 # 66666667 <absimm+0x21374138>
    21b8:	555555b7          	lui	a1,0x55555
    21bc:	55458593          	addi	a1,a1,1364 # 55555554 <absimm+0x10263025>
    21c0:	40b50633          	sub	a2,a0,a1
    21c4:	5cc42823          	sw	a2,1488(s0)

000021c8 <inst_393>:
    21c8:	66666537          	lui	a0,0x66666
    21cc:	66750513          	addi	a0,a0,1639 # 66666667 <absimm+0x21374138>
    21d0:	00000593          	addi	a1,zero,0
    21d4:	40b50633          	sub	a2,a0,a1
    21d8:	5cc42a23          	sw	a2,1492(s0)

000021dc <inst_394>:
    21dc:	66666537          	lui	a0,0x66666
    21e0:	66750513          	addi	a0,a0,1639 # 66666667 <absimm+0x21374138>
    21e4:	00400593          	addi	a1,zero,4
    21e8:	40b50633          	sub	a2,a0,a1
    21ec:	5cc42c23          	sw	a2,1496(s0)

000021f0 <inst_395>:
    21f0:	66666537          	lui	a0,0x66666
    21f4:	66750513          	addi	a0,a0,1639 # 66666667 <absimm+0x21374138>
    21f8:	333335b7          	lui	a1,0x33333
    21fc:	33258593          	addi	a1,a1,818 # 33333332 <_end+0x3332972a>
    2200:	40b50633          	sub	a2,a0,a1
    2204:	5cc42e23          	sw	a2,1500(s0)

00002208 <inst_396>:
    2208:	66666537          	lui	a0,0x66666
    220c:	66750513          	addi	a0,a0,1639 # 66666667 <absimm+0x21374138>
    2210:	666665b7          	lui	a1,0x66666
    2214:	66558593          	addi	a1,a1,1637 # 66666665 <absimm+0x21374136>
    2218:	40b50633          	sub	a2,a0,a1
    221c:	5ec42023          	sw	a2,1504(s0)

00002220 <inst_397>:
    2220:	66666537          	lui	a0,0x66666
    2224:	66750513          	addi	a0,a0,1639 # 66666667 <absimm+0x21374138>
    2228:	0000b5b7          	lui	a1,0xb
    222c:	50358593          	addi	a1,a1,1283 # b503 <_end+0x18fb>
    2230:	40b50633          	sub	a2,a0,a1
    2234:	5ec42223          	sw	a2,1508(s0)

00002238 <inst_398>:
    2238:	66666537          	lui	a0,0x66666
    223c:	66750513          	addi	a0,a0,1639 # 66666667 <absimm+0x21374138>
    2240:	555555b7          	lui	a1,0x55555
    2244:	55658593          	addi	a1,a1,1366 # 55555556 <absimm+0x10263027>
    2248:	40b50633          	sub	a2,a0,a1
    224c:	5ec42423          	sw	a2,1512(s0)

00002250 <inst_399>:
    2250:	66666537          	lui	a0,0x66666
    2254:	66750513          	addi	a0,a0,1639 # 66666667 <absimm+0x21374138>
    2258:	aaaab5b7          	lui	a1,0xaaaab
    225c:	aab58593          	addi	a1,a1,-1365 # aaaaaaab <absimm+0x657b857c>
    2260:	40b50633          	sub	a2,a0,a1
    2264:	5ec42623          	sw	a2,1516(s0)

00002268 <inst_400>:
    2268:	66666537          	lui	a0,0x66666
    226c:	66750513          	addi	a0,a0,1639 # 66666667 <absimm+0x21374138>
    2270:	00600593          	addi	a1,zero,6
    2274:	40b50633          	sub	a2,a0,a1
    2278:	5ec42823          	sw	a2,1520(s0)

0000227c <inst_401>:
    227c:	66666537          	lui	a0,0x66666
    2280:	66750513          	addi	a0,a0,1639 # 66666667 <absimm+0x21374138>
    2284:	333335b7          	lui	a1,0x33333
    2288:	33458593          	addi	a1,a1,820 # 33333334 <_end+0x3332972c>
    228c:	40b50633          	sub	a2,a0,a1
    2290:	5ec42a23          	sw	a2,1524(s0)

00002294 <inst_402>:
    2294:	66666537          	lui	a0,0x66666
    2298:	66750513          	addi	a0,a0,1639 # 66666667 <absimm+0x21374138>
    229c:	666665b7          	lui	a1,0x66666
    22a0:	66758593          	addi	a1,a1,1639 # 66666667 <absimm+0x21374138>
    22a4:	40b50633          	sub	a2,a0,a1
    22a8:	5ec42c23          	sw	a2,1528(s0)

000022ac <inst_403>:
    22ac:	66666537          	lui	a0,0x66666
    22b0:	66750513          	addi	a0,a0,1639 # 66666667 <absimm+0x21374138>
    22b4:	ffff55b7          	lui	a1,0xffff5
    22b8:	afd58593          	addi	a1,a1,-1283 # ffff4afd <immx+0x452e702d>
    22bc:	40b50633          	sub	a2,a0,a1
    22c0:	5ec42e23          	sw	a2,1532(s0)

000022c4 <inst_404>:
    22c4:	66666537          	lui	a0,0x66666
    22c8:	66750513          	addi	a0,a0,1639 # 66666667 <absimm+0x21374138>
    22cc:	0000b5b7          	lui	a1,0xb
    22d0:	50558593          	addi	a1,a1,1285 # b505 <_end+0x18fd>
    22d4:	40b50633          	sub	a2,a0,a1
    22d8:	60c42023          	sw	a2,1536(s0)

000022dc <inst_405>:
    22dc:	ffff5537          	lui	a0,0xffff5
    22e0:	afd50513          	addi	a0,a0,-1283 # ffff4afd <immx+0x452e702d>
    22e4:	00300593          	addi	a1,zero,3
    22e8:	40b50633          	sub	a2,a0,a1
    22ec:	60c42223          	sw	a2,1540(s0)

000022f0 <inst_406>:
    22f0:	ffff5537          	lui	a0,0xffff5
    22f4:	afd50513          	addi	a0,a0,-1283 # ffff4afd <immx+0x452e702d>
    22f8:	555555b7          	lui	a1,0x55555
    22fc:	55558593          	addi	a1,a1,1365 # 55555555 <absimm+0x10263026>
    2300:	40b50633          	sub	a2,a0,a1
    2304:	60c42423          	sw	a2,1544(s0)

00002308 <inst_407>:
    2308:	ffff5537          	lui	a0,0xffff5
    230c:	afd50513          	addi	a0,a0,-1283 # ffff4afd <immx+0x452e702d>
    2310:	aaaab5b7          	lui	a1,0xaaaab
    2314:	aaa58593          	addi	a1,a1,-1366 # aaaaaaaa <absimm+0x657b857b>
    2318:	40b50633          	sub	a2,a0,a1
    231c:	60c42623          	sw	a2,1548(s0)

00002320 <inst_408>:
    2320:	ffff5537          	lui	a0,0xffff5
    2324:	afd50513          	addi	a0,a0,-1283 # ffff4afd <immx+0x452e702d>
    2328:	00500593          	addi	a1,zero,5
    232c:	40b50633          	sub	a2,a0,a1
    2330:	60c42823          	sw	a2,1552(s0)

00002334 <inst_409>:
    2334:	ffff5537          	lui	a0,0xffff5
    2338:	afd50513          	addi	a0,a0,-1283 # ffff4afd <immx+0x452e702d>
    233c:	333335b7          	lui	a1,0x33333
    2340:	33358593          	addi	a1,a1,819 # 33333333 <_end+0x3332972b>
    2344:	40b50633          	sub	a2,a0,a1
    2348:	60c42a23          	sw	a2,1556(s0)

0000234c <inst_410>:
    234c:	ffff5537          	lui	a0,0xffff5
    2350:	afd50513          	addi	a0,a0,-1283 # ffff4afd <immx+0x452e702d>
    2354:	666665b7          	lui	a1,0x66666
    2358:	66658593          	addi	a1,a1,1638 # 66666666 <absimm+0x21374137>
    235c:	40b50633          	sub	a2,a0,a1
    2360:	60c42c23          	sw	a2,1560(s0)

00002364 <inst_411>:
    2364:	ffff5537          	lui	a0,0xffff5
    2368:	afd50513          	addi	a0,a0,-1283 # ffff4afd <immx+0x452e702d>
    236c:	ffff55b7          	lui	a1,0xffff5
    2370:	afc58593          	addi	a1,a1,-1284 # ffff4afc <immx+0x452e702c>
    2374:	40b50633          	sub	a2,a0,a1
    2378:	60c42e23          	sw	a2,1564(s0)

0000237c <inst_412>:
    237c:	ffff5537          	lui	a0,0xffff5
    2380:	afd50513          	addi	a0,a0,-1283 # ffff4afd <immx+0x452e702d>
    2384:	0000b5b7          	lui	a1,0xb
    2388:	50458593          	addi	a1,a1,1284 # b504 <_end+0x18fc>
    238c:	40b50633          	sub	a2,a0,a1
    2390:	62c42023          	sw	a2,1568(s0)

00002394 <inst_413>:
    2394:	ffff5537          	lui	a0,0xffff5
    2398:	afd50513          	addi	a0,a0,-1283 # ffff4afd <immx+0x452e702d>
    239c:	00200593          	addi	a1,zero,2
    23a0:	40b50633          	sub	a2,a0,a1
    23a4:	62c42223          	sw	a2,1572(s0)

000023a8 <inst_414>:
    23a8:	ffff5537          	lui	a0,0xffff5
    23ac:	afd50513          	addi	a0,a0,-1283 # ffff4afd <immx+0x452e702d>
    23b0:	555555b7          	lui	a1,0x55555
    23b4:	55458593          	addi	a1,a1,1364 # 55555554 <absimm+0x10263025>
    23b8:	40b50633          	sub	a2,a0,a1
    23bc:	62c42423          	sw	a2,1576(s0)

000023c0 <inst_415>:
    23c0:	ffff5537          	lui	a0,0xffff5
    23c4:	afd50513          	addi	a0,a0,-1283 # ffff4afd <immx+0x452e702d>
    23c8:	00000593          	addi	a1,zero,0
    23cc:	40b50633          	sub	a2,a0,a1
    23d0:	62c42623          	sw	a2,1580(s0)

000023d4 <inst_416>:
    23d4:	ffff5537          	lui	a0,0xffff5
    23d8:	afd50513          	addi	a0,a0,-1283 # ffff4afd <immx+0x452e702d>
    23dc:	00400593          	addi	a1,zero,4
    23e0:	40b50633          	sub	a2,a0,a1
    23e4:	62c42823          	sw	a2,1584(s0)

000023e8 <inst_417>:
    23e8:	ffff5537          	lui	a0,0xffff5
    23ec:	afd50513          	addi	a0,a0,-1283 # ffff4afd <immx+0x452e702d>
    23f0:	333335b7          	lui	a1,0x33333
    23f4:	33258593          	addi	a1,a1,818 # 33333332 <_end+0x3332972a>
    23f8:	40b50633          	sub	a2,a0,a1
    23fc:	62c42a23          	sw	a2,1588(s0)

00002400 <inst_418>:
    2400:	ffff5537          	lui	a0,0xffff5
    2404:	afd50513          	addi	a0,a0,-1283 # ffff4afd <immx+0x452e702d>
    2408:	666665b7          	lui	a1,0x66666
    240c:	66558593          	addi	a1,a1,1637 # 66666665 <absimm+0x21374136>
    2410:	40b50633          	sub	a2,a0,a1
    2414:	62c42c23          	sw	a2,1592(s0)

00002418 <inst_419>:
    2418:	ffff5537          	lui	a0,0xffff5
    241c:	afd50513          	addi	a0,a0,-1283 # ffff4afd <immx+0x452e702d>
    2420:	0000b5b7          	lui	a1,0xb
    2424:	50358593          	addi	a1,a1,1283 # b503 <_end+0x18fb>
    2428:	40b50633          	sub	a2,a0,a1
    242c:	62c42e23          	sw	a2,1596(s0)

00002430 <inst_420>:
    2430:	ffff5537          	lui	a0,0xffff5
    2434:	afd50513          	addi	a0,a0,-1283 # ffff4afd <immx+0x452e702d>
    2438:	555555b7          	lui	a1,0x55555
    243c:	55658593          	addi	a1,a1,1366 # 55555556 <absimm+0x10263027>
    2440:	40b50633          	sub	a2,a0,a1
    2444:	64c42023          	sw	a2,1600(s0)

00002448 <inst_421>:
    2448:	ffff5537          	lui	a0,0xffff5
    244c:	afd50513          	addi	a0,a0,-1283 # ffff4afd <immx+0x452e702d>
    2450:	aaaab5b7          	lui	a1,0xaaaab
    2454:	aab58593          	addi	a1,a1,-1365 # aaaaaaab <absimm+0x657b857c>
    2458:	40b50633          	sub	a2,a0,a1
    245c:	64c42223          	sw	a2,1604(s0)

00002460 <inst_422>:
    2460:	ffff5537          	lui	a0,0xffff5
    2464:	afd50513          	addi	a0,a0,-1283 # ffff4afd <immx+0x452e702d>
    2468:	00600593          	addi	a1,zero,6
    246c:	40b50633          	sub	a2,a0,a1
    2470:	64c42423          	sw	a2,1608(s0)

00002474 <inst_423>:
    2474:	ffff5537          	lui	a0,0xffff5
    2478:	afd50513          	addi	a0,a0,-1283 # ffff4afd <immx+0x452e702d>
    247c:	333335b7          	lui	a1,0x33333
    2480:	33458593          	addi	a1,a1,820 # 33333334 <_end+0x3332972c>
    2484:	40b50633          	sub	a2,a0,a1
    2488:	64c42623          	sw	a2,1612(s0)

0000248c <inst_424>:
    248c:	ffff5537          	lui	a0,0xffff5
    2490:	afd50513          	addi	a0,a0,-1283 # ffff4afd <immx+0x452e702d>
    2494:	666665b7          	lui	a1,0x66666
    2498:	66758593          	addi	a1,a1,1639 # 66666667 <absimm+0x21374138>
    249c:	40b50633          	sub	a2,a0,a1
    24a0:	64c42823          	sw	a2,1616(s0)

000024a4 <inst_425>:
    24a4:	ffff5537          	lui	a0,0xffff5
    24a8:	afd50513          	addi	a0,a0,-1283 # ffff4afd <immx+0x452e702d>
    24ac:	ffff55b7          	lui	a1,0xffff5
    24b0:	afd58593          	addi	a1,a1,-1283 # ffff4afd <immx+0x452e702d>
    24b4:	40b50633          	sub	a2,a0,a1
    24b8:	64c42a23          	sw	a2,1620(s0)

000024bc <inst_426>:
    24bc:	ffff5537          	lui	a0,0xffff5
    24c0:	afd50513          	addi	a0,a0,-1283 # ffff4afd <immx+0x452e702d>
    24c4:	0000b5b7          	lui	a1,0xb
    24c8:	50558593          	addi	a1,a1,1285 # b505 <_end+0x18fd>
    24cc:	40b50633          	sub	a2,a0,a1
    24d0:	64c42c23          	sw	a2,1624(s0)

000024d4 <inst_427>:
    24d4:	0000b537          	lui	a0,0xb
    24d8:	50550513          	addi	a0,a0,1285 # b505 <_end+0x18fd>
    24dc:	00300593          	addi	a1,zero,3
    24e0:	40b50633          	sub	a2,a0,a1
    24e4:	64c42e23          	sw	a2,1628(s0)

000024e8 <inst_428>:
    24e8:	0000b537          	lui	a0,0xb
    24ec:	50550513          	addi	a0,a0,1285 # b505 <_end+0x18fd>
    24f0:	555555b7          	lui	a1,0x55555
    24f4:	55558593          	addi	a1,a1,1365 # 55555555 <absimm+0x10263026>
    24f8:	40b50633          	sub	a2,a0,a1
    24fc:	66c42023          	sw	a2,1632(s0)

00002500 <inst_429>:
    2500:	0000b537          	lui	a0,0xb
    2504:	50550513          	addi	a0,a0,1285 # b505 <_end+0x18fd>
    2508:	aaaab5b7          	lui	a1,0xaaaab
    250c:	aaa58593          	addi	a1,a1,-1366 # aaaaaaaa <absimm+0x657b857b>
    2510:	40b50633          	sub	a2,a0,a1
    2514:	66c42223          	sw	a2,1636(s0)

00002518 <inst_430>:
    2518:	0000b537          	lui	a0,0xb
    251c:	50550513          	addi	a0,a0,1285 # b505 <_end+0x18fd>
    2520:	00500593          	addi	a1,zero,5
    2524:	40b50633          	sub	a2,a0,a1
    2528:	66c42423          	sw	a2,1640(s0)

0000252c <inst_431>:
    252c:	0000b537          	lui	a0,0xb
    2530:	50550513          	addi	a0,a0,1285 # b505 <_end+0x18fd>
    2534:	333335b7          	lui	a1,0x33333
    2538:	33358593          	addi	a1,a1,819 # 33333333 <_end+0x3332972b>
    253c:	40b50633          	sub	a2,a0,a1
    2540:	66c42623          	sw	a2,1644(s0)

00002544 <inst_432>:
    2544:	0000b537          	lui	a0,0xb
    2548:	50550513          	addi	a0,a0,1285 # b505 <_end+0x18fd>
    254c:	666665b7          	lui	a1,0x66666
    2550:	66658593          	addi	a1,a1,1638 # 66666666 <absimm+0x21374137>
    2554:	40b50633          	sub	a2,a0,a1
    2558:	66c42823          	sw	a2,1648(s0)

0000255c <inst_433>:
    255c:	0000b537          	lui	a0,0xb
    2560:	50550513          	addi	a0,a0,1285 # b505 <_end+0x18fd>
    2564:	ffff55b7          	lui	a1,0xffff5
    2568:	afc58593          	addi	a1,a1,-1284 # ffff4afc <immx+0x452e702c>
    256c:	40b50633          	sub	a2,a0,a1
    2570:	66c42a23          	sw	a2,1652(s0)

00002574 <inst_434>:
    2574:	0000b537          	lui	a0,0xb
    2578:	50550513          	addi	a0,a0,1285 # b505 <_end+0x18fd>
    257c:	0000b5b7          	lui	a1,0xb
    2580:	50458593          	addi	a1,a1,1284 # b504 <_end+0x18fc>
    2584:	40b50633          	sub	a2,a0,a1
    2588:	66c42c23          	sw	a2,1656(s0)

0000258c <inst_435>:
    258c:	0000b537          	lui	a0,0xb
    2590:	50550513          	addi	a0,a0,1285 # b505 <_end+0x18fd>
    2594:	00200593          	addi	a1,zero,2
    2598:	40b50633          	sub	a2,a0,a1
    259c:	66c42e23          	sw	a2,1660(s0)

000025a0 <inst_436>:
    25a0:	0000b537          	lui	a0,0xb
    25a4:	50550513          	addi	a0,a0,1285 # b505 <_end+0x18fd>
    25a8:	555555b7          	lui	a1,0x55555
    25ac:	55458593          	addi	a1,a1,1364 # 55555554 <absimm+0x10263025>
    25b0:	40b50633          	sub	a2,a0,a1
    25b4:	68c42023          	sw	a2,1664(s0)

000025b8 <inst_437>:
    25b8:	0000b537          	lui	a0,0xb
    25bc:	50550513          	addi	a0,a0,1285 # b505 <_end+0x18fd>
    25c0:	00000593          	addi	a1,zero,0
    25c4:	40b50633          	sub	a2,a0,a1
    25c8:	68c42223          	sw	a2,1668(s0)

000025cc <inst_438>:
    25cc:	0000b537          	lui	a0,0xb
    25d0:	50550513          	addi	a0,a0,1285 # b505 <_end+0x18fd>
    25d4:	00400593          	addi	a1,zero,4
    25d8:	40b50633          	sub	a2,a0,a1
    25dc:	68c42423          	sw	a2,1672(s0)

000025e0 <inst_439>:
    25e0:	0000b537          	lui	a0,0xb
    25e4:	50550513          	addi	a0,a0,1285 # b505 <_end+0x18fd>
    25e8:	333335b7          	lui	a1,0x33333
    25ec:	33258593          	addi	a1,a1,818 # 33333332 <_end+0x3332972a>
    25f0:	40b50633          	sub	a2,a0,a1
    25f4:	68c42623          	sw	a2,1676(s0)

000025f8 <inst_440>:
    25f8:	0000b537          	lui	a0,0xb
    25fc:	50550513          	addi	a0,a0,1285 # b505 <_end+0x18fd>
    2600:	666665b7          	lui	a1,0x66666
    2604:	66558593          	addi	a1,a1,1637 # 66666665 <absimm+0x21374136>
    2608:	40b50633          	sub	a2,a0,a1
    260c:	68c42823          	sw	a2,1680(s0)

00002610 <inst_441>:
    2610:	0000b537          	lui	a0,0xb
    2614:	50550513          	addi	a0,a0,1285 # b505 <_end+0x18fd>
    2618:	0000b5b7          	lui	a1,0xb
    261c:	50358593          	addi	a1,a1,1283 # b503 <_end+0x18fb>
    2620:	40b50633          	sub	a2,a0,a1
    2624:	68c42a23          	sw	a2,1684(s0)

00002628 <inst_442>:
    2628:	0000b537          	lui	a0,0xb
    262c:	50550513          	addi	a0,a0,1285 # b505 <_end+0x18fd>
    2630:	555555b7          	lui	a1,0x55555
    2634:	55658593          	addi	a1,a1,1366 # 55555556 <absimm+0x10263027>
    2638:	40b50633          	sub	a2,a0,a1
    263c:	68c42c23          	sw	a2,1688(s0)

00002640 <inst_443>:
    2640:	0000b537          	lui	a0,0xb
    2644:	50550513          	addi	a0,a0,1285 # b505 <_end+0x18fd>
    2648:	aaaab5b7          	lui	a1,0xaaaab
    264c:	aab58593          	addi	a1,a1,-1365 # aaaaaaab <absimm+0x657b857c>
    2650:	40b50633          	sub	a2,a0,a1
    2654:	68c42e23          	sw	a2,1692(s0)

00002658 <inst_444>:
    2658:	0000b537          	lui	a0,0xb
    265c:	50550513          	addi	a0,a0,1285 # b505 <_end+0x18fd>
    2660:	00600593          	addi	a1,zero,6
    2664:	40b50633          	sub	a2,a0,a1
    2668:	6ac42023          	sw	a2,1696(s0)

0000266c <inst_445>:
    266c:	0000b537          	lui	a0,0xb
    2670:	50550513          	addi	a0,a0,1285 # b505 <_end+0x18fd>
    2674:	333335b7          	lui	a1,0x33333
    2678:	33458593          	addi	a1,a1,820 # 33333334 <_end+0x3332972c>
    267c:	40b50633          	sub	a2,a0,a1
    2680:	6ac42223          	sw	a2,1700(s0)

00002684 <inst_446>:
    2684:	0000b537          	lui	a0,0xb
    2688:	50550513          	addi	a0,a0,1285 # b505 <_end+0x18fd>
    268c:	666665b7          	lui	a1,0x66666
    2690:	66758593          	addi	a1,a1,1639 # 66666667 <absimm+0x21374138>
    2694:	40b50633          	sub	a2,a0,a1
    2698:	6ac42423          	sw	a2,1704(s0)

0000269c <inst_447>:
    269c:	0000b537          	lui	a0,0xb
    26a0:	50550513          	addi	a0,a0,1285 # b505 <_end+0x18fd>
    26a4:	ffff55b7          	lui	a1,0xffff5
    26a8:	afd58593          	addi	a1,a1,-1283 # ffff4afd <immx+0x452e702d>
    26ac:	40b50633          	sub	a2,a0,a1
    26b0:	6ac42623          	sw	a2,1708(s0)

000026b4 <inst_448>:
    26b4:	0000b537          	lui	a0,0xb
    26b8:	50550513          	addi	a0,a0,1285 # b505 <_end+0x18fd>
    26bc:	0000b5b7          	lui	a1,0xb
    26c0:	50558593          	addi	a1,a1,1285 # b505 <_end+0x18fd>
    26c4:	40b50633          	sub	a2,a0,a1
    26c8:	6ac42823          	sw	a2,1712(s0)

000026cc <inst_449>:
    26cc:	00000513          	addi	a0,zero,0
    26d0:	555555b7          	lui	a1,0x55555
    26d4:	55458593          	addi	a1,a1,1364 # 55555554 <absimm+0x10263025>
    26d8:	40b50633          	sub	a2,a0,a1
    26dc:	6ac42a23          	sw	a2,1716(s0)

000026e0 <inst_450>:
    26e0:	00000513          	addi	a0,zero,0
    26e4:	00000593          	addi	a1,zero,0
    26e8:	40b50633          	sub	a2,a0,a1
    26ec:	6ac42c23          	sw	a2,1720(s0)

000026f0 <inst_451>:
    26f0:	00000513          	addi	a0,zero,0
    26f4:	00400593          	addi	a1,zero,4
    26f8:	40b50633          	sub	a2,a0,a1
    26fc:	6ac42e23          	sw	a2,1724(s0)

00002700 <inst_452>:
    2700:	00000513          	addi	a0,zero,0
    2704:	333335b7          	lui	a1,0x33333
    2708:	33258593          	addi	a1,a1,818 # 33333332 <_end+0x3332972a>
    270c:	40b50633          	sub	a2,a0,a1
    2710:	6cc42023          	sw	a2,1728(s0)

00002714 <inst_453>:
    2714:	00000513          	addi	a0,zero,0
    2718:	666665b7          	lui	a1,0x66666
    271c:	66558593          	addi	a1,a1,1637 # 66666665 <absimm+0x21374136>
    2720:	40b50633          	sub	a2,a0,a1
    2724:	6cc42223          	sw	a2,1732(s0)

00002728 <inst_454>:
    2728:	00000513          	addi	a0,zero,0
    272c:	0000b5b7          	lui	a1,0xb
    2730:	50358593          	addi	a1,a1,1283 # b503 <_end+0x18fb>
    2734:	40b50633          	sub	a2,a0,a1
    2738:	6cc42423          	sw	a2,1736(s0)

0000273c <inst_455>:
    273c:	00000513          	addi	a0,zero,0
    2740:	555555b7          	lui	a1,0x55555
    2744:	55658593          	addi	a1,a1,1366 # 55555556 <absimm+0x10263027>
    2748:	40b50633          	sub	a2,a0,a1
    274c:	6cc42623          	sw	a2,1740(s0)

00002750 <inst_456>:
    2750:	00000513          	addi	a0,zero,0
    2754:	aaaab5b7          	lui	a1,0xaaaab
    2758:	aab58593          	addi	a1,a1,-1365 # aaaaaaab <absimm+0x657b857c>
    275c:	40b50633          	sub	a2,a0,a1
    2760:	6cc42823          	sw	a2,1744(s0)

00002764 <inst_457>:
    2764:	00000513          	addi	a0,zero,0
    2768:	00600593          	addi	a1,zero,6
    276c:	40b50633          	sub	a2,a0,a1
    2770:	6cc42a23          	sw	a2,1748(s0)

00002774 <inst_458>:
    2774:	00000513          	addi	a0,zero,0
    2778:	333335b7          	lui	a1,0x33333
    277c:	33458593          	addi	a1,a1,820 # 33333334 <_end+0x3332972c>
    2780:	40b50633          	sub	a2,a0,a1
    2784:	6cc42c23          	sw	a2,1752(s0)

00002788 <inst_459>:
    2788:	00000513          	addi	a0,zero,0
    278c:	666665b7          	lui	a1,0x66666
    2790:	66758593          	addi	a1,a1,1639 # 66666667 <absimm+0x21374138>
    2794:	40b50633          	sub	a2,a0,a1
    2798:	6cc42e23          	sw	a2,1756(s0)

0000279c <inst_460>:
    279c:	00000513          	addi	a0,zero,0
    27a0:	ffff55b7          	lui	a1,0xffff5
    27a4:	afd58593          	addi	a1,a1,-1283 # ffff4afd <immx+0x452e702d>
    27a8:	40b50633          	sub	a2,a0,a1
    27ac:	6ec42023          	sw	a2,1760(s0)

000027b0 <inst_461>:
    27b0:	00000513          	addi	a0,zero,0
    27b4:	0000b5b7          	lui	a1,0xb
    27b8:	50558593          	addi	a1,a1,1285 # b505 <_end+0x18fd>
    27bc:	40b50633          	sub	a2,a0,a1
    27c0:	6ec42223          	sw	a2,1764(s0)

000027c4 <inst_462>:
    27c4:	00400513          	addi	a0,zero,4
    27c8:	00300593          	addi	a1,zero,3
    27cc:	40b50633          	sub	a2,a0,a1
    27d0:	6ec42423          	sw	a2,1768(s0)

000027d4 <inst_463>:
    27d4:	00400513          	addi	a0,zero,4
    27d8:	555555b7          	lui	a1,0x55555
    27dc:	55558593          	addi	a1,a1,1365 # 55555555 <absimm+0x10263026>
    27e0:	40b50633          	sub	a2,a0,a1
    27e4:	6ec42623          	sw	a2,1772(s0)

000027e8 <inst_464>:
    27e8:	00400513          	addi	a0,zero,4
    27ec:	aaaab5b7          	lui	a1,0xaaaab
    27f0:	aaa58593          	addi	a1,a1,-1366 # aaaaaaaa <absimm+0x657b857b>
    27f4:	40b50633          	sub	a2,a0,a1
    27f8:	6ec42823          	sw	a2,1776(s0)

000027fc <inst_465>:
    27fc:	00400513          	addi	a0,zero,4
    2800:	00500593          	addi	a1,zero,5
    2804:	40b50633          	sub	a2,a0,a1
    2808:	6ec42a23          	sw	a2,1780(s0)

0000280c <inst_466>:
    280c:	00400513          	addi	a0,zero,4
    2810:	333335b7          	lui	a1,0x33333
    2814:	33358593          	addi	a1,a1,819 # 33333333 <_end+0x3332972b>
    2818:	40b50633          	sub	a2,a0,a1
    281c:	6ec42c23          	sw	a2,1784(s0)

00002820 <inst_467>:
    2820:	00400513          	addi	a0,zero,4
    2824:	666665b7          	lui	a1,0x66666
    2828:	66658593          	addi	a1,a1,1638 # 66666666 <absimm+0x21374137>
    282c:	40b50633          	sub	a2,a0,a1
    2830:	6ec42e23          	sw	a2,1788(s0)

00002834 <inst_468>:
    2834:	00400513          	addi	a0,zero,4
    2838:	ffff55b7          	lui	a1,0xffff5
    283c:	afc58593          	addi	a1,a1,-1284 # ffff4afc <immx+0x452e702c>
    2840:	40b50633          	sub	a2,a0,a1
    2844:	70c42023          	sw	a2,1792(s0)

00002848 <inst_469>:
    2848:	00400513          	addi	a0,zero,4
    284c:	0000b5b7          	lui	a1,0xb
    2850:	50458593          	addi	a1,a1,1284 # b504 <_end+0x18fc>
    2854:	40b50633          	sub	a2,a0,a1
    2858:	70c42223          	sw	a2,1796(s0)

0000285c <inst_470>:
    285c:	00400513          	addi	a0,zero,4
    2860:	00200593          	addi	a1,zero,2
    2864:	40b50633          	sub	a2,a0,a1
    2868:	70c42423          	sw	a2,1800(s0)

0000286c <inst_471>:
    286c:	00400513          	addi	a0,zero,4
    2870:	555555b7          	lui	a1,0x55555
    2874:	55458593          	addi	a1,a1,1364 # 55555554 <absimm+0x10263025>
    2878:	40b50633          	sub	a2,a0,a1
    287c:	70c42623          	sw	a2,1804(s0)

00002880 <inst_472>:
    2880:	00400513          	addi	a0,zero,4
    2884:	00000593          	addi	a1,zero,0
    2888:	40b50633          	sub	a2,a0,a1
    288c:	70c42823          	sw	a2,1808(s0)

00002890 <inst_473>:
    2890:	00400513          	addi	a0,zero,4
    2894:	00400593          	addi	a1,zero,4
    2898:	40b50633          	sub	a2,a0,a1
    289c:	70c42a23          	sw	a2,1812(s0)

000028a0 <inst_474>:
    28a0:	00400513          	addi	a0,zero,4
    28a4:	333335b7          	lui	a1,0x33333
    28a8:	33258593          	addi	a1,a1,818 # 33333332 <_end+0x3332972a>
    28ac:	40b50633          	sub	a2,a0,a1
    28b0:	70c42c23          	sw	a2,1816(s0)

000028b4 <inst_475>:
    28b4:	00400513          	addi	a0,zero,4
    28b8:	666665b7          	lui	a1,0x66666
    28bc:	66558593          	addi	a1,a1,1637 # 66666665 <absimm+0x21374136>
    28c0:	40b50633          	sub	a2,a0,a1
    28c4:	70c42e23          	sw	a2,1820(s0)

000028c8 <inst_476>:
    28c8:	00400513          	addi	a0,zero,4
    28cc:	0000b5b7          	lui	a1,0xb
    28d0:	50358593          	addi	a1,a1,1283 # b503 <_end+0x18fb>
    28d4:	40b50633          	sub	a2,a0,a1
    28d8:	72c42023          	sw	a2,1824(s0)

000028dc <inst_477>:
    28dc:	00400513          	addi	a0,zero,4
    28e0:	555555b7          	lui	a1,0x55555
    28e4:	55658593          	addi	a1,a1,1366 # 55555556 <absimm+0x10263027>
    28e8:	40b50633          	sub	a2,a0,a1
    28ec:	72c42223          	sw	a2,1828(s0)

000028f0 <inst_478>:
    28f0:	00400513          	addi	a0,zero,4
    28f4:	aaaab5b7          	lui	a1,0xaaaab
    28f8:	aab58593          	addi	a1,a1,-1365 # aaaaaaab <absimm+0x657b857c>
    28fc:	40b50633          	sub	a2,a0,a1
    2900:	72c42423          	sw	a2,1832(s0)

00002904 <inst_479>:
    2904:	00400513          	addi	a0,zero,4
    2908:	00600593          	addi	a1,zero,6
    290c:	40b50633          	sub	a2,a0,a1
    2910:	72c42623          	sw	a2,1836(s0)

00002914 <inst_480>:
    2914:	00400513          	addi	a0,zero,4
    2918:	333335b7          	lui	a1,0x33333
    291c:	33458593          	addi	a1,a1,820 # 33333334 <_end+0x3332972c>
    2920:	40b50633          	sub	a2,a0,a1
    2924:	72c42823          	sw	a2,1840(s0)

00002928 <inst_481>:
    2928:	00400513          	addi	a0,zero,4
    292c:	666665b7          	lui	a1,0x66666
    2930:	66758593          	addi	a1,a1,1639 # 66666667 <absimm+0x21374138>
    2934:	40b50633          	sub	a2,a0,a1
    2938:	72c42a23          	sw	a2,1844(s0)

0000293c <inst_482>:
    293c:	00400513          	addi	a0,zero,4
    2940:	ffff55b7          	lui	a1,0xffff5
    2944:	afd58593          	addi	a1,a1,-1283 # ffff4afd <immx+0x452e702d>
    2948:	40b50633          	sub	a2,a0,a1
    294c:	72c42c23          	sw	a2,1848(s0)

00002950 <inst_483>:
    2950:	00400513          	addi	a0,zero,4
    2954:	0000b5b7          	lui	a1,0xb
    2958:	50558593          	addi	a1,a1,1285 # b505 <_end+0x18fd>
    295c:	40b50633          	sub	a2,a0,a1
    2960:	72c42e23          	sw	a2,1852(s0)

00002964 <inst_484>:
    2964:	33333537          	lui	a0,0x33333
    2968:	33250513          	addi	a0,a0,818 # 33333332 <_end+0x3332972a>
    296c:	00300593          	addi	a1,zero,3
    2970:	40b50633          	sub	a2,a0,a1
    2974:	74c42023          	sw	a2,1856(s0)

00002978 <inst_485>:
    2978:	33333537          	lui	a0,0x33333
    297c:	33250513          	addi	a0,a0,818 # 33333332 <_end+0x3332972a>
    2980:	555555b7          	lui	a1,0x55555
    2984:	55558593          	addi	a1,a1,1365 # 55555555 <absimm+0x10263026>
    2988:	40b50633          	sub	a2,a0,a1
    298c:	74c42223          	sw	a2,1860(s0)

00002990 <inst_486>:
    2990:	33333537          	lui	a0,0x33333
    2994:	33250513          	addi	a0,a0,818 # 33333332 <_end+0x3332972a>
    2998:	aaaab5b7          	lui	a1,0xaaaab
    299c:	aaa58593          	addi	a1,a1,-1366 # aaaaaaaa <absimm+0x657b857b>
    29a0:	40b50633          	sub	a2,a0,a1
    29a4:	74c42423          	sw	a2,1864(s0)

000029a8 <inst_487>:
    29a8:	33333537          	lui	a0,0x33333
    29ac:	33250513          	addi	a0,a0,818 # 33333332 <_end+0x3332972a>
    29b0:	00500593          	addi	a1,zero,5
    29b4:	40b50633          	sub	a2,a0,a1
    29b8:	74c42623          	sw	a2,1868(s0)

000029bc <inst_488>:
    29bc:	33333537          	lui	a0,0x33333
    29c0:	33250513          	addi	a0,a0,818 # 33333332 <_end+0x3332972a>
    29c4:	333335b7          	lui	a1,0x33333
    29c8:	33358593          	addi	a1,a1,819 # 33333333 <_end+0x3332972b>
    29cc:	40b50633          	sub	a2,a0,a1
    29d0:	74c42823          	sw	a2,1872(s0)

000029d4 <inst_489>:
    29d4:	33333537          	lui	a0,0x33333
    29d8:	33250513          	addi	a0,a0,818 # 33333332 <_end+0x3332972a>
    29dc:	666665b7          	lui	a1,0x66666
    29e0:	66658593          	addi	a1,a1,1638 # 66666666 <absimm+0x21374137>
    29e4:	40b50633          	sub	a2,a0,a1
    29e8:	74c42a23          	sw	a2,1876(s0)

000029ec <inst_490>:
    29ec:	33333537          	lui	a0,0x33333
    29f0:	33250513          	addi	a0,a0,818 # 33333332 <_end+0x3332972a>
    29f4:	ffff55b7          	lui	a1,0xffff5
    29f8:	afc58593          	addi	a1,a1,-1284 # ffff4afc <immx+0x452e702c>
    29fc:	40b50633          	sub	a2,a0,a1
    2a00:	74c42c23          	sw	a2,1880(s0)

00002a04 <inst_491>:
    2a04:	33333537          	lui	a0,0x33333
    2a08:	33250513          	addi	a0,a0,818 # 33333332 <_end+0x3332972a>
    2a0c:	0000b5b7          	lui	a1,0xb
    2a10:	50458593          	addi	a1,a1,1284 # b504 <_end+0x18fc>
    2a14:	40b50633          	sub	a2,a0,a1
    2a18:	74c42e23          	sw	a2,1884(s0)

00002a1c <inst_492>:
    2a1c:	33333537          	lui	a0,0x33333
    2a20:	33250513          	addi	a0,a0,818 # 33333332 <_end+0x3332972a>
    2a24:	00200593          	addi	a1,zero,2
    2a28:	40b50633          	sub	a2,a0,a1
    2a2c:	76c42023          	sw	a2,1888(s0)

00002a30 <inst_493>:
    2a30:	33333537          	lui	a0,0x33333
    2a34:	33250513          	addi	a0,a0,818 # 33333332 <_end+0x3332972a>
    2a38:	555555b7          	lui	a1,0x55555
    2a3c:	55458593          	addi	a1,a1,1364 # 55555554 <absimm+0x10263025>
    2a40:	40b50633          	sub	a2,a0,a1
    2a44:	76c42223          	sw	a2,1892(s0)

00002a48 <inst_494>:
    2a48:	33333537          	lui	a0,0x33333
    2a4c:	33250513          	addi	a0,a0,818 # 33333332 <_end+0x3332972a>
    2a50:	00000593          	addi	a1,zero,0
    2a54:	40b50633          	sub	a2,a0,a1
    2a58:	76c42423          	sw	a2,1896(s0)

00002a5c <inst_495>:
    2a5c:	33333537          	lui	a0,0x33333
    2a60:	33250513          	addi	a0,a0,818 # 33333332 <_end+0x3332972a>
    2a64:	00400593          	addi	a1,zero,4
    2a68:	40b50633          	sub	a2,a0,a1
    2a6c:	76c42623          	sw	a2,1900(s0)

00002a70 <inst_496>:
    2a70:	33333537          	lui	a0,0x33333
    2a74:	33250513          	addi	a0,a0,818 # 33333332 <_end+0x3332972a>
    2a78:	333335b7          	lui	a1,0x33333
    2a7c:	33258593          	addi	a1,a1,818 # 33333332 <_end+0x3332972a>
    2a80:	40b50633          	sub	a2,a0,a1
    2a84:	76c42823          	sw	a2,1904(s0)

00002a88 <inst_497>:
    2a88:	33333537          	lui	a0,0x33333
    2a8c:	33250513          	addi	a0,a0,818 # 33333332 <_end+0x3332972a>
    2a90:	666665b7          	lui	a1,0x66666
    2a94:	66558593          	addi	a1,a1,1637 # 66666665 <absimm+0x21374136>
    2a98:	40b50633          	sub	a2,a0,a1
    2a9c:	76c42a23          	sw	a2,1908(s0)

00002aa0 <inst_498>:
    2aa0:	33333537          	lui	a0,0x33333
    2aa4:	33250513          	addi	a0,a0,818 # 33333332 <_end+0x3332972a>
    2aa8:	0000b5b7          	lui	a1,0xb
    2aac:	50358593          	addi	a1,a1,1283 # b503 <_end+0x18fb>
    2ab0:	40b50633          	sub	a2,a0,a1
    2ab4:	76c42c23          	sw	a2,1912(s0)

00002ab8 <inst_499>:
    2ab8:	33333537          	lui	a0,0x33333
    2abc:	33250513          	addi	a0,a0,818 # 33333332 <_end+0x3332972a>
    2ac0:	555555b7          	lui	a1,0x55555
    2ac4:	55658593          	addi	a1,a1,1366 # 55555556 <absimm+0x10263027>
    2ac8:	40b50633          	sub	a2,a0,a1
    2acc:	76c42e23          	sw	a2,1916(s0)

00002ad0 <inst_500>:
    2ad0:	33333537          	lui	a0,0x33333
    2ad4:	33250513          	addi	a0,a0,818 # 33333332 <_end+0x3332972a>
    2ad8:	aaaab5b7          	lui	a1,0xaaaab
    2adc:	aab58593          	addi	a1,a1,-1365 # aaaaaaab <absimm+0x657b857c>
    2ae0:	40b50633          	sub	a2,a0,a1
    2ae4:	78c42023          	sw	a2,1920(s0)

00002ae8 <inst_501>:
    2ae8:	33333537          	lui	a0,0x33333
    2aec:	33250513          	addi	a0,a0,818 # 33333332 <_end+0x3332972a>
    2af0:	00600593          	addi	a1,zero,6
    2af4:	40b50633          	sub	a2,a0,a1
    2af8:	78c42223          	sw	a2,1924(s0)

00002afc <inst_502>:
    2afc:	33333537          	lui	a0,0x33333
    2b00:	33250513          	addi	a0,a0,818 # 33333332 <_end+0x3332972a>
    2b04:	333335b7          	lui	a1,0x33333
    2b08:	33458593          	addi	a1,a1,820 # 33333334 <_end+0x3332972c>
    2b0c:	40b50633          	sub	a2,a0,a1
    2b10:	78c42423          	sw	a2,1928(s0)

00002b14 <inst_503>:
    2b14:	33333537          	lui	a0,0x33333
    2b18:	33250513          	addi	a0,a0,818 # 33333332 <_end+0x3332972a>
    2b1c:	666665b7          	lui	a1,0x66666
    2b20:	66758593          	addi	a1,a1,1639 # 66666667 <absimm+0x21374138>
    2b24:	40b50633          	sub	a2,a0,a1
    2b28:	78c42623          	sw	a2,1932(s0)

00002b2c <inst_504>:
    2b2c:	33333537          	lui	a0,0x33333
    2b30:	33250513          	addi	a0,a0,818 # 33333332 <_end+0x3332972a>
    2b34:	ffff55b7          	lui	a1,0xffff5
    2b38:	afd58593          	addi	a1,a1,-1283 # ffff4afd <immx+0x452e702d>
    2b3c:	40b50633          	sub	a2,a0,a1
    2b40:	78c42823          	sw	a2,1936(s0)

00002b44 <inst_505>:
    2b44:	33333537          	lui	a0,0x33333
    2b48:	33250513          	addi	a0,a0,818 # 33333332 <_end+0x3332972a>
    2b4c:	0000b5b7          	lui	a1,0xb
    2b50:	50558593          	addi	a1,a1,1285 # b505 <_end+0x18fd>
    2b54:	40b50633          	sub	a2,a0,a1
    2b58:	78c42a23          	sw	a2,1940(s0)

00002b5c <inst_506>:
    2b5c:	66666537          	lui	a0,0x66666
    2b60:	66550513          	addi	a0,a0,1637 # 66666665 <absimm+0x21374136>
    2b64:	00300593          	addi	a1,zero,3
    2b68:	40b50633          	sub	a2,a0,a1
    2b6c:	78c42c23          	sw	a2,1944(s0)

00002b70 <inst_507>:
    2b70:	66666537          	lui	a0,0x66666
    2b74:	66550513          	addi	a0,a0,1637 # 66666665 <absimm+0x21374136>
    2b78:	555555b7          	lui	a1,0x55555
    2b7c:	55558593          	addi	a1,a1,1365 # 55555555 <absimm+0x10263026>
    2b80:	40b50633          	sub	a2,a0,a1
    2b84:	78c42e23          	sw	a2,1948(s0)

00002b88 <inst_508>:
    2b88:	66666537          	lui	a0,0x66666
    2b8c:	66550513          	addi	a0,a0,1637 # 66666665 <absimm+0x21374136>
    2b90:	aaaab5b7          	lui	a1,0xaaaab
    2b94:	aaa58593          	addi	a1,a1,-1366 # aaaaaaaa <absimm+0x657b857b>
    2b98:	40b50633          	sub	a2,a0,a1
    2b9c:	7ac42023          	sw	a2,1952(s0)

00002ba0 <inst_509>:
    2ba0:	66666537          	lui	a0,0x66666
    2ba4:	66550513          	addi	a0,a0,1637 # 66666665 <absimm+0x21374136>
    2ba8:	00500593          	addi	a1,zero,5
    2bac:	40b50633          	sub	a2,a0,a1
    2bb0:	7ac42223          	sw	a2,1956(s0)

00002bb4 <inst_510>:
    2bb4:	66666537          	lui	a0,0x66666
    2bb8:	66550513          	addi	a0,a0,1637 # 66666665 <absimm+0x21374136>
    2bbc:	333335b7          	lui	a1,0x33333
    2bc0:	33358593          	addi	a1,a1,819 # 33333333 <_end+0x3332972b>
    2bc4:	40b50633          	sub	a2,a0,a1
    2bc8:	7ac42423          	sw	a2,1960(s0)

00002bcc <inst_511>:
    2bcc:	66666537          	lui	a0,0x66666
    2bd0:	66550513          	addi	a0,a0,1637 # 66666665 <absimm+0x21374136>
    2bd4:	666665b7          	lui	a1,0x66666
    2bd8:	66658593          	addi	a1,a1,1638 # 66666666 <absimm+0x21374137>
    2bdc:	40b50633          	sub	a2,a0,a1
    2be0:	7ac42623          	sw	a2,1964(s0)

00002be4 <inst_512>:
    2be4:	66666537          	lui	a0,0x66666
    2be8:	66550513          	addi	a0,a0,1637 # 66666665 <absimm+0x21374136>
    2bec:	ffff55b7          	lui	a1,0xffff5
    2bf0:	afc58593          	addi	a1,a1,-1284 # ffff4afc <immx+0x452e702c>
    2bf4:	40b50633          	sub	a2,a0,a1
    2bf8:	7ac42823          	sw	a2,1968(s0)

00002bfc <inst_513>:
    2bfc:	66666537          	lui	a0,0x66666
    2c00:	66550513          	addi	a0,a0,1637 # 66666665 <absimm+0x21374136>
    2c04:	0000b5b7          	lui	a1,0xb
    2c08:	50458593          	addi	a1,a1,1284 # b504 <_end+0x18fc>
    2c0c:	40b50633          	sub	a2,a0,a1
    2c10:	7ac42a23          	sw	a2,1972(s0)

00002c14 <inst_514>:
    2c14:	66666537          	lui	a0,0x66666
    2c18:	66550513          	addi	a0,a0,1637 # 66666665 <absimm+0x21374136>
    2c1c:	00200593          	addi	a1,zero,2
    2c20:	40b50633          	sub	a2,a0,a1
    2c24:	7ac42c23          	sw	a2,1976(s0)

00002c28 <inst_515>:
    2c28:	66666537          	lui	a0,0x66666
    2c2c:	66550513          	addi	a0,a0,1637 # 66666665 <absimm+0x21374136>
    2c30:	555555b7          	lui	a1,0x55555
    2c34:	55458593          	addi	a1,a1,1364 # 55555554 <absimm+0x10263025>
    2c38:	40b50633          	sub	a2,a0,a1
    2c3c:	7ac42e23          	sw	a2,1980(s0)

00002c40 <inst_516>:
    2c40:	66666537          	lui	a0,0x66666
    2c44:	66550513          	addi	a0,a0,1637 # 66666665 <absimm+0x21374136>
    2c48:	00000593          	addi	a1,zero,0
    2c4c:	40b50633          	sub	a2,a0,a1
    2c50:	7cc42023          	sw	a2,1984(s0)

00002c54 <inst_517>:
    2c54:	66666537          	lui	a0,0x66666
    2c58:	66550513          	addi	a0,a0,1637 # 66666665 <absimm+0x21374136>
    2c5c:	00400593          	addi	a1,zero,4
    2c60:	40b50633          	sub	a2,a0,a1
    2c64:	7cc42223          	sw	a2,1988(s0)

00002c68 <inst_518>:
    2c68:	66666537          	lui	a0,0x66666
    2c6c:	66550513          	addi	a0,a0,1637 # 66666665 <absimm+0x21374136>
    2c70:	333335b7          	lui	a1,0x33333
    2c74:	33258593          	addi	a1,a1,818 # 33333332 <_end+0x3332972a>
    2c78:	40b50633          	sub	a2,a0,a1
    2c7c:	7cc42423          	sw	a2,1992(s0)

00002c80 <inst_519>:
    2c80:	66666537          	lui	a0,0x66666
    2c84:	66550513          	addi	a0,a0,1637 # 66666665 <absimm+0x21374136>
    2c88:	666665b7          	lui	a1,0x66666
    2c8c:	66558593          	addi	a1,a1,1637 # 66666665 <absimm+0x21374136>
    2c90:	40b50633          	sub	a2,a0,a1
    2c94:	7cc42623          	sw	a2,1996(s0)

00002c98 <inst_520>:
    2c98:	66666537          	lui	a0,0x66666
    2c9c:	66550513          	addi	a0,a0,1637 # 66666665 <absimm+0x21374136>
    2ca0:	0000b5b7          	lui	a1,0xb
    2ca4:	50358593          	addi	a1,a1,1283 # b503 <_end+0x18fb>
    2ca8:	40b50633          	sub	a2,a0,a1
    2cac:	7cc42823          	sw	a2,2000(s0)

00002cb0 <inst_521>:
    2cb0:	66666537          	lui	a0,0x66666
    2cb4:	66550513          	addi	a0,a0,1637 # 66666665 <absimm+0x21374136>
    2cb8:	555555b7          	lui	a1,0x55555
    2cbc:	55658593          	addi	a1,a1,1366 # 55555556 <absimm+0x10263027>
    2cc0:	40b50633          	sub	a2,a0,a1
    2cc4:	7cc42a23          	sw	a2,2004(s0)

00002cc8 <inst_522>:
    2cc8:	66666537          	lui	a0,0x66666
    2ccc:	66550513          	addi	a0,a0,1637 # 66666665 <absimm+0x21374136>
    2cd0:	aaaab5b7          	lui	a1,0xaaaab
    2cd4:	aab58593          	addi	a1,a1,-1365 # aaaaaaab <absimm+0x657b857c>
    2cd8:	40b50633          	sub	a2,a0,a1
    2cdc:	7cc42c23          	sw	a2,2008(s0)

00002ce0 <inst_523>:
    2ce0:	66666537          	lui	a0,0x66666
    2ce4:	66550513          	addi	a0,a0,1637 # 66666665 <absimm+0x21374136>
    2ce8:	00600593          	addi	a1,zero,6
    2cec:	40b50633          	sub	a2,a0,a1
    2cf0:	7cc42e23          	sw	a2,2012(s0)

00002cf4 <inst_524>:
    2cf4:	66666537          	lui	a0,0x66666
    2cf8:	66550513          	addi	a0,a0,1637 # 66666665 <absimm+0x21374136>
    2cfc:	333335b7          	lui	a1,0x33333
    2d00:	33458593          	addi	a1,a1,820 # 33333334 <_end+0x3332972c>
    2d04:	40b50633          	sub	a2,a0,a1
    2d08:	7ec42023          	sw	a2,2016(s0)

00002d0c <inst_525>:
    2d0c:	66666537          	lui	a0,0x66666
    2d10:	66550513          	addi	a0,a0,1637 # 66666665 <absimm+0x21374136>
    2d14:	666665b7          	lui	a1,0x66666
    2d18:	66758593          	addi	a1,a1,1639 # 66666667 <absimm+0x21374138>
    2d1c:	40b50633          	sub	a2,a0,a1
    2d20:	7ec42223          	sw	a2,2020(s0)

00002d24 <inst_526>:
    2d24:	66666537          	lui	a0,0x66666
    2d28:	66550513          	addi	a0,a0,1637 # 66666665 <absimm+0x21374136>
    2d2c:	ffff55b7          	lui	a1,0xffff5
    2d30:	afd58593          	addi	a1,a1,-1283 # ffff4afd <immx+0x452e702d>
    2d34:	40b50633          	sub	a2,a0,a1
    2d38:	7ec42423          	sw	a2,2024(s0)

00002d3c <inst_527>:
    2d3c:	66666537          	lui	a0,0x66666
    2d40:	66550513          	addi	a0,a0,1637 # 66666665 <absimm+0x21374136>
    2d44:	0000b5b7          	lui	a1,0xb
    2d48:	50558593          	addi	a1,a1,1285 # b505 <_end+0x18fd>
    2d4c:	40b50633          	sub	a2,a0,a1
    2d50:	7ec42623          	sw	a2,2028(s0)

00002d54 <inst_528>:
    2d54:	0000b537          	lui	a0,0xb
    2d58:	50350513          	addi	a0,a0,1283 # b503 <_end+0x18fb>
    2d5c:	00300593          	addi	a1,zero,3
    2d60:	40b50633          	sub	a2,a0,a1
    2d64:	7ec42823          	sw	a2,2032(s0)

00002d68 <inst_529>:
    2d68:	0000b537          	lui	a0,0xb
    2d6c:	50350513          	addi	a0,a0,1283 # b503 <_end+0x18fb>
    2d70:	555555b7          	lui	a1,0x55555
    2d74:	55558593          	addi	a1,a1,1365 # 55555555 <absimm+0x10263026>
    2d78:	40b50633          	sub	a2,a0,a1
    2d7c:	7ec42a23          	sw	a2,2036(s0)

00002d80 <inst_530>:
    2d80:	0000b537          	lui	a0,0xb
    2d84:	50350513          	addi	a0,a0,1283 # b503 <_end+0x18fb>
    2d88:	aaaab5b7          	lui	a1,0xaaaab
    2d8c:	aaa58593          	addi	a1,a1,-1366 # aaaaaaaa <absimm+0x657b857b>
    2d90:	40b50633          	sub	a2,a0,a1
    2d94:	7ec42c23          	sw	a2,2040(s0)

00002d98 <inst_531>:
    2d98:	0000b537          	lui	a0,0xb
    2d9c:	50350513          	addi	a0,a0,1283 # b503 <_end+0x18fb>
    2da0:	00500593          	addi	a1,zero,5
    2da4:	40b50633          	sub	a2,a0,a1
    2da8:	7ec42e23          	sw	a2,2044(s0)
    2dac:	00000013          	addi	zero,zero,0
    2db0:	00000013          	addi	zero,zero,0
    2db4:	00000013          	addi	zero,zero,0
    2db8:	00000013          	addi	zero,zero,0
    2dbc:	00000013          	addi	zero,zero,0
    2dc0:	00007417          	auipc	s0,0x7
    2dc4:	ba440413          	addi	s0,s0,-1116 # 9964 <signature_x8_1>
    2dc8:	00000013          	addi	zero,zero,0
    2dcc:	00000013          	addi	zero,zero,0
    2dd0:	00000013          	addi	zero,zero,0
    2dd4:	00000013          	addi	zero,zero,0
    2dd8:	00000013          	addi	zero,zero,0
    2ddc:	00000013          	addi	zero,zero,0

00002de0 <inst_532>:
    2de0:	0000b537          	lui	a0,0xb
    2de4:	50350513          	addi	a0,a0,1283 # b503 <_end+0x18fb>
    2de8:	333335b7          	lui	a1,0x33333
    2dec:	33358593          	addi	a1,a1,819 # 33333333 <_end+0x3332972b>
    2df0:	40b50633          	sub	a2,a0,a1
    2df4:	00c42023          	sw	a2,0(s0)

00002df8 <inst_533>:
    2df8:	0000b537          	lui	a0,0xb
    2dfc:	50350513          	addi	a0,a0,1283 # b503 <_end+0x18fb>
    2e00:	666665b7          	lui	a1,0x66666
    2e04:	66658593          	addi	a1,a1,1638 # 66666666 <absimm+0x21374137>
    2e08:	40b50633          	sub	a2,a0,a1
    2e0c:	00c42223          	sw	a2,4(s0)

00002e10 <inst_534>:
    2e10:	0000b537          	lui	a0,0xb
    2e14:	50350513          	addi	a0,a0,1283 # b503 <_end+0x18fb>
    2e18:	ffff55b7          	lui	a1,0xffff5
    2e1c:	afc58593          	addi	a1,a1,-1284 # ffff4afc <immx+0x452e702c>
    2e20:	40b50633          	sub	a2,a0,a1
    2e24:	00c42423          	sw	a2,8(s0)

00002e28 <inst_535>:
    2e28:	0000b537          	lui	a0,0xb
    2e2c:	50350513          	addi	a0,a0,1283 # b503 <_end+0x18fb>
    2e30:	0000b5b7          	lui	a1,0xb
    2e34:	50458593          	addi	a1,a1,1284 # b504 <_end+0x18fc>
    2e38:	40b50633          	sub	a2,a0,a1
    2e3c:	00c42623          	sw	a2,12(s0)

00002e40 <inst_536>:
    2e40:	0000b537          	lui	a0,0xb
    2e44:	50350513          	addi	a0,a0,1283 # b503 <_end+0x18fb>
    2e48:	00200593          	addi	a1,zero,2
    2e4c:	40b50633          	sub	a2,a0,a1
    2e50:	00c42823          	sw	a2,16(s0)

00002e54 <inst_537>:
    2e54:	0000b537          	lui	a0,0xb
    2e58:	50350513          	addi	a0,a0,1283 # b503 <_end+0x18fb>
    2e5c:	555555b7          	lui	a1,0x55555
    2e60:	55458593          	addi	a1,a1,1364 # 55555554 <absimm+0x10263025>
    2e64:	40b50633          	sub	a2,a0,a1
    2e68:	00c42a23          	sw	a2,20(s0)

00002e6c <inst_538>:
    2e6c:	0000b537          	lui	a0,0xb
    2e70:	50350513          	addi	a0,a0,1283 # b503 <_end+0x18fb>
    2e74:	00000593          	addi	a1,zero,0
    2e78:	40b50633          	sub	a2,a0,a1
    2e7c:	00c42c23          	sw	a2,24(s0)

00002e80 <inst_539>:
    2e80:	0000b537          	lui	a0,0xb
    2e84:	50350513          	addi	a0,a0,1283 # b503 <_end+0x18fb>
    2e88:	00400593          	addi	a1,zero,4
    2e8c:	40b50633          	sub	a2,a0,a1
    2e90:	00c42e23          	sw	a2,28(s0)

00002e94 <inst_540>:
    2e94:	0000b537          	lui	a0,0xb
    2e98:	50350513          	addi	a0,a0,1283 # b503 <_end+0x18fb>
    2e9c:	333335b7          	lui	a1,0x33333
    2ea0:	33258593          	addi	a1,a1,818 # 33333332 <_end+0x3332972a>
    2ea4:	40b50633          	sub	a2,a0,a1
    2ea8:	02c42023          	sw	a2,32(s0)

00002eac <inst_541>:
    2eac:	0000b537          	lui	a0,0xb
    2eb0:	50350513          	addi	a0,a0,1283 # b503 <_end+0x18fb>
    2eb4:	666665b7          	lui	a1,0x66666
    2eb8:	66558593          	addi	a1,a1,1637 # 66666665 <absimm+0x21374136>
    2ebc:	40b50633          	sub	a2,a0,a1
    2ec0:	02c42223          	sw	a2,36(s0)

00002ec4 <inst_542>:
    2ec4:	0000b537          	lui	a0,0xb
    2ec8:	50350513          	addi	a0,a0,1283 # b503 <_end+0x18fb>
    2ecc:	0000b5b7          	lui	a1,0xb
    2ed0:	50358593          	addi	a1,a1,1283 # b503 <_end+0x18fb>
    2ed4:	40b50633          	sub	a2,a0,a1
    2ed8:	02c42423          	sw	a2,40(s0)

00002edc <inst_543>:
    2edc:	0000b537          	lui	a0,0xb
    2ee0:	50350513          	addi	a0,a0,1283 # b503 <_end+0x18fb>
    2ee4:	555555b7          	lui	a1,0x55555
    2ee8:	55658593          	addi	a1,a1,1366 # 55555556 <absimm+0x10263027>
    2eec:	40b50633          	sub	a2,a0,a1
    2ef0:	02c42623          	sw	a2,44(s0)

00002ef4 <inst_544>:
    2ef4:	0000b537          	lui	a0,0xb
    2ef8:	50350513          	addi	a0,a0,1283 # b503 <_end+0x18fb>
    2efc:	aaaab5b7          	lui	a1,0xaaaab
    2f00:	aab58593          	addi	a1,a1,-1365 # aaaaaaab <absimm+0x657b857c>
    2f04:	40b50633          	sub	a2,a0,a1
    2f08:	02c42823          	sw	a2,48(s0)

00002f0c <inst_545>:
    2f0c:	0000b537          	lui	a0,0xb
    2f10:	50350513          	addi	a0,a0,1283 # b503 <_end+0x18fb>
    2f14:	00600593          	addi	a1,zero,6
    2f18:	40b50633          	sub	a2,a0,a1
    2f1c:	02c42a23          	sw	a2,52(s0)

00002f20 <inst_546>:
    2f20:	0000b537          	lui	a0,0xb
    2f24:	50350513          	addi	a0,a0,1283 # b503 <_end+0x18fb>
    2f28:	333335b7          	lui	a1,0x33333
    2f2c:	33458593          	addi	a1,a1,820 # 33333334 <_end+0x3332972c>
    2f30:	40b50633          	sub	a2,a0,a1
    2f34:	02c42c23          	sw	a2,56(s0)

00002f38 <inst_547>:
    2f38:	0000b537          	lui	a0,0xb
    2f3c:	50350513          	addi	a0,a0,1283 # b503 <_end+0x18fb>
    2f40:	666665b7          	lui	a1,0x66666
    2f44:	66758593          	addi	a1,a1,1639 # 66666667 <absimm+0x21374138>
    2f48:	40b50633          	sub	a2,a0,a1
    2f4c:	02c42e23          	sw	a2,60(s0)

00002f50 <inst_548>:
    2f50:	0000b537          	lui	a0,0xb
    2f54:	50350513          	addi	a0,a0,1283 # b503 <_end+0x18fb>
    2f58:	ffff55b7          	lui	a1,0xffff5
    2f5c:	afd58593          	addi	a1,a1,-1283 # ffff4afd <immx+0x452e702d>
    2f60:	40b50633          	sub	a2,a0,a1
    2f64:	04c42023          	sw	a2,64(s0)

00002f68 <inst_549>:
    2f68:	0000b537          	lui	a0,0xb
    2f6c:	50350513          	addi	a0,a0,1283 # b503 <_end+0x18fb>
    2f70:	0000b5b7          	lui	a1,0xb
    2f74:	50558593          	addi	a1,a1,1285 # b505 <_end+0x18fd>
    2f78:	40b50633          	sub	a2,a0,a1
    2f7c:	04c42223          	sw	a2,68(s0)

00002f80 <inst_550>:
    2f80:	55555537          	lui	a0,0x55555
    2f84:	55650513          	addi	a0,a0,1366 # 55555556 <absimm+0x10263027>
    2f88:	00300593          	addi	a1,zero,3
    2f8c:	40b50633          	sub	a2,a0,a1
    2f90:	04c42423          	sw	a2,72(s0)

00002f94 <inst_551>:
    2f94:	55555537          	lui	a0,0x55555
    2f98:	55650513          	addi	a0,a0,1366 # 55555556 <absimm+0x10263027>
    2f9c:	555555b7          	lui	a1,0x55555
    2fa0:	55558593          	addi	a1,a1,1365 # 55555555 <absimm+0x10263026>
    2fa4:	40b50633          	sub	a2,a0,a1
    2fa8:	04c42623          	sw	a2,76(s0)

00002fac <inst_552>:
    2fac:	55555537          	lui	a0,0x55555
    2fb0:	55650513          	addi	a0,a0,1366 # 55555556 <absimm+0x10263027>
    2fb4:	aaaab5b7          	lui	a1,0xaaaab
    2fb8:	aaa58593          	addi	a1,a1,-1366 # aaaaaaaa <absimm+0x657b857b>
    2fbc:	40b50633          	sub	a2,a0,a1
    2fc0:	04c42823          	sw	a2,80(s0)

00002fc4 <inst_553>:
    2fc4:	55555537          	lui	a0,0x55555
    2fc8:	55650513          	addi	a0,a0,1366 # 55555556 <absimm+0x10263027>
    2fcc:	00500593          	addi	a1,zero,5
    2fd0:	40b50633          	sub	a2,a0,a1
    2fd4:	04c42a23          	sw	a2,84(s0)

00002fd8 <inst_554>:
    2fd8:	55555537          	lui	a0,0x55555
    2fdc:	55650513          	addi	a0,a0,1366 # 55555556 <absimm+0x10263027>
    2fe0:	333335b7          	lui	a1,0x33333
    2fe4:	33358593          	addi	a1,a1,819 # 33333333 <_end+0x3332972b>
    2fe8:	40b50633          	sub	a2,a0,a1
    2fec:	04c42c23          	sw	a2,88(s0)

00002ff0 <inst_555>:
    2ff0:	55555537          	lui	a0,0x55555
    2ff4:	55650513          	addi	a0,a0,1366 # 55555556 <absimm+0x10263027>
    2ff8:	666665b7          	lui	a1,0x66666
    2ffc:	66658593          	addi	a1,a1,1638 # 66666666 <absimm+0x21374137>
    3000:	40b50633          	sub	a2,a0,a1
    3004:	04c42e23          	sw	a2,92(s0)

00003008 <inst_556>:
    3008:	55555537          	lui	a0,0x55555
    300c:	55650513          	addi	a0,a0,1366 # 55555556 <absimm+0x10263027>
    3010:	ffff55b7          	lui	a1,0xffff5
    3014:	afc58593          	addi	a1,a1,-1284 # ffff4afc <immx+0x452e702c>
    3018:	40b50633          	sub	a2,a0,a1
    301c:	06c42023          	sw	a2,96(s0)

00003020 <inst_557>:
    3020:	55555537          	lui	a0,0x55555
    3024:	55650513          	addi	a0,a0,1366 # 55555556 <absimm+0x10263027>
    3028:	0000b5b7          	lui	a1,0xb
    302c:	50458593          	addi	a1,a1,1284 # b504 <_end+0x18fc>
    3030:	40b50633          	sub	a2,a0,a1
    3034:	06c42223          	sw	a2,100(s0)

00003038 <inst_558>:
    3038:	55555537          	lui	a0,0x55555
    303c:	55650513          	addi	a0,a0,1366 # 55555556 <absimm+0x10263027>
    3040:	00200593          	addi	a1,zero,2
    3044:	40b50633          	sub	a2,a0,a1
    3048:	06c42423          	sw	a2,104(s0)

0000304c <inst_559>:
    304c:	55555537          	lui	a0,0x55555
    3050:	55650513          	addi	a0,a0,1366 # 55555556 <absimm+0x10263027>
    3054:	555555b7          	lui	a1,0x55555
    3058:	55458593          	addi	a1,a1,1364 # 55555554 <absimm+0x10263025>
    305c:	40b50633          	sub	a2,a0,a1
    3060:	06c42623          	sw	a2,108(s0)

00003064 <inst_560>:
    3064:	55555537          	lui	a0,0x55555
    3068:	55650513          	addi	a0,a0,1366 # 55555556 <absimm+0x10263027>
    306c:	00000593          	addi	a1,zero,0
    3070:	40b50633          	sub	a2,a0,a1
    3074:	06c42823          	sw	a2,112(s0)

00003078 <inst_561>:
    3078:	55555537          	lui	a0,0x55555
    307c:	55650513          	addi	a0,a0,1366 # 55555556 <absimm+0x10263027>
    3080:	00400593          	addi	a1,zero,4
    3084:	40b50633          	sub	a2,a0,a1
    3088:	06c42a23          	sw	a2,116(s0)

0000308c <inst_562>:
    308c:	55555537          	lui	a0,0x55555
    3090:	55650513          	addi	a0,a0,1366 # 55555556 <absimm+0x10263027>
    3094:	333335b7          	lui	a1,0x33333
    3098:	33258593          	addi	a1,a1,818 # 33333332 <_end+0x3332972a>
    309c:	40b50633          	sub	a2,a0,a1
    30a0:	06c42c23          	sw	a2,120(s0)

000030a4 <inst_563>:
    30a4:	55555537          	lui	a0,0x55555
    30a8:	55650513          	addi	a0,a0,1366 # 55555556 <absimm+0x10263027>
    30ac:	666665b7          	lui	a1,0x66666
    30b0:	66558593          	addi	a1,a1,1637 # 66666665 <absimm+0x21374136>
    30b4:	40b50633          	sub	a2,a0,a1
    30b8:	06c42e23          	sw	a2,124(s0)

000030bc <inst_564>:
    30bc:	55555537          	lui	a0,0x55555
    30c0:	55650513          	addi	a0,a0,1366 # 55555556 <absimm+0x10263027>
    30c4:	0000b5b7          	lui	a1,0xb
    30c8:	50358593          	addi	a1,a1,1283 # b503 <_end+0x18fb>
    30cc:	40b50633          	sub	a2,a0,a1
    30d0:	08c42023          	sw	a2,128(s0)

000030d4 <inst_565>:
    30d4:	55555537          	lui	a0,0x55555
    30d8:	55650513          	addi	a0,a0,1366 # 55555556 <absimm+0x10263027>
    30dc:	555555b7          	lui	a1,0x55555
    30e0:	55658593          	addi	a1,a1,1366 # 55555556 <absimm+0x10263027>
    30e4:	40b50633          	sub	a2,a0,a1
    30e8:	08c42223          	sw	a2,132(s0)

000030ec <inst_566>:
    30ec:	55555537          	lui	a0,0x55555
    30f0:	55650513          	addi	a0,a0,1366 # 55555556 <absimm+0x10263027>
    30f4:	aaaab5b7          	lui	a1,0xaaaab
    30f8:	aab58593          	addi	a1,a1,-1365 # aaaaaaab <absimm+0x657b857c>
    30fc:	40b50633          	sub	a2,a0,a1
    3100:	08c42423          	sw	a2,136(s0)

00003104 <inst_567>:
    3104:	55555537          	lui	a0,0x55555
    3108:	55650513          	addi	a0,a0,1366 # 55555556 <absimm+0x10263027>
    310c:	00600593          	addi	a1,zero,6
    3110:	40b50633          	sub	a2,a0,a1
    3114:	08c42623          	sw	a2,140(s0)

00003118 <inst_568>:
    3118:	55555537          	lui	a0,0x55555
    311c:	55650513          	addi	a0,a0,1366 # 55555556 <absimm+0x10263027>
    3120:	333335b7          	lui	a1,0x33333
    3124:	33458593          	addi	a1,a1,820 # 33333334 <_end+0x3332972c>
    3128:	40b50633          	sub	a2,a0,a1
    312c:	08c42823          	sw	a2,144(s0)

00003130 <inst_569>:
    3130:	55555537          	lui	a0,0x55555
    3134:	55650513          	addi	a0,a0,1366 # 55555556 <absimm+0x10263027>
    3138:	666665b7          	lui	a1,0x66666
    313c:	66758593          	addi	a1,a1,1639 # 66666667 <absimm+0x21374138>
    3140:	40b50633          	sub	a2,a0,a1
    3144:	08c42a23          	sw	a2,148(s0)

00003148 <inst_570>:
    3148:	55555537          	lui	a0,0x55555
    314c:	55650513          	addi	a0,a0,1366 # 55555556 <absimm+0x10263027>
    3150:	ffff55b7          	lui	a1,0xffff5
    3154:	afd58593          	addi	a1,a1,-1283 # ffff4afd <immx+0x452e702d>
    3158:	40b50633          	sub	a2,a0,a1
    315c:	08c42c23          	sw	a2,152(s0)

00003160 <inst_571>:
    3160:	55555537          	lui	a0,0x55555
    3164:	55650513          	addi	a0,a0,1366 # 55555556 <absimm+0x10263027>
    3168:	0000b5b7          	lui	a1,0xb
    316c:	50558593          	addi	a1,a1,1285 # b505 <_end+0x18fd>
    3170:	40b50633          	sub	a2,a0,a1
    3174:	08c42e23          	sw	a2,156(s0)

00003178 <inst_572>:
    3178:	aaaab537          	lui	a0,0xaaaab
    317c:	aab50513          	addi	a0,a0,-1365 # aaaaaaab <absimm+0x657b857c>
    3180:	00300593          	addi	a1,zero,3
    3184:	40b50633          	sub	a2,a0,a1
    3188:	0ac42023          	sw	a2,160(s0)

0000318c <inst_573>:
    318c:	aaaab537          	lui	a0,0xaaaab
    3190:	aab50513          	addi	a0,a0,-1365 # aaaaaaab <absimm+0x657b857c>
    3194:	555555b7          	lui	a1,0x55555
    3198:	55558593          	addi	a1,a1,1365 # 55555555 <absimm+0x10263026>
    319c:	40b50633          	sub	a2,a0,a1
    31a0:	0ac42223          	sw	a2,164(s0)

000031a4 <inst_574>:
    31a4:	aaaab537          	lui	a0,0xaaaab
    31a8:	aab50513          	addi	a0,a0,-1365 # aaaaaaab <absimm+0x657b857c>
    31ac:	aaaab5b7          	lui	a1,0xaaaab
    31b0:	aaa58593          	addi	a1,a1,-1366 # aaaaaaaa <absimm+0x657b857b>
    31b4:	40b50633          	sub	a2,a0,a1
    31b8:	0ac42423          	sw	a2,168(s0)

000031bc <inst_575>:
    31bc:	aaaab537          	lui	a0,0xaaaab
    31c0:	aab50513          	addi	a0,a0,-1365 # aaaaaaab <absimm+0x657b857c>
    31c4:	00500593          	addi	a1,zero,5
    31c8:	40b50633          	sub	a2,a0,a1
    31cc:	0ac42623          	sw	a2,172(s0)

000031d0 <inst_576>:
    31d0:	aaaab537          	lui	a0,0xaaaab
    31d4:	aab50513          	addi	a0,a0,-1365 # aaaaaaab <absimm+0x657b857c>
    31d8:	333335b7          	lui	a1,0x33333
    31dc:	33358593          	addi	a1,a1,819 # 33333333 <_end+0x3332972b>
    31e0:	40b50633          	sub	a2,a0,a1
    31e4:	0ac42823          	sw	a2,176(s0)

000031e8 <inst_577>:
    31e8:	aaaab537          	lui	a0,0xaaaab
    31ec:	aab50513          	addi	a0,a0,-1365 # aaaaaaab <absimm+0x657b857c>
    31f0:	666665b7          	lui	a1,0x66666
    31f4:	66658593          	addi	a1,a1,1638 # 66666666 <absimm+0x21374137>
    31f8:	40b50633          	sub	a2,a0,a1
    31fc:	0ac42a23          	sw	a2,180(s0)

00003200 <inst_578>:
    3200:	aaaab537          	lui	a0,0xaaaab
    3204:	aab50513          	addi	a0,a0,-1365 # aaaaaaab <absimm+0x657b857c>
    3208:	ffff55b7          	lui	a1,0xffff5
    320c:	afc58593          	addi	a1,a1,-1284 # ffff4afc <immx+0x452e702c>
    3210:	40b50633          	sub	a2,a0,a1
    3214:	0ac42c23          	sw	a2,184(s0)

00003218 <inst_579>:
    3218:	aaaab537          	lui	a0,0xaaaab
    321c:	aab50513          	addi	a0,a0,-1365 # aaaaaaab <absimm+0x657b857c>
    3220:	0000b5b7          	lui	a1,0xb
    3224:	50458593          	addi	a1,a1,1284 # b504 <_end+0x18fc>
    3228:	40b50633          	sub	a2,a0,a1
    322c:	0ac42e23          	sw	a2,188(s0)

00003230 <inst_580>:
    3230:	aaaab537          	lui	a0,0xaaaab
    3234:	aab50513          	addi	a0,a0,-1365 # aaaaaaab <absimm+0x657b857c>
    3238:	00200593          	addi	a1,zero,2
    323c:	40b50633          	sub	a2,a0,a1
    3240:	0cc42023          	sw	a2,192(s0)

00003244 <inst_581>:
    3244:	aaaab537          	lui	a0,0xaaaab
    3248:	aab50513          	addi	a0,a0,-1365 # aaaaaaab <absimm+0x657b857c>
    324c:	555555b7          	lui	a1,0x55555
    3250:	55458593          	addi	a1,a1,1364 # 55555554 <absimm+0x10263025>
    3254:	40b50633          	sub	a2,a0,a1
    3258:	0cc42223          	sw	a2,196(s0)

0000325c <inst_582>:
    325c:	aaaab537          	lui	a0,0xaaaab
    3260:	aab50513          	addi	a0,a0,-1365 # aaaaaaab <absimm+0x657b857c>
    3264:	00000593          	addi	a1,zero,0
    3268:	40b50633          	sub	a2,a0,a1
    326c:	0cc42423          	sw	a2,200(s0)

00003270 <inst_583>:
    3270:	aaaab537          	lui	a0,0xaaaab
    3274:	aab50513          	addi	a0,a0,-1365 # aaaaaaab <absimm+0x657b857c>
    3278:	00400593          	addi	a1,zero,4
    327c:	40b50633          	sub	a2,a0,a1
    3280:	0cc42623          	sw	a2,204(s0)

00003284 <inst_584>:
    3284:	aaaab537          	lui	a0,0xaaaab
    3288:	aab50513          	addi	a0,a0,-1365 # aaaaaaab <absimm+0x657b857c>
    328c:	333335b7          	lui	a1,0x33333
    3290:	33258593          	addi	a1,a1,818 # 33333332 <_end+0x3332972a>
    3294:	40b50633          	sub	a2,a0,a1
    3298:	0cc42823          	sw	a2,208(s0)

0000329c <inst_585>:
    329c:	aaaab537          	lui	a0,0xaaaab
    32a0:	aab50513          	addi	a0,a0,-1365 # aaaaaaab <absimm+0x657b857c>
    32a4:	666665b7          	lui	a1,0x66666
    32a8:	66558593          	addi	a1,a1,1637 # 66666665 <absimm+0x21374136>
    32ac:	40b50633          	sub	a2,a0,a1
    32b0:	0cc42a23          	sw	a2,212(s0)

000032b4 <inst_586>:
    32b4:	aaaab537          	lui	a0,0xaaaab
    32b8:	aab50513          	addi	a0,a0,-1365 # aaaaaaab <absimm+0x657b857c>
    32bc:	0000b5b7          	lui	a1,0xb
    32c0:	50358593          	addi	a1,a1,1283 # b503 <_end+0x18fb>
    32c4:	40b50633          	sub	a2,a0,a1
    32c8:	0cc42c23          	sw	a2,216(s0)

000032cc <inst_587>:
    32cc:	aaaab537          	lui	a0,0xaaaab
    32d0:	aab50513          	addi	a0,a0,-1365 # aaaaaaab <absimm+0x657b857c>
    32d4:	555555b7          	lui	a1,0x55555
    32d8:	55658593          	addi	a1,a1,1366 # 55555556 <absimm+0x10263027>
    32dc:	40b50633          	sub	a2,a0,a1
    32e0:	0cc42e23          	sw	a2,220(s0)

000032e4 <inst_588>:
    32e4:	ff900513          	addi	a0,zero,-7
    32e8:	f7f00593          	addi	a1,zero,-129
    32ec:	40b50633          	sub	a2,a0,a1
    32f0:	0ec42023          	sw	a2,224(s0)

000032f4 <inst_589>:
    32f4:	02000513          	addi	a0,zero,32
    32f8:	00000593          	addi	a1,zero,0
    32fc:	40b50633          	sub	a2,a0,a1
    3300:	0ec42223          	sw	a2,228(s0)

00003304 <inst_590>:
    3304:	00900513          	addi	a0,zero,9
    3308:	08000593          	addi	a1,zero,128
    330c:	40b50633          	sub	a2,a0,a1
    3310:	0ec42423          	sw	a2,232(s0)

00003314 <inst_591>:
    3314:	80000537          	lui	a0,0x80000
    3318:	000015b7          	lui	a1,0x1
    331c:	80058593          	addi	a1,a1,-2048 # 800 <inst_85+0x4>
    3320:	40b50633          	sub	a2,a0,a1
    3324:	0ec42623          	sw	a2,236(s0)

00003328 <cleanup_epilogs>:
    3328:	0200006f          	jal	zero,3348 <exit_cleanup>

0000332c <abort_tests>:
    332c:	17812483          	lw	s1,376(sp) # 800178 <_end+0x7f6570>
    3330:	18012303          	lw	t1,384(sp)
    3334:	00930333          	add	t1,t1,s1
    3338:	bad0e337          	lui	t1,0xbad0e
    333c:	ad030313          	addi	t1,t1,-1328 # bad0dad0 <immx>
    3340:	fe64ae23          	sw	t1,-4(s1)
    3344:	0040006f          	jal	zero,3348 <exit_cleanup>

00003348 <exit_cleanup>:
    3348:	00006517          	auipc	a0,0x6
    334c:	dc850513          	addi	a0,a0,-568 # 9110 <begin_signature>
    3350:	00006597          	auipc	a1,0x6
    3354:	71058593          	addi	a1,a1,1808 # 9a60 <end_signature>
    3358:	00008637          	lui	a2,0x8
    335c:	00460613          	addi	a2,a2,4 # 8004 <rvtest_data_begin+0x4>

00003360 <sig_dump_loop>:
    3360:	00052283          	lw	t0,0(a0)
    3364:	00562023          	sw	t0,0(a2)
    3368:	00450513          	addi	a0,a0,4
    336c:	00b55463          	bge	a0,a1,3374 <end_sim>
    3370:	ff1ff06f          	jal	zero,3360 <sig_dump_loop>

00003374 <end_sim>:
    3374:	00008537          	lui	a0,0x8
    3378:	00850513          	addi	a0,a0,8 # 8008 <rvtest_data_begin+0x8>
    337c:	cafed5b7          	lui	a1,0xcafed
    3380:	afe58593          	addi	a1,a1,-1282 # cafecafe <immx+0x102df02e>
    3384:	00b52023          	sw	a1,0(a0)
    3388:	fedff06f          	jal	zero,3374 <end_sim>
	...
