
my.elf:     file format elf32-littleriscv


Disassembly of section .text.init:

00000000 <rvtest_entry_point>:
       0:	7d5c0837          	lui	a6,0x7d5c0
       4:	ddb80813          	addi	a6,a6,-549 # 7d5bfddb <absimm+0x382cd8ac>
       8:	00785893          	srli	a7,a6,0x7
       c:	01985793          	srli	a5,a6,0x19
      10:	00f8e8b3          	or	a7,a7,a5
      14:	0078d913          	srli	s2,a7,0x7
      18:	0198d793          	srli	a5,a7,0x19
      1c:	00f96933          	or	s2,s2,a5
      20:	00795993          	srli	s3,s2,0x7
      24:	01995793          	srli	a5,s2,0x19
      28:	00f9e9b3          	or	s3,s3,a5
      2c:	0079da13          	srli	s4,s3,0x7
      30:	0199d793          	srli	a5,s3,0x19
      34:	00fa6a33          	or	s4,s4,a5
      38:	007a5a93          	srli	s5,s4,0x7
      3c:	019a5793          	srli	a5,s4,0x19
      40:	00faeab3          	or	s5,s5,a5
      44:	007adb13          	srli	s6,s5,0x7
      48:	019ad793          	srli	a5,s5,0x19
      4c:	00fb6b33          	or	s6,s6,a5
      50:	007b5b93          	srli	s7,s6,0x7
      54:	019b5793          	srli	a5,s6,0x19
      58:	00fbebb3          	or	s7,s7,a5
      5c:	007bdc13          	srli	s8,s7,0x7
      60:	019bd793          	srli	a5,s7,0x19
      64:	00fc6c33          	or	s8,s8,a5
      68:	007c5c93          	srli	s9,s8,0x7
      6c:	019c5793          	srli	a5,s8,0x19
      70:	00fcecb3          	or	s9,s9,a5
      74:	007cdd13          	srli	s10,s9,0x7
      78:	019cd793          	srli	a5,s9,0x19
      7c:	00fd6d33          	or	s10,s10,a5
      80:	007d5d93          	srli	s11,s10,0x7
      84:	019d5793          	srli	a5,s10,0x19
      88:	00fdedb3          	or	s11,s11,a5
      8c:	007dde13          	srli	t3,s11,0x7
      90:	019dd793          	srli	a5,s11,0x19
      94:	00fe6e33          	or	t3,t3,a5
      98:	007e5e93          	srli	t4,t3,0x7
      9c:	019e5793          	srli	a5,t3,0x19
      a0:	00feeeb3          	or	t4,t4,a5
      a4:	007edf13          	srli	t5,t4,0x7
      a8:	019ed793          	srli	a5,t4,0x19
      ac:	00ff6f33          	or	t5,t5,a5
      b0:	feedc0b7          	lui	ra,0xfeedc
      b4:	ead08093          	addi	ra,ra,-339 # feedbead <immx+0x441ce3dd>
      b8:	0070d113          	srli	sp,ra,0x7
      bc:	0190d793          	srli	a5,ra,0x19
      c0:	00f16133          	or	sp,sp,a5
      c4:	00715193          	srli	gp,sp,0x7
      c8:	01915793          	srli	a5,sp,0x19
      cc:	00f1e1b3          	or	gp,gp,a5
      d0:	0071d213          	srli	tp,gp,0x7
      d4:	0191d793          	srli	a5,gp,0x19
      d8:	00f26233          	or	tp,tp,a5
      dc:	00725293          	srli	t0,tp,0x7
      e0:	01925793          	srli	a5,tp,0x19
      e4:	00f2e2b3          	or	t0,t0,a5
      e8:	0072d313          	srli	t1,t0,0x7
      ec:	0192d793          	srli	a5,t0,0x19
      f0:	00f36333          	or	t1,t1,a5
      f4:	00735393          	srli	t2,t1,0x7
      f8:	01935793          	srli	a5,t1,0x19
      fc:	00f3e3b3          	or	t2,t2,a5
     100:	0073d413          	srli	s0,t2,0x7
     104:	0193d793          	srli	a5,t2,0x19
     108:	00f46433          	or	s0,s0,a5
     10c:	00745493          	srli	s1,s0,0x7
     110:	01945793          	srli	a5,s0,0x19
     114:	00f4e4b3          	or	s1,s1,a5
     118:	0074d513          	srli	a0,s1,0x7
     11c:	0194d793          	srli	a5,s1,0x19
     120:	00f56533          	or	a0,a0,a5
     124:	00755593          	srli	a1,a0,0x7
     128:	01955793          	srli	a5,a0,0x19
     12c:	00f5e5b3          	or	a1,a1,a5
     130:	0075d613          	srli	a2,a1,0x7
     134:	0195d793          	srli	a5,a1,0x19
     138:	00f66633          	or	a2,a2,a5
     13c:	00765693          	srli	a3,a2,0x7
     140:	01965793          	srli	a5,a2,0x19
     144:	00f6e6b3          	or	a3,a3,a5

00000148 <rvtest_code_begin>:
     148:	00000013          	addi	zero,zero,0
     14c:	00000013          	addi	zero,zero,0
     150:	00000013          	addi	zero,zero,0
     154:	00000013          	addi	zero,zero,0
     158:	00000013          	addi	zero,zero,0
     15c:	00000013          	addi	zero,zero,0
     160:	00009397          	auipc	t2,0x9
     164:	fb438393          	addi	t2,t2,-76 # 9114 <signature_x7_0>
     168:	00000013          	addi	zero,zero,0
     16c:	00000013          	addi	zero,zero,0
     170:	00000013          	addi	zero,zero,0
     174:	00000013          	addi	zero,zero,0
     178:	00000013          	addi	zero,zero,0
     17c:	00000013          	addi	zero,zero,0

00000180 <inst_0>:
     180:	66666db7          	lui	s11,0x66666
     184:	665d8d93          	addi	s11,s11,1637 # 66666665 <absimm+0x21374136>
     188:	00300c13          	addi	s8,zero,3
     18c:	018dcc33          	xor	s8,s11,s8
     190:	0183a023          	sw	s8,0(t2)

00000194 <inst_1>:
     194:	00500693          	addi	a3,zero,5
     198:	00500693          	addi	a3,zero,5
     19c:	00d6c533          	xor	a0,a3,a3
     1a0:	00a3a223          	sw	a0,4(t2)

000001a4 <inst_2>:
     1a4:	ffffcbb7          	lui	s7,0xffffc
     1a8:	fffb8b93          	addi	s7,s7,-1 # ffffbfff <immx+0x452ee52f>
     1ac:	ffffcbb7          	lui	s7,0xffffc
     1b0:	fffb8b93          	addi	s7,s7,-1 # ffffbfff <immx+0x452ee52f>
     1b4:	017bcbb3          	xor	s7,s7,s7
     1b8:	0173a423          	sw	s7,8(t2)

000001bc <inst_3>:
     1bc:	fbf00e13          	addi	t3,zero,-65
     1c0:	00800713          	addi	a4,zero,8
     1c4:	00ee4e33          	xor	t3,t3,a4
     1c8:	01c3a623          	sw	t3,12(t2)

000001cc <inst_4>:
     1cc:	fff00093          	addi	ra,zero,-1
     1d0:	fff00113          	addi	sp,zero,-1
     1d4:	0020c933          	xor	s2,ra,sp
     1d8:	0123a823          	sw	s2,16(t2)

000001dc <inst_5>:
     1dc:	004002b7          	lui	t0,0x400
     1e0:	80000b37          	lui	s6,0x80000
     1e4:	0162c9b3          	xor	s3,t0,s6
     1e8:	0133aa23          	sw	s3,20(t2)

000001ec <inst_6>:
     1ec:	fef00d13          	addi	s10,zero,-17
     1f0:	00000613          	addi	a2,zero,0
     1f4:	00cd46b3          	xor	a3,s10,a2
     1f8:	00d3ac23          	sw	a3,24(t2)

000001fc <inst_7>:
     1fc:	aaaab637          	lui	a2,0xaaaab
     200:	aaa60613          	addi	a2,a2,-1366 # aaaaaaaa <absimm+0x657b857b>
     204:	800005b7          	lui	a1,0x80000
     208:	fff58593          	addi	a1,a1,-1 # 7fffffff <absimm+0x3ad0dad0>
     20c:	00b64233          	xor	tp,a2,a1
     210:	0043ae23          	sw	tp,28(t2)

00000214 <inst_8>:
     214:	00100993          	addi	s3,zero,1
     218:	00100f13          	addi	t5,zero,1
     21c:	01e9c8b3          	xor	a7,s3,t5
     220:	0313a023          	sw	a7,32(t2)

00000224 <inst_9>:
     224:	800005b7          	lui	a1,0x80000
     228:	f00000b7          	lui	ra,0xf0000
     22c:	fff08093          	addi	ra,ra,-1 # efffffff <immx+0x352f252f>
     230:	0015c1b3          	xor	gp,a1,ra
     234:	0233a223          	sw	gp,36(t2)

00000238 <inst_10>:
     238:	00000c13          	addi	s8,zero,0
     23c:	ffff5eb7          	lui	t4,0xffff5
     240:	afce8e93          	addi	t4,t4,-1284 # ffff4afc <immx+0x452e702c>
     244:	01dc4433          	xor	s0,s8,t4
     248:	0283a423          	sw	s0,40(t2)

0000024c <inst_11>:
     24c:	00000013          	addi	zero,zero,0
     250:	00001937          	lui	s2,0x1
     254:	012044b3          	xor	s1,zero,s2
     258:	0293a623          	sw	s1,44(t2)

0000025c <inst_12>:
     25c:	00080537          	lui	a0,0x80
     260:	00200313          	addi	t1,zero,2
     264:	00654d33          	xor	s10,a0,t1
     268:	03a3a823          	sw	s10,48(t2)

0000026c <inst_13>:
     26c:	fdf00b13          	addi	s6,zero,-33
     270:	00400f93          	addi	t6,zero,4
     274:	01fb4f33          	xor	t5,s6,t6
     278:	03e3aa23          	sw	t5,52(t2)

0000027c <inst_14>:
     27c:	00600413          	addi	s0,zero,6
     280:	00000013          	addi	zero,zero,0
     284:	00044833          	xor	a6,s0,zero
     288:	0303ac23          	sw	a6,56(t2)

0000028c <inst_15>:
     28c:	00500813          	addi	a6,zero,5
     290:	02000d93          	addi	s11,zero,32
     294:	01b847b3          	xor	a5,a6,s11
     298:	02f3ae23          	sw	a5,60(t2)

0000029c <inst_16>:
     29c:	ffe001b7          	lui	gp,0xffe00
     2a0:	fff18193          	addi	gp,gp,-1 # ffdfffff <immx+0x450f252f>
     2a4:	04000d13          	addi	s10,zero,64
     2a8:	01a1cfb3          	xor	t6,gp,s10
     2ac:	05f3a023          	sw	t6,64(t2)

000002b0 <inst_17>:
     2b0:	ffff84b7          	lui	s1,0xffff8
     2b4:	fff48493          	addi	s1,s1,-1 # ffff7fff <immx+0x452ea52f>
     2b8:	08000c93          	addi	s9,zero,128
     2bc:	0194c733          	xor	a4,s1,s9
     2c0:	04e3a223          	sw	a4,68(t2)
     2c4:	00000013          	addi	zero,zero,0
     2c8:	00000013          	addi	zero,zero,0
     2cc:	00000013          	addi	zero,zero,0
     2d0:	00000013          	addi	zero,zero,0
     2d4:	00000013          	addi	zero,zero,0
     2d8:	00000013          	addi	zero,zero,0
     2dc:	00000013          	addi	zero,zero,0
     2e0:	00009697          	auipc	a3,0x9
     2e4:	e7c68693          	addi	a3,a3,-388 # 915c <signature_x13_0>
     2e8:	00000013          	addi	zero,zero,0
     2ec:	00000013          	addi	zero,zero,0
     2f0:	00000013          	addi	zero,zero,0
     2f4:	00000013          	addi	zero,zero,0
     2f8:	00000013          	addi	zero,zero,0
     2fc:	00000013          	addi	zero,zero,0

00000300 <inst_18>:
     300:	55555f37          	lui	t5,0x55555
     304:	556f0f13          	addi	t5,t5,1366 # 55555556 <absimm+0x10263027>
     308:	10000513          	addi	a0,zero,256
     30c:	00af4333          	xor	t1,t5,a0
     310:	0066a023          	sw	t1,0(a3)

00000314 <inst_19>:
     314:	ffffc137          	lui	sp,0xffffc
     318:	fff10113          	addi	sp,sp,-1 # ffffbfff <immx+0x452ee52f>
     31c:	20000493          	addi	s1,zero,512
     320:	009143b3          	xor	t2,sp,s1
     324:	0076a223          	sw	t2,4(a3)

00000328 <inst_20>:
     328:	08000313          	addi	t1,zero,128
     32c:	40000893          	addi	a7,zero,1024
     330:	01134033          	xor	zero,t1,a7
     334:	0006a423          	sw	zero,8(a3)

00000338 <inst_21>:
     338:	ffff87b7          	lui	a5,0xffff8
     33c:	fff78793          	addi	a5,a5,-1 # ffff7fff <immx+0x452ea52f>
     340:	000012b7          	lui	t0,0x1
     344:	80028293          	addi	t0,t0,-2048 # 800 <inst_84+0xc>
     348:	0057c133          	xor	sp,a5,t0
     34c:	0026a623          	sw	sp,12(a3)

00000350 <inst_22>:
     350:	00600393          	addi	t2,zero,6
     354:	000027b7          	lui	a5,0x2
     358:	00f3cb33          	xor	s6,t2,a5
     35c:	0166a823          	sw	s6,16(a3)

00000360 <inst_23>:
     360:	ff700713          	addi	a4,zero,-9
     364:	00004837          	lui	a6,0x4
     368:	01074a33          	xor	s4,a4,a6
     36c:	0146aa23          	sw	s4,20(a3)

00000370 <inst_24>:
     370:	00008eb7          	lui	t4,0x8
     374:	00008a37          	lui	s4,0x8
     378:	014ec0b3          	xor	ra,t4,s4
     37c:	0016ac23          	sw	ra,24(a3)

00000380 <inst_25>:
     380:	00400913          	addi	s2,zero,4
     384:	00010437          	lui	s0,0x10
     388:	00894633          	xor	a2,s2,s0
     38c:	00c6ae23          	sw	a2,28(a3)

00000390 <inst_26>:
     390:	33333ab7          	lui	s5,0x33333
     394:	332a8a93          	addi	s5,s5,818 # 33333332 <_end+0x3332972a>
     398:	00020e37          	lui	t3,0x20
     39c:	01cac2b3          	xor	t0,s5,t3
     3a0:	0256a023          	sw	t0,32(a3)

000003a4 <inst_27>:
     3a4:	fc0008b7          	lui	a7,0xfc000
     3a8:	fff88893          	addi	a7,a7,-1 # fbffffff <immx+0x412f252f>
     3ac:	00040237          	lui	tp,0x40
     3b0:	0048c5b3          	xor	a1,a7,tp
     3b4:	02b6a223          	sw	a1,36(a3)

000003b8 <inst_28>:
     3b8:	00700213          	addi	tp,zero,7
     3bc:	00080ab7          	lui	s5,0x80
     3c0:	01524db3          	xor	s11,tp,s5
     3c4:	03b6a423          	sw	s11,40(a3)

000003c8 <inst_29>:
     3c8:	fff00f93          	addi	t6,zero,-1
     3cc:	001001b7          	lui	gp,0x100
     3d0:	003fceb3          	xor	t4,t6,gp
     3d4:	03d6a623          	sw	t4,44(a3)

000003d8 <inst_30>:
     3d8:	0000bcb7          	lui	s9,0xb
     3dc:	505c8c93          	addi	s9,s9,1285 # b505 <_end+0x18fd>
     3e0:	002003b7          	lui	t2,0x200
     3e4:	007ccab3          	xor	s5,s9,t2
     3e8:	0356a823          	sw	s5,48(a3)

000003ec <inst_31>:
     3ec:	0000ba37          	lui	s4,0xb
     3f0:	505a0a13          	addi	s4,s4,1285 # b505 <_end+0x18fd>
     3f4:	004009b7          	lui	s3,0x400
     3f8:	013a4cb3          	xor	s9,s4,s3
     3fc:	0396aa23          	sw	s9,52(a3)

00000400 <inst_32>:
     400:	00100513          	addi	a0,zero,1
     404:	008005b7          	lui	a1,0x800
     408:	00b54633          	xor	a2,a0,a1
     40c:	02c6ac23          	sw	a2,56(a3)

00000410 <inst_33>:
     410:	f0000537          	lui	a0,0xf0000
     414:	fff50513          	addi	a0,a0,-1 # efffffff <immx+0x352f252f>
     418:	010005b7          	lui	a1,0x1000
     41c:	00b54633          	xor	a2,a0,a1
     420:	02c6ae23          	sw	a2,60(a3)

00000424 <inst_34>:
     424:	0000b537          	lui	a0,0xb
     428:	50550513          	addi	a0,a0,1285 # b505 <_end+0x18fd>
     42c:	020005b7          	lui	a1,0x2000
     430:	00b54633          	xor	a2,a0,a1
     434:	04c6a023          	sw	a2,64(a3)

00000438 <inst_35>:
     438:	ff800537          	lui	a0,0xff800
     43c:	fff50513          	addi	a0,a0,-1 # ff7fffff <immx+0x44af252f>
     440:	040005b7          	lui	a1,0x4000
     444:	00b54633          	xor	a2,a0,a1
     448:	04c6a223          	sw	a2,68(a3)

0000044c <inst_36>:
     44c:	00001537          	lui	a0,0x1
     450:	080005b7          	lui	a1,0x8000
     454:	00b54633          	xor	a2,a0,a1
     458:	04c6a423          	sw	a2,72(a3)

0000045c <inst_37>:
     45c:	ff700513          	addi	a0,zero,-9
     460:	100005b7          	lui	a1,0x10000
     464:	00b54633          	xor	a2,a0,a1
     468:	04c6a623          	sw	a2,76(a3)

0000046c <inst_38>:
     46c:	fe000537          	lui	a0,0xfe000
     470:	fff50513          	addi	a0,a0,-1 # fdffffff <immx+0x432f252f>
     474:	200005b7          	lui	a1,0x20000
     478:	00b54633          	xor	a2,a0,a1
     47c:	04c6a823          	sw	a2,80(a3)

00000480 <inst_39>:
     480:	fffe0537          	lui	a0,0xfffe0
     484:	fff50513          	addi	a0,a0,-1 # fffdffff <immx+0x452d252f>
     488:	400005b7          	lui	a1,0x40000
     48c:	00b54633          	xor	a2,a0,a1
     490:	04c6aa23          	sw	a2,84(a3)

00000494 <inst_40>:
     494:	fe000537          	lui	a0,0xfe000
     498:	fff50513          	addi	a0,a0,-1 # fdffffff <immx+0x432f252f>
     49c:	ffe00593          	addi	a1,zero,-2
     4a0:	00b54633          	xor	a2,a0,a1
     4a4:	04c6ac23          	sw	a2,88(a3)

000004a8 <inst_41>:
     4a8:	40000537          	lui	a0,0x40000
     4ac:	ffd00593          	addi	a1,zero,-3
     4b0:	00b54633          	xor	a2,a0,a1
     4b4:	04c6ae23          	sw	a2,92(a3)

000004b8 <inst_42>:
     4b8:	66666537          	lui	a0,0x66666
     4bc:	66650513          	addi	a0,a0,1638 # 66666666 <absimm+0x21374137>
     4c0:	ffb00593          	addi	a1,zero,-5
     4c4:	00b54633          	xor	a2,a0,a1
     4c8:	06c6a023          	sw	a2,96(a3)

000004cc <inst_43>:
     4cc:	02000537          	lui	a0,0x2000
     4d0:	ff700593          	addi	a1,zero,-9
     4d4:	00b54633          	xor	a2,a0,a1
     4d8:	06c6a223          	sw	a2,100(a3)

000004dc <inst_44>:
     4dc:	fdf00513          	addi	a0,zero,-33
     4e0:	fef00593          	addi	a1,zero,-17
     4e4:	00b54633          	xor	a2,a0,a1
     4e8:	06c6a423          	sw	a2,104(a3)

000004ec <inst_45>:
     4ec:	00400513          	addi	a0,zero,4
     4f0:	fdf00593          	addi	a1,zero,-33
     4f4:	00b54633          	xor	a2,a0,a1
     4f8:	06c6a623          	sw	a2,108(a3)

000004fc <inst_46>:
     4fc:	00300513          	addi	a0,zero,3
     500:	fbf00593          	addi	a1,zero,-65
     504:	00b54633          	xor	a2,a0,a1
     508:	06c6a823          	sw	a2,112(a3)

0000050c <inst_47>:
     50c:	00020537          	lui	a0,0x20
     510:	f7f00593          	addi	a1,zero,-129
     514:	00b54633          	xor	a2,a0,a1
     518:	06c6aa23          	sw	a2,116(a3)

0000051c <inst_48>:
     51c:	f0000537          	lui	a0,0xf0000
     520:	fff50513          	addi	a0,a0,-1 # efffffff <immx+0x352f252f>
     524:	eff00593          	addi	a1,zero,-257
     528:	00b54633          	xor	a2,a0,a1
     52c:	06c6ac23          	sw	a2,120(a3)

00000530 <inst_49>:
     530:	ffb00513          	addi	a0,zero,-5
     534:	dff00593          	addi	a1,zero,-513
     538:	00b54633          	xor	a2,a0,a1
     53c:	06c6ae23          	sw	a2,124(a3)

00000540 <inst_50>:
     540:	fef00513          	addi	a0,zero,-17
     544:	bff00593          	addi	a1,zero,-1025
     548:	00b54633          	xor	a2,a0,a1
     54c:	08c6a023          	sw	a2,128(a3)

00000550 <inst_51>:
     550:	ffff5537          	lui	a0,0xffff5
     554:	afc50513          	addi	a0,a0,-1284 # ffff4afc <immx+0x452e702c>
     558:	fffff5b7          	lui	a1,0xfffff
     55c:	7ff58593          	addi	a1,a1,2047 # fffff7ff <immx+0x452f1d2f>
     560:	00b54633          	xor	a2,a0,a1
     564:	08c6a223          	sw	a2,132(a3)

00000568 <inst_52>:
     568:	00200513          	addi	a0,zero,2
     56c:	fffff5b7          	lui	a1,0xfffff
     570:	fff58593          	addi	a1,a1,-1 # ffffefff <immx+0x452f152f>
     574:	00b54633          	xor	a2,a0,a1
     578:	08c6a423          	sw	a2,136(a3)

0000057c <inst_53>:
     57c:	ff900513          	addi	a0,zero,-7
     580:	ffffe5b7          	lui	a1,0xffffe
     584:	fff58593          	addi	a1,a1,-1 # ffffdfff <immx+0x452f052f>
     588:	00b54633          	xor	a2,a0,a1
     58c:	08c6a623          	sw	a2,140(a3)

00000590 <inst_54>:
     590:	ff000537          	lui	a0,0xff000
     594:	fff50513          	addi	a0,a0,-1 # feffffff <immx+0x442f252f>
     598:	ffffc5b7          	lui	a1,0xffffc
     59c:	fff58593          	addi	a1,a1,-1 # ffffbfff <immx+0x452ee52f>
     5a0:	00b54633          	xor	a2,a0,a1
     5a4:	08c6a823          	sw	a2,144(a3)

000005a8 <inst_55>:
     5a8:	00300513          	addi	a0,zero,3
     5ac:	ffff85b7          	lui	a1,0xffff8
     5b0:	fff58593          	addi	a1,a1,-1 # ffff7fff <immx+0x452ea52f>
     5b4:	00b54633          	xor	a2,a0,a1
     5b8:	08c6aa23          	sw	a2,148(a3)

000005bc <inst_56>:
     5bc:	00004537          	lui	a0,0x4
     5c0:	fffe05b7          	lui	a1,0xfffe0
     5c4:	fff58593          	addi	a1,a1,-1 # fffdffff <immx+0x452d252f>
     5c8:	00b54633          	xor	a2,a0,a1
     5cc:	08c6ac23          	sw	a2,152(a3)

000005d0 <inst_57>:
     5d0:	00040537          	lui	a0,0x40
     5d4:	fffc05b7          	lui	a1,0xfffc0
     5d8:	fff58593          	addi	a1,a1,-1 # fffbffff <immx+0x452b252f>
     5dc:	00b54633          	xor	a2,a0,a1
     5e0:	08c6ae23          	sw	a2,156(a3)

000005e4 <inst_58>:
     5e4:	10000537          	lui	a0,0x10000
     5e8:	fff805b7          	lui	a1,0xfff80
     5ec:	fff58593          	addi	a1,a1,-1 # fff7ffff <immx+0x4527252f>
     5f0:	00b54633          	xor	a2,a0,a1
     5f4:	0ac6a023          	sw	a2,160(a3)

000005f8 <inst_59>:
     5f8:	80000537          	lui	a0,0x80000
     5fc:	fff005b7          	lui	a1,0xfff00
     600:	fff58593          	addi	a1,a1,-1 # ffefffff <immx+0x451f252f>
     604:	00b54633          	xor	a2,a0,a1
     608:	0ac6a223          	sw	a2,164(a3)

0000060c <inst_60>:
     60c:	00008537          	lui	a0,0x8
     610:	ffe005b7          	lui	a1,0xffe00
     614:	fff58593          	addi	a1,a1,-1 # ffdfffff <immx+0x450f252f>
     618:	00b54633          	xor	a2,a0,a1
     61c:	0ac6a423          	sw	a2,168(a3)

00000620 <inst_61>:
     620:	80000537          	lui	a0,0x80000
     624:	ffc005b7          	lui	a1,0xffc00
     628:	fff58593          	addi	a1,a1,-1 # ffbfffff <immx+0x44ef252f>
     62c:	00b54633          	xor	a2,a0,a1
     630:	0ac6a623          	sw	a2,172(a3)

00000634 <inst_62>:
     634:	33333537          	lui	a0,0x33333
     638:	33450513          	addi	a0,a0,820 # 33333334 <_end+0x3332972c>
     63c:	ff8005b7          	lui	a1,0xff800
     640:	fff58593          	addi	a1,a1,-1 # ff7fffff <immx+0x44af252f>
     644:	00b54633          	xor	a2,a0,a1
     648:	0ac6a823          	sw	a2,176(a3)

0000064c <inst_63>:
     64c:	c0000537          	lui	a0,0xc0000
     650:	ff0005b7          	lui	a1,0xff000
     654:	fff58593          	addi	a1,a1,-1 # feffffff <immx+0x442f252f>
     658:	00b54633          	xor	a2,a0,a1
     65c:	0ac6aa23          	sw	a2,180(a3)

00000660 <inst_64>:
     660:	fe000537          	lui	a0,0xfe000
     664:	fff50513          	addi	a0,a0,-1 # fdffffff <immx+0x432f252f>
     668:	fe0005b7          	lui	a1,0xfe000
     66c:	fff58593          	addi	a1,a1,-1 # fdffffff <immx+0x432f252f>
     670:	00b54633          	xor	a2,a0,a1
     674:	0ac6ac23          	sw	a2,184(a3)

00000678 <inst_65>:
     678:	00100513          	addi	a0,zero,1
     67c:	fc0005b7          	lui	a1,0xfc000
     680:	fff58593          	addi	a1,a1,-1 # fbffffff <immx+0x412f252f>
     684:	00b54633          	xor	a2,a0,a1
     688:	0ac6ae23          	sw	a2,188(a3)

0000068c <inst_66>:
     68c:	66666537          	lui	a0,0x66666
     690:	66650513          	addi	a0,a0,1638 # 66666666 <absimm+0x21374137>
     694:	f80005b7          	lui	a1,0xf8000
     698:	fff58593          	addi	a1,a1,-1 # f7ffffff <immx+0x3d2f252f>
     69c:	00b54633          	xor	a2,a0,a1
     6a0:	0cc6a023          	sw	a2,192(a3)

000006a4 <inst_67>:
     6a4:	fff80537          	lui	a0,0xfff80
     6a8:	fff50513          	addi	a0,a0,-1 # fff7ffff <immx+0x4527252f>
     6ac:	e00005b7          	lui	a1,0xe0000
     6b0:	fff58593          	addi	a1,a1,-1 # dfffffff <immx+0x252f252f>
     6b4:	00b54633          	xor	a2,a0,a1
     6b8:	0cc6a223          	sw	a2,196(a3)

000006bc <inst_68>:
     6bc:	ffff5537          	lui	a0,0xffff5
     6c0:	afc50513          	addi	a0,a0,-1284 # ffff4afc <immx+0x452e702c>
     6c4:	c00005b7          	lui	a1,0xc0000
     6c8:	fff58593          	addi	a1,a1,-1 # bfffffff <immx+0x52f252f>
     6cc:	00b54633          	xor	a2,a0,a1
     6d0:	0cc6a423          	sw	a2,200(a3)

000006d4 <inst_69>:
     6d4:	55555537          	lui	a0,0x55555
     6d8:	55450513          	addi	a0,a0,1364 # 55555554 <absimm+0x10263025>
     6dc:	555555b7          	lui	a1,0x55555
     6e0:	55558593          	addi	a1,a1,1365 # 55555555 <absimm+0x10263026>
     6e4:	00b54633          	xor	a2,a0,a1
     6e8:	0cc6a623          	sw	a2,204(a3)

000006ec <inst_70>:
     6ec:	02000537          	lui	a0,0x2000
     6f0:	aaaab5b7          	lui	a1,0xaaaab
     6f4:	aaa58593          	addi	a1,a1,-1366 # aaaaaaaa <absimm+0x657b857b>
     6f8:	00b54633          	xor	a2,a0,a1
     6fc:	0cc6a823          	sw	a2,208(a3)

00000700 <inst_71>:
     700:	00800513          	addi	a0,zero,8
     704:	ffc00593          	addi	a1,zero,-4
     708:	00b54633          	xor	a2,a0,a1
     70c:	0cc6aa23          	sw	a2,212(a3)

00000710 <inst_72>:
     710:	01000513          	addi	a0,zero,16
     714:	01000593          	addi	a1,zero,16
     718:	00b54633          	xor	a2,a0,a1
     71c:	0cc6ac23          	sw	a2,216(a3)

00000720 <inst_73>:
     720:	02000513          	addi	a0,zero,32
     724:	04000593          	addi	a1,zero,64
     728:	00b54633          	xor	a2,a0,a1
     72c:	0cc6ae23          	sw	a2,220(a3)

00000730 <inst_74>:
     730:	04000513          	addi	a0,zero,64
     734:	fdf00593          	addi	a1,zero,-33
     738:	00b54633          	xor	a2,a0,a1
     73c:	0ec6a023          	sw	a2,224(a3)

00000740 <inst_75>:
     740:	10000513          	addi	a0,zero,256
     744:	ffc005b7          	lui	a1,0xffc00
     748:	fff58593          	addi	a1,a1,-1 # ffbfffff <immx+0x44ef252f>
     74c:	00b54633          	xor	a2,a0,a1
     750:	0ec6a223          	sw	a2,228(a3)

00000754 <inst_76>:
     754:	20000513          	addi	a0,zero,512
     758:	aaaab5b7          	lui	a1,0xaaaab
     75c:	aaa58593          	addi	a1,a1,-1366 # aaaaaaaa <absimm+0x657b857b>
     760:	00b54633          	xor	a2,a0,a1
     764:	0ec6a423          	sw	a2,232(a3)

00000768 <inst_77>:
     768:	40000513          	addi	a0,zero,1024
     76c:	aaaab5b7          	lui	a1,0xaaaab
     770:	aaa58593          	addi	a1,a1,-1366 # aaaaaaaa <absimm+0x657b857b>
     774:	00b54633          	xor	a2,a0,a1
     778:	0ec6a623          	sw	a2,236(a3)

0000077c <inst_78>:
     77c:	00001537          	lui	a0,0x1
     780:	80050513          	addi	a0,a0,-2048 # 800 <inst_84+0xc>
     784:	666665b7          	lui	a1,0x66666
     788:	66558593          	addi	a1,a1,1637 # 66666665 <absimm+0x21374136>
     78c:	00b54633          	xor	a2,a0,a1
     790:	0ec6a823          	sw	a2,240(a3)

00000794 <inst_79>:
     794:	00002537          	lui	a0,0x2
     798:	fff005b7          	lui	a1,0xfff00
     79c:	fff58593          	addi	a1,a1,-1 # ffefffff <immx+0x451f252f>
     7a0:	00b54633          	xor	a2,a0,a1
     7a4:	0ec6aa23          	sw	a2,244(a3)

000007a8 <inst_80>:
     7a8:	00010537          	lui	a0,0x10
     7ac:	ffff55b7          	lui	a1,0xffff5
     7b0:	afd58593          	addi	a1,a1,-1283 # ffff4afd <immx+0x452e702d>
     7b4:	00b54633          	xor	a2,a0,a1
     7b8:	0ec6ac23          	sw	a2,248(a3)

000007bc <inst_81>:
     7bc:	00100537          	lui	a0,0x100
     7c0:	ff700593          	addi	a1,zero,-9
     7c4:	00b54633          	xor	a2,a0,a1
     7c8:	0ec6ae23          	sw	a2,252(a3)

000007cc <inst_82>:
     7cc:	00200537          	lui	a0,0x200
     7d0:	ffffc5b7          	lui	a1,0xffffc
     7d4:	fff58593          	addi	a1,a1,-1 # ffffbfff <immx+0x452ee52f>
     7d8:	00b54633          	xor	a2,a0,a1
     7dc:	10c6a023          	sw	a2,256(a3)

000007e0 <inst_83>:
     7e0:	00800537          	lui	a0,0x800
     7e4:	666665b7          	lui	a1,0x66666
     7e8:	66558593          	addi	a1,a1,1637 # 66666665 <absimm+0x21374136>
     7ec:	00b54633          	xor	a2,a0,a1
     7f0:	10c6a223          	sw	a2,260(a3)

000007f4 <inst_84>:
     7f4:	01000537          	lui	a0,0x1000
     7f8:	aaaab5b7          	lui	a1,0xaaaab
     7fc:	aab58593          	addi	a1,a1,-1365 # aaaaaaab <absimm+0x657b857c>
     800:	00b54633          	xor	a2,a0,a1
     804:	10c6a423          	sw	a2,264(a3)

00000808 <inst_85>:
     808:	04000537          	lui	a0,0x4000
     80c:	004005b7          	lui	a1,0x400
     810:	00b54633          	xor	a2,a0,a1
     814:	10c6a623          	sw	a2,268(a3)

00000818 <inst_86>:
     818:	08000537          	lui	a0,0x8000
     81c:	555555b7          	lui	a1,0x55555
     820:	55458593          	addi	a1,a1,1364 # 55555554 <absimm+0x10263025>
     824:	00b54633          	xor	a2,a0,a1
     828:	10c6a823          	sw	a2,272(a3)

0000082c <inst_87>:
     82c:	20000537          	lui	a0,0x20000
     830:	40000593          	addi	a1,zero,1024
     834:	00b54633          	xor	a2,a0,a1
     838:	10c6aa23          	sw	a2,276(a3)

0000083c <inst_88>:
     83c:	ffe00513          	addi	a0,zero,-2
     840:	ffff55b7          	lui	a1,0xffff5
     844:	afc58593          	addi	a1,a1,-1284 # ffff4afc <immx+0x452e702c>
     848:	00b54633          	xor	a2,a0,a1
     84c:	10c6ac23          	sw	a2,280(a3)

00000850 <inst_89>:
     850:	ffd00513          	addi	a0,zero,-3
     854:	00400593          	addi	a1,zero,4
     858:	00b54633          	xor	a2,a0,a1
     85c:	10c6ae23          	sw	a2,284(a3)

00000860 <inst_90>:
     860:	f7f00513          	addi	a0,zero,-129
     864:	0000b5b7          	lui	a1,0xb
     868:	50358593          	addi	a1,a1,1283 # b503 <_end+0x18fb>
     86c:	00b54633          	xor	a2,a0,a1
     870:	12c6a023          	sw	a2,288(a3)

00000874 <inst_91>:
     874:	eff00513          	addi	a0,zero,-257
     878:	000015b7          	lui	a1,0x1
     87c:	00b54633          	xor	a2,a0,a1
     880:	12c6a223          	sw	a2,292(a3)

00000884 <inst_92>:
     884:	dff00513          	addi	a0,zero,-513
     888:	00000593          	addi	a1,zero,0
     88c:	00b54633          	xor	a2,a0,a1
     890:	12c6a423          	sw	a2,296(a3)

00000894 <inst_93>:
     894:	bff00513          	addi	a0,zero,-1025
     898:	f00005b7          	lui	a1,0xf0000
     89c:	fff58593          	addi	a1,a1,-1 # efffffff <immx+0x352f252f>
     8a0:	00b54633          	xor	a2,a0,a1
     8a4:	12c6a623          	sw	a2,300(a3)

000008a8 <inst_94>:
     8a8:	fffff537          	lui	a0,0xfffff
     8ac:	7ff50513          	addi	a0,a0,2047 # fffff7ff <immx+0x452f1d2f>
     8b0:	020005b7          	lui	a1,0x2000
     8b4:	00b54633          	xor	a2,a0,a1
     8b8:	12c6a823          	sw	a2,304(a3)

000008bc <inst_95>:
     8bc:	fffff537          	lui	a0,0xfffff
     8c0:	fff50513          	addi	a0,a0,-1 # ffffefff <immx+0x452f152f>
     8c4:	ffe00593          	addi	a1,zero,-2
     8c8:	00b54633          	xor	a2,a0,a1
     8cc:	12c6aa23          	sw	a2,308(a3)

000008d0 <inst_96>:
     8d0:	ffffe537          	lui	a0,0xffffe
     8d4:	fff50513          	addi	a0,a0,-1 # ffffdfff <immx+0x452f052f>
     8d8:	00400593          	addi	a1,zero,4
     8dc:	00b54633          	xor	a2,a0,a1
     8e0:	12c6ac23          	sw	a2,312(a3)

000008e4 <inst_97>:
     8e4:	ffff0537          	lui	a0,0xffff0
     8e8:	fff50513          	addi	a0,a0,-1 # fffeffff <immx+0x452e252f>
     8ec:	00200593          	addi	a1,zero,2
     8f0:	00b54633          	xor	a2,a0,a1
     8f4:	12c6ae23          	sw	a2,316(a3)

000008f8 <inst_98>:
     8f8:	fffc0537          	lui	a0,0xfffc0
     8fc:	fff50513          	addi	a0,a0,-1 # fffbffff <immx+0x452b252f>
     900:	fff805b7          	lui	a1,0xfff80
     904:	fff58593          	addi	a1,a1,-1 # fff7ffff <immx+0x4527252f>
     908:	00b54633          	xor	a2,a0,a1
     90c:	14c6a023          	sw	a2,320(a3)

00000910 <inst_99>:
     910:	fff00537          	lui	a0,0xfff00
     914:	fff50513          	addi	a0,a0,-1 # ffefffff <immx+0x451f252f>
     918:	02000593          	addi	a1,zero,32
     91c:	00b54633          	xor	a2,a0,a1
     920:	14c6a223          	sw	a2,324(a3)

00000924 <inst_100>:
     924:	ffc00537          	lui	a0,0xffc00
     928:	fff50513          	addi	a0,a0,-1 # ffbfffff <immx+0x44ef252f>
     92c:	ff600593          	addi	a1,zero,-10
     930:	00b54633          	xor	a2,a0,a1
     934:	14c6a423          	sw	a2,328(a3)

00000938 <inst_101>:
     938:	f8000537          	lui	a0,0xf8000
     93c:	fff50513          	addi	a0,a0,-1 # f7ffffff <immx+0x3d2f252f>
     940:	333335b7          	lui	a1,0x33333
     944:	33358593          	addi	a1,a1,819 # 33333333 <_end+0x3332972b>
     948:	00b54633          	xor	a2,a0,a1
     94c:	14c6a623          	sw	a2,332(a3)

00000950 <inst_102>:
     950:	e0000537          	lui	a0,0xe0000
     954:	fff50513          	addi	a0,a0,-1 # dfffffff <immx+0x252f252f>
     958:	010005b7          	lui	a1,0x1000
     95c:	00b54633          	xor	a2,a0,a1
     960:	14c6a823          	sw	a2,336(a3)

00000964 <inst_103>:
     964:	c0000537          	lui	a0,0xc0000
     968:	fff50513          	addi	a0,a0,-1 # bfffffff <immx+0x52f252f>
     96c:	f00005b7          	lui	a1,0xf0000
     970:	fff58593          	addi	a1,a1,-1 # efffffff <immx+0x352f252f>
     974:	00b54633          	xor	a2,a0,a1
     978:	14c6aa23          	sw	a2,340(a3)

0000097c <inst_104>:
     97c:	55555537          	lui	a0,0x55555
     980:	55550513          	addi	a0,a0,1365 # 55555555 <absimm+0x10263026>
     984:	333335b7          	lui	a1,0x33333
     988:	33458593          	addi	a1,a1,820 # 33333334 <_end+0x3332972c>
     98c:	00b54633          	xor	a2,a0,a1
     990:	14c6ac23          	sw	a2,344(a3)

00000994 <inst_105>:
     994:	00300513          	addi	a0,zero,3
     998:	00300593          	addi	a1,zero,3
     99c:	00b54633          	xor	a2,a0,a1
     9a0:	14c6ae23          	sw	a2,348(a3)

000009a4 <inst_106>:
     9a4:	00300513          	addi	a0,zero,3
     9a8:	555555b7          	lui	a1,0x55555
     9ac:	55558593          	addi	a1,a1,1365 # 55555555 <absimm+0x10263026>
     9b0:	00b54633          	xor	a2,a0,a1
     9b4:	16c6a023          	sw	a2,352(a3)

000009b8 <inst_107>:
     9b8:	00300513          	addi	a0,zero,3
     9bc:	aaaab5b7          	lui	a1,0xaaaab
     9c0:	aaa58593          	addi	a1,a1,-1366 # aaaaaaaa <absimm+0x657b857b>
     9c4:	00b54633          	xor	a2,a0,a1
     9c8:	16c6a223          	sw	a2,356(a3)

000009cc <inst_108>:
     9cc:	00300513          	addi	a0,zero,3
     9d0:	00500593          	addi	a1,zero,5
     9d4:	00b54633          	xor	a2,a0,a1
     9d8:	16c6a423          	sw	a2,360(a3)

000009dc <inst_109>:
     9dc:	00300513          	addi	a0,zero,3
     9e0:	333335b7          	lui	a1,0x33333
     9e4:	33358593          	addi	a1,a1,819 # 33333333 <_end+0x3332972b>
     9e8:	00b54633          	xor	a2,a0,a1
     9ec:	16c6a623          	sw	a2,364(a3)

000009f0 <inst_110>:
     9f0:	00300513          	addi	a0,zero,3
     9f4:	666665b7          	lui	a1,0x66666
     9f8:	66658593          	addi	a1,a1,1638 # 66666666 <absimm+0x21374137>
     9fc:	00b54633          	xor	a2,a0,a1
     a00:	16c6a823          	sw	a2,368(a3)

00000a04 <inst_111>:
     a04:	00300513          	addi	a0,zero,3
     a08:	ffff55b7          	lui	a1,0xffff5
     a0c:	afc58593          	addi	a1,a1,-1284 # ffff4afc <immx+0x452e702c>
     a10:	00b54633          	xor	a2,a0,a1
     a14:	16c6aa23          	sw	a2,372(a3)

00000a18 <inst_112>:
     a18:	00300513          	addi	a0,zero,3
     a1c:	0000b5b7          	lui	a1,0xb
     a20:	50458593          	addi	a1,a1,1284 # b504 <_end+0x18fc>
     a24:	00b54633          	xor	a2,a0,a1
     a28:	16c6ac23          	sw	a2,376(a3)

00000a2c <inst_113>:
     a2c:	00300513          	addi	a0,zero,3
     a30:	00200593          	addi	a1,zero,2
     a34:	00b54633          	xor	a2,a0,a1
     a38:	16c6ae23          	sw	a2,380(a3)

00000a3c <inst_114>:
     a3c:	00300513          	addi	a0,zero,3
     a40:	555555b7          	lui	a1,0x55555
     a44:	55458593          	addi	a1,a1,1364 # 55555554 <absimm+0x10263025>
     a48:	00b54633          	xor	a2,a0,a1
     a4c:	18c6a023          	sw	a2,384(a3)

00000a50 <inst_115>:
     a50:	00300513          	addi	a0,zero,3
     a54:	00000593          	addi	a1,zero,0
     a58:	00b54633          	xor	a2,a0,a1
     a5c:	18c6a223          	sw	a2,388(a3)

00000a60 <inst_116>:
     a60:	00300513          	addi	a0,zero,3
     a64:	00400593          	addi	a1,zero,4
     a68:	00b54633          	xor	a2,a0,a1
     a6c:	18c6a423          	sw	a2,392(a3)

00000a70 <inst_117>:
     a70:	00300513          	addi	a0,zero,3
     a74:	333335b7          	lui	a1,0x33333
     a78:	33258593          	addi	a1,a1,818 # 33333332 <_end+0x3332972a>
     a7c:	00b54633          	xor	a2,a0,a1
     a80:	18c6a623          	sw	a2,396(a3)

00000a84 <inst_118>:
     a84:	00300513          	addi	a0,zero,3
     a88:	666665b7          	lui	a1,0x66666
     a8c:	66558593          	addi	a1,a1,1637 # 66666665 <absimm+0x21374136>
     a90:	00b54633          	xor	a2,a0,a1
     a94:	18c6a823          	sw	a2,400(a3)

00000a98 <inst_119>:
     a98:	00300513          	addi	a0,zero,3
     a9c:	0000b5b7          	lui	a1,0xb
     aa0:	50358593          	addi	a1,a1,1283 # b503 <_end+0x18fb>
     aa4:	00b54633          	xor	a2,a0,a1
     aa8:	18c6aa23          	sw	a2,404(a3)

00000aac <inst_120>:
     aac:	00300513          	addi	a0,zero,3
     ab0:	555555b7          	lui	a1,0x55555
     ab4:	55658593          	addi	a1,a1,1366 # 55555556 <absimm+0x10263027>
     ab8:	00b54633          	xor	a2,a0,a1
     abc:	18c6ac23          	sw	a2,408(a3)

00000ac0 <inst_121>:
     ac0:	00300513          	addi	a0,zero,3
     ac4:	aaaab5b7          	lui	a1,0xaaaab
     ac8:	aab58593          	addi	a1,a1,-1365 # aaaaaaab <absimm+0x657b857c>
     acc:	00b54633          	xor	a2,a0,a1
     ad0:	18c6ae23          	sw	a2,412(a3)

00000ad4 <inst_122>:
     ad4:	00300513          	addi	a0,zero,3
     ad8:	00600593          	addi	a1,zero,6
     adc:	00b54633          	xor	a2,a0,a1
     ae0:	1ac6a023          	sw	a2,416(a3)

00000ae4 <inst_123>:
     ae4:	00300513          	addi	a0,zero,3
     ae8:	333335b7          	lui	a1,0x33333
     aec:	33458593          	addi	a1,a1,820 # 33333334 <_end+0x3332972c>
     af0:	00b54633          	xor	a2,a0,a1
     af4:	1ac6a223          	sw	a2,420(a3)

00000af8 <inst_124>:
     af8:	00300513          	addi	a0,zero,3
     afc:	666665b7          	lui	a1,0x66666
     b00:	66758593          	addi	a1,a1,1639 # 66666667 <absimm+0x21374138>
     b04:	00b54633          	xor	a2,a0,a1
     b08:	1ac6a423          	sw	a2,424(a3)

00000b0c <inst_125>:
     b0c:	00300513          	addi	a0,zero,3
     b10:	ffff55b7          	lui	a1,0xffff5
     b14:	afd58593          	addi	a1,a1,-1283 # ffff4afd <immx+0x452e702d>
     b18:	00b54633          	xor	a2,a0,a1
     b1c:	1ac6a623          	sw	a2,428(a3)

00000b20 <inst_126>:
     b20:	00300513          	addi	a0,zero,3
     b24:	0000b5b7          	lui	a1,0xb
     b28:	50558593          	addi	a1,a1,1285 # b505 <_end+0x18fd>
     b2c:	00b54633          	xor	a2,a0,a1
     b30:	1ac6a823          	sw	a2,432(a3)

00000b34 <inst_127>:
     b34:	55555537          	lui	a0,0x55555
     b38:	55550513          	addi	a0,a0,1365 # 55555555 <absimm+0x10263026>
     b3c:	00300593          	addi	a1,zero,3
     b40:	00b54633          	xor	a2,a0,a1
     b44:	1ac6aa23          	sw	a2,436(a3)

00000b48 <inst_128>:
     b48:	55555537          	lui	a0,0x55555
     b4c:	55550513          	addi	a0,a0,1365 # 55555555 <absimm+0x10263026>
     b50:	555555b7          	lui	a1,0x55555
     b54:	55558593          	addi	a1,a1,1365 # 55555555 <absimm+0x10263026>
     b58:	00b54633          	xor	a2,a0,a1
     b5c:	1ac6ac23          	sw	a2,440(a3)

00000b60 <inst_129>:
     b60:	55555537          	lui	a0,0x55555
     b64:	55550513          	addi	a0,a0,1365 # 55555555 <absimm+0x10263026>
     b68:	aaaab5b7          	lui	a1,0xaaaab
     b6c:	aaa58593          	addi	a1,a1,-1366 # aaaaaaaa <absimm+0x657b857b>
     b70:	00b54633          	xor	a2,a0,a1
     b74:	1ac6ae23          	sw	a2,444(a3)

00000b78 <inst_130>:
     b78:	55555537          	lui	a0,0x55555
     b7c:	55550513          	addi	a0,a0,1365 # 55555555 <absimm+0x10263026>
     b80:	00500593          	addi	a1,zero,5
     b84:	00b54633          	xor	a2,a0,a1
     b88:	1cc6a023          	sw	a2,448(a3)

00000b8c <inst_131>:
     b8c:	55555537          	lui	a0,0x55555
     b90:	55550513          	addi	a0,a0,1365 # 55555555 <absimm+0x10263026>
     b94:	333335b7          	lui	a1,0x33333
     b98:	33358593          	addi	a1,a1,819 # 33333333 <_end+0x3332972b>
     b9c:	00b54633          	xor	a2,a0,a1
     ba0:	1cc6a223          	sw	a2,452(a3)

00000ba4 <inst_132>:
     ba4:	55555537          	lui	a0,0x55555
     ba8:	55550513          	addi	a0,a0,1365 # 55555555 <absimm+0x10263026>
     bac:	666665b7          	lui	a1,0x66666
     bb0:	66658593          	addi	a1,a1,1638 # 66666666 <absimm+0x21374137>
     bb4:	00b54633          	xor	a2,a0,a1
     bb8:	1cc6a423          	sw	a2,456(a3)

00000bbc <inst_133>:
     bbc:	55555537          	lui	a0,0x55555
     bc0:	55550513          	addi	a0,a0,1365 # 55555555 <absimm+0x10263026>
     bc4:	ffff55b7          	lui	a1,0xffff5
     bc8:	afc58593          	addi	a1,a1,-1284 # ffff4afc <immx+0x452e702c>
     bcc:	00b54633          	xor	a2,a0,a1
     bd0:	1cc6a623          	sw	a2,460(a3)

00000bd4 <inst_134>:
     bd4:	55555537          	lui	a0,0x55555
     bd8:	55550513          	addi	a0,a0,1365 # 55555555 <absimm+0x10263026>
     bdc:	0000b5b7          	lui	a1,0xb
     be0:	50458593          	addi	a1,a1,1284 # b504 <_end+0x18fc>
     be4:	00b54633          	xor	a2,a0,a1
     be8:	1cc6a823          	sw	a2,464(a3)

00000bec <inst_135>:
     bec:	55555537          	lui	a0,0x55555
     bf0:	55550513          	addi	a0,a0,1365 # 55555555 <absimm+0x10263026>
     bf4:	00200593          	addi	a1,zero,2
     bf8:	00b54633          	xor	a2,a0,a1
     bfc:	1cc6aa23          	sw	a2,468(a3)

00000c00 <inst_136>:
     c00:	55555537          	lui	a0,0x55555
     c04:	55550513          	addi	a0,a0,1365 # 55555555 <absimm+0x10263026>
     c08:	555555b7          	lui	a1,0x55555
     c0c:	55458593          	addi	a1,a1,1364 # 55555554 <absimm+0x10263025>
     c10:	00b54633          	xor	a2,a0,a1
     c14:	1cc6ac23          	sw	a2,472(a3)

00000c18 <inst_137>:
     c18:	55555537          	lui	a0,0x55555
     c1c:	55550513          	addi	a0,a0,1365 # 55555555 <absimm+0x10263026>
     c20:	00000593          	addi	a1,zero,0
     c24:	00b54633          	xor	a2,a0,a1
     c28:	1cc6ae23          	sw	a2,476(a3)

00000c2c <inst_138>:
     c2c:	55555537          	lui	a0,0x55555
     c30:	55550513          	addi	a0,a0,1365 # 55555555 <absimm+0x10263026>
     c34:	00400593          	addi	a1,zero,4
     c38:	00b54633          	xor	a2,a0,a1
     c3c:	1ec6a023          	sw	a2,480(a3)

00000c40 <inst_139>:
     c40:	55555537          	lui	a0,0x55555
     c44:	55550513          	addi	a0,a0,1365 # 55555555 <absimm+0x10263026>
     c48:	333335b7          	lui	a1,0x33333
     c4c:	33258593          	addi	a1,a1,818 # 33333332 <_end+0x3332972a>
     c50:	00b54633          	xor	a2,a0,a1
     c54:	1ec6a223          	sw	a2,484(a3)

00000c58 <inst_140>:
     c58:	55555537          	lui	a0,0x55555
     c5c:	55550513          	addi	a0,a0,1365 # 55555555 <absimm+0x10263026>
     c60:	666665b7          	lui	a1,0x66666
     c64:	66558593          	addi	a1,a1,1637 # 66666665 <absimm+0x21374136>
     c68:	00b54633          	xor	a2,a0,a1
     c6c:	1ec6a423          	sw	a2,488(a3)

00000c70 <inst_141>:
     c70:	55555537          	lui	a0,0x55555
     c74:	55550513          	addi	a0,a0,1365 # 55555555 <absimm+0x10263026>
     c78:	0000b5b7          	lui	a1,0xb
     c7c:	50358593          	addi	a1,a1,1283 # b503 <_end+0x18fb>
     c80:	00b54633          	xor	a2,a0,a1
     c84:	1ec6a623          	sw	a2,492(a3)

00000c88 <inst_142>:
     c88:	55555537          	lui	a0,0x55555
     c8c:	55550513          	addi	a0,a0,1365 # 55555555 <absimm+0x10263026>
     c90:	555555b7          	lui	a1,0x55555
     c94:	55658593          	addi	a1,a1,1366 # 55555556 <absimm+0x10263027>
     c98:	00b54633          	xor	a2,a0,a1
     c9c:	1ec6a823          	sw	a2,496(a3)

00000ca0 <inst_143>:
     ca0:	55555537          	lui	a0,0x55555
     ca4:	55550513          	addi	a0,a0,1365 # 55555555 <absimm+0x10263026>
     ca8:	aaaab5b7          	lui	a1,0xaaaab
     cac:	aab58593          	addi	a1,a1,-1365 # aaaaaaab <absimm+0x657b857c>
     cb0:	00b54633          	xor	a2,a0,a1
     cb4:	1ec6aa23          	sw	a2,500(a3)

00000cb8 <inst_144>:
     cb8:	55555537          	lui	a0,0x55555
     cbc:	55550513          	addi	a0,a0,1365 # 55555555 <absimm+0x10263026>
     cc0:	00600593          	addi	a1,zero,6
     cc4:	00b54633          	xor	a2,a0,a1
     cc8:	1ec6ac23          	sw	a2,504(a3)

00000ccc <inst_145>:
     ccc:	55555537          	lui	a0,0x55555
     cd0:	55550513          	addi	a0,a0,1365 # 55555555 <absimm+0x10263026>
     cd4:	666665b7          	lui	a1,0x66666
     cd8:	66758593          	addi	a1,a1,1639 # 66666667 <absimm+0x21374138>
     cdc:	00b54633          	xor	a2,a0,a1
     ce0:	1ec6ae23          	sw	a2,508(a3)

00000ce4 <inst_146>:
     ce4:	55555537          	lui	a0,0x55555
     ce8:	55550513          	addi	a0,a0,1365 # 55555555 <absimm+0x10263026>
     cec:	ffff55b7          	lui	a1,0xffff5
     cf0:	afd58593          	addi	a1,a1,-1283 # ffff4afd <immx+0x452e702d>
     cf4:	00b54633          	xor	a2,a0,a1
     cf8:	20c6a023          	sw	a2,512(a3)

00000cfc <inst_147>:
     cfc:	55555537          	lui	a0,0x55555
     d00:	55550513          	addi	a0,a0,1365 # 55555555 <absimm+0x10263026>
     d04:	0000b5b7          	lui	a1,0xb
     d08:	50558593          	addi	a1,a1,1285 # b505 <_end+0x18fd>
     d0c:	00b54633          	xor	a2,a0,a1
     d10:	20c6a223          	sw	a2,516(a3)

00000d14 <inst_148>:
     d14:	aaaab537          	lui	a0,0xaaaab
     d18:	aaa50513          	addi	a0,a0,-1366 # aaaaaaaa <absimm+0x657b857b>
     d1c:	00300593          	addi	a1,zero,3
     d20:	00b54633          	xor	a2,a0,a1
     d24:	20c6a423          	sw	a2,520(a3)

00000d28 <inst_149>:
     d28:	aaaab537          	lui	a0,0xaaaab
     d2c:	aaa50513          	addi	a0,a0,-1366 # aaaaaaaa <absimm+0x657b857b>
     d30:	555555b7          	lui	a1,0x55555
     d34:	55558593          	addi	a1,a1,1365 # 55555555 <absimm+0x10263026>
     d38:	00b54633          	xor	a2,a0,a1
     d3c:	20c6a623          	sw	a2,524(a3)

00000d40 <inst_150>:
     d40:	aaaab537          	lui	a0,0xaaaab
     d44:	aaa50513          	addi	a0,a0,-1366 # aaaaaaaa <absimm+0x657b857b>
     d48:	aaaab5b7          	lui	a1,0xaaaab
     d4c:	aaa58593          	addi	a1,a1,-1366 # aaaaaaaa <absimm+0x657b857b>
     d50:	00b54633          	xor	a2,a0,a1
     d54:	20c6a823          	sw	a2,528(a3)

00000d58 <inst_151>:
     d58:	aaaab537          	lui	a0,0xaaaab
     d5c:	aaa50513          	addi	a0,a0,-1366 # aaaaaaaa <absimm+0x657b857b>
     d60:	00500593          	addi	a1,zero,5
     d64:	00b54633          	xor	a2,a0,a1
     d68:	20c6aa23          	sw	a2,532(a3)

00000d6c <inst_152>:
     d6c:	aaaab537          	lui	a0,0xaaaab
     d70:	aaa50513          	addi	a0,a0,-1366 # aaaaaaaa <absimm+0x657b857b>
     d74:	333335b7          	lui	a1,0x33333
     d78:	33358593          	addi	a1,a1,819 # 33333333 <_end+0x3332972b>
     d7c:	00b54633          	xor	a2,a0,a1
     d80:	20c6ac23          	sw	a2,536(a3)

00000d84 <inst_153>:
     d84:	aaaab537          	lui	a0,0xaaaab
     d88:	aaa50513          	addi	a0,a0,-1366 # aaaaaaaa <absimm+0x657b857b>
     d8c:	666665b7          	lui	a1,0x66666
     d90:	66658593          	addi	a1,a1,1638 # 66666666 <absimm+0x21374137>
     d94:	00b54633          	xor	a2,a0,a1
     d98:	20c6ae23          	sw	a2,540(a3)

00000d9c <inst_154>:
     d9c:	aaaab537          	lui	a0,0xaaaab
     da0:	aaa50513          	addi	a0,a0,-1366 # aaaaaaaa <absimm+0x657b857b>
     da4:	ffff55b7          	lui	a1,0xffff5
     da8:	afc58593          	addi	a1,a1,-1284 # ffff4afc <immx+0x452e702c>
     dac:	00b54633          	xor	a2,a0,a1
     db0:	22c6a023          	sw	a2,544(a3)

00000db4 <inst_155>:
     db4:	aaaab537          	lui	a0,0xaaaab
     db8:	aaa50513          	addi	a0,a0,-1366 # aaaaaaaa <absimm+0x657b857b>
     dbc:	0000b5b7          	lui	a1,0xb
     dc0:	50458593          	addi	a1,a1,1284 # b504 <_end+0x18fc>
     dc4:	00b54633          	xor	a2,a0,a1
     dc8:	22c6a223          	sw	a2,548(a3)

00000dcc <inst_156>:
     dcc:	aaaab537          	lui	a0,0xaaaab
     dd0:	aaa50513          	addi	a0,a0,-1366 # aaaaaaaa <absimm+0x657b857b>
     dd4:	00200593          	addi	a1,zero,2
     dd8:	00b54633          	xor	a2,a0,a1
     ddc:	22c6a423          	sw	a2,552(a3)

00000de0 <inst_157>:
     de0:	aaaab537          	lui	a0,0xaaaab
     de4:	aaa50513          	addi	a0,a0,-1366 # aaaaaaaa <absimm+0x657b857b>
     de8:	555555b7          	lui	a1,0x55555
     dec:	55458593          	addi	a1,a1,1364 # 55555554 <absimm+0x10263025>
     df0:	00b54633          	xor	a2,a0,a1
     df4:	22c6a623          	sw	a2,556(a3)

00000df8 <inst_158>:
     df8:	aaaab537          	lui	a0,0xaaaab
     dfc:	aaa50513          	addi	a0,a0,-1366 # aaaaaaaa <absimm+0x657b857b>
     e00:	00000593          	addi	a1,zero,0
     e04:	00b54633          	xor	a2,a0,a1
     e08:	22c6a823          	sw	a2,560(a3)

00000e0c <inst_159>:
     e0c:	aaaab537          	lui	a0,0xaaaab
     e10:	aaa50513          	addi	a0,a0,-1366 # aaaaaaaa <absimm+0x657b857b>
     e14:	00400593          	addi	a1,zero,4
     e18:	00b54633          	xor	a2,a0,a1
     e1c:	22c6aa23          	sw	a2,564(a3)

00000e20 <inst_160>:
     e20:	aaaab537          	lui	a0,0xaaaab
     e24:	aaa50513          	addi	a0,a0,-1366 # aaaaaaaa <absimm+0x657b857b>
     e28:	333335b7          	lui	a1,0x33333
     e2c:	33258593          	addi	a1,a1,818 # 33333332 <_end+0x3332972a>
     e30:	00b54633          	xor	a2,a0,a1
     e34:	22c6ac23          	sw	a2,568(a3)

00000e38 <inst_161>:
     e38:	aaaab537          	lui	a0,0xaaaab
     e3c:	aaa50513          	addi	a0,a0,-1366 # aaaaaaaa <absimm+0x657b857b>
     e40:	666665b7          	lui	a1,0x66666
     e44:	66558593          	addi	a1,a1,1637 # 66666665 <absimm+0x21374136>
     e48:	00b54633          	xor	a2,a0,a1
     e4c:	22c6ae23          	sw	a2,572(a3)

00000e50 <inst_162>:
     e50:	aaaab537          	lui	a0,0xaaaab
     e54:	aaa50513          	addi	a0,a0,-1366 # aaaaaaaa <absimm+0x657b857b>
     e58:	0000b5b7          	lui	a1,0xb
     e5c:	50358593          	addi	a1,a1,1283 # b503 <_end+0x18fb>
     e60:	00b54633          	xor	a2,a0,a1
     e64:	24c6a023          	sw	a2,576(a3)

00000e68 <inst_163>:
     e68:	aaaab537          	lui	a0,0xaaaab
     e6c:	aaa50513          	addi	a0,a0,-1366 # aaaaaaaa <absimm+0x657b857b>
     e70:	555555b7          	lui	a1,0x55555
     e74:	55658593          	addi	a1,a1,1366 # 55555556 <absimm+0x10263027>
     e78:	00b54633          	xor	a2,a0,a1
     e7c:	24c6a223          	sw	a2,580(a3)

00000e80 <inst_164>:
     e80:	aaaab537          	lui	a0,0xaaaab
     e84:	aaa50513          	addi	a0,a0,-1366 # aaaaaaaa <absimm+0x657b857b>
     e88:	aaaab5b7          	lui	a1,0xaaaab
     e8c:	aab58593          	addi	a1,a1,-1365 # aaaaaaab <absimm+0x657b857c>
     e90:	00b54633          	xor	a2,a0,a1
     e94:	24c6a423          	sw	a2,584(a3)

00000e98 <inst_165>:
     e98:	aaaab537          	lui	a0,0xaaaab
     e9c:	aaa50513          	addi	a0,a0,-1366 # aaaaaaaa <absimm+0x657b857b>
     ea0:	00600593          	addi	a1,zero,6
     ea4:	00b54633          	xor	a2,a0,a1
     ea8:	24c6a623          	sw	a2,588(a3)

00000eac <inst_166>:
     eac:	aaaab537          	lui	a0,0xaaaab
     eb0:	aaa50513          	addi	a0,a0,-1366 # aaaaaaaa <absimm+0x657b857b>
     eb4:	333335b7          	lui	a1,0x33333
     eb8:	33458593          	addi	a1,a1,820 # 33333334 <_end+0x3332972c>
     ebc:	00b54633          	xor	a2,a0,a1
     ec0:	24c6a823          	sw	a2,592(a3)

00000ec4 <inst_167>:
     ec4:	aaaab537          	lui	a0,0xaaaab
     ec8:	aaa50513          	addi	a0,a0,-1366 # aaaaaaaa <absimm+0x657b857b>
     ecc:	666665b7          	lui	a1,0x66666
     ed0:	66758593          	addi	a1,a1,1639 # 66666667 <absimm+0x21374138>
     ed4:	00b54633          	xor	a2,a0,a1
     ed8:	24c6aa23          	sw	a2,596(a3)

00000edc <inst_168>:
     edc:	aaaab537          	lui	a0,0xaaaab
     ee0:	aaa50513          	addi	a0,a0,-1366 # aaaaaaaa <absimm+0x657b857b>
     ee4:	ffff55b7          	lui	a1,0xffff5
     ee8:	afd58593          	addi	a1,a1,-1283 # ffff4afd <immx+0x452e702d>
     eec:	00b54633          	xor	a2,a0,a1
     ef0:	24c6ac23          	sw	a2,600(a3)

00000ef4 <inst_169>:
     ef4:	aaaab537          	lui	a0,0xaaaab
     ef8:	aaa50513          	addi	a0,a0,-1366 # aaaaaaaa <absimm+0x657b857b>
     efc:	0000b5b7          	lui	a1,0xb
     f00:	50558593          	addi	a1,a1,1285 # b505 <_end+0x18fd>
     f04:	00b54633          	xor	a2,a0,a1
     f08:	24c6ae23          	sw	a2,604(a3)

00000f0c <inst_170>:
     f0c:	00500513          	addi	a0,zero,5
     f10:	00300593          	addi	a1,zero,3
     f14:	00b54633          	xor	a2,a0,a1
     f18:	26c6a023          	sw	a2,608(a3)

00000f1c <inst_171>:
     f1c:	00500513          	addi	a0,zero,5
     f20:	555555b7          	lui	a1,0x55555
     f24:	55558593          	addi	a1,a1,1365 # 55555555 <absimm+0x10263026>
     f28:	00b54633          	xor	a2,a0,a1
     f2c:	26c6a223          	sw	a2,612(a3)

00000f30 <inst_172>:
     f30:	00500513          	addi	a0,zero,5
     f34:	aaaab5b7          	lui	a1,0xaaaab
     f38:	aaa58593          	addi	a1,a1,-1366 # aaaaaaaa <absimm+0x657b857b>
     f3c:	00b54633          	xor	a2,a0,a1
     f40:	26c6a423          	sw	a2,616(a3)

00000f44 <inst_173>:
     f44:	00500513          	addi	a0,zero,5
     f48:	00500593          	addi	a1,zero,5
     f4c:	00b54633          	xor	a2,a0,a1
     f50:	26c6a623          	sw	a2,620(a3)

00000f54 <inst_174>:
     f54:	00500513          	addi	a0,zero,5
     f58:	333335b7          	lui	a1,0x33333
     f5c:	33358593          	addi	a1,a1,819 # 33333333 <_end+0x3332972b>
     f60:	00b54633          	xor	a2,a0,a1
     f64:	26c6a823          	sw	a2,624(a3)

00000f68 <inst_175>:
     f68:	00500513          	addi	a0,zero,5
     f6c:	666665b7          	lui	a1,0x66666
     f70:	66658593          	addi	a1,a1,1638 # 66666666 <absimm+0x21374137>
     f74:	00b54633          	xor	a2,a0,a1
     f78:	26c6aa23          	sw	a2,628(a3)

00000f7c <inst_176>:
     f7c:	00500513          	addi	a0,zero,5
     f80:	ffff55b7          	lui	a1,0xffff5
     f84:	afc58593          	addi	a1,a1,-1284 # ffff4afc <immx+0x452e702c>
     f88:	00b54633          	xor	a2,a0,a1
     f8c:	26c6ac23          	sw	a2,632(a3)

00000f90 <inst_177>:
     f90:	00500513          	addi	a0,zero,5
     f94:	0000b5b7          	lui	a1,0xb
     f98:	50458593          	addi	a1,a1,1284 # b504 <_end+0x18fc>
     f9c:	00b54633          	xor	a2,a0,a1
     fa0:	26c6ae23          	sw	a2,636(a3)

00000fa4 <inst_178>:
     fa4:	00500513          	addi	a0,zero,5
     fa8:	00200593          	addi	a1,zero,2
     fac:	00b54633          	xor	a2,a0,a1
     fb0:	28c6a023          	sw	a2,640(a3)

00000fb4 <inst_179>:
     fb4:	00500513          	addi	a0,zero,5
     fb8:	555555b7          	lui	a1,0x55555
     fbc:	55458593          	addi	a1,a1,1364 # 55555554 <absimm+0x10263025>
     fc0:	00b54633          	xor	a2,a0,a1
     fc4:	28c6a223          	sw	a2,644(a3)

00000fc8 <inst_180>:
     fc8:	00500513          	addi	a0,zero,5
     fcc:	00000593          	addi	a1,zero,0
     fd0:	00b54633          	xor	a2,a0,a1
     fd4:	28c6a423          	sw	a2,648(a3)

00000fd8 <inst_181>:
     fd8:	00500513          	addi	a0,zero,5
     fdc:	00400593          	addi	a1,zero,4
     fe0:	00b54633          	xor	a2,a0,a1
     fe4:	28c6a623          	sw	a2,652(a3)

00000fe8 <inst_182>:
     fe8:	00500513          	addi	a0,zero,5
     fec:	333335b7          	lui	a1,0x33333
     ff0:	33258593          	addi	a1,a1,818 # 33333332 <_end+0x3332972a>
     ff4:	00b54633          	xor	a2,a0,a1
     ff8:	28c6a823          	sw	a2,656(a3)

00000ffc <inst_183>:
     ffc:	00500513          	addi	a0,zero,5
    1000:	666665b7          	lui	a1,0x66666
    1004:	66558593          	addi	a1,a1,1637 # 66666665 <absimm+0x21374136>
    1008:	00b54633          	xor	a2,a0,a1
    100c:	28c6aa23          	sw	a2,660(a3)

00001010 <inst_184>:
    1010:	00500513          	addi	a0,zero,5
    1014:	0000b5b7          	lui	a1,0xb
    1018:	50358593          	addi	a1,a1,1283 # b503 <_end+0x18fb>
    101c:	00b54633          	xor	a2,a0,a1
    1020:	28c6ac23          	sw	a2,664(a3)

00001024 <inst_185>:
    1024:	00500513          	addi	a0,zero,5
    1028:	555555b7          	lui	a1,0x55555
    102c:	55658593          	addi	a1,a1,1366 # 55555556 <absimm+0x10263027>
    1030:	00b54633          	xor	a2,a0,a1
    1034:	28c6ae23          	sw	a2,668(a3)

00001038 <inst_186>:
    1038:	00500513          	addi	a0,zero,5
    103c:	aaaab5b7          	lui	a1,0xaaaab
    1040:	aab58593          	addi	a1,a1,-1365 # aaaaaaab <absimm+0x657b857c>
    1044:	00b54633          	xor	a2,a0,a1
    1048:	2ac6a023          	sw	a2,672(a3)

0000104c <inst_187>:
    104c:	00500513          	addi	a0,zero,5
    1050:	00600593          	addi	a1,zero,6
    1054:	00b54633          	xor	a2,a0,a1
    1058:	2ac6a223          	sw	a2,676(a3)

0000105c <inst_188>:
    105c:	00500513          	addi	a0,zero,5
    1060:	333335b7          	lui	a1,0x33333
    1064:	33458593          	addi	a1,a1,820 # 33333334 <_end+0x3332972c>
    1068:	00b54633          	xor	a2,a0,a1
    106c:	2ac6a423          	sw	a2,680(a3)

00001070 <inst_189>:
    1070:	00500513          	addi	a0,zero,5
    1074:	666665b7          	lui	a1,0x66666
    1078:	66758593          	addi	a1,a1,1639 # 66666667 <absimm+0x21374138>
    107c:	00b54633          	xor	a2,a0,a1
    1080:	2ac6a623          	sw	a2,684(a3)

00001084 <inst_190>:
    1084:	00500513          	addi	a0,zero,5
    1088:	ffff55b7          	lui	a1,0xffff5
    108c:	afd58593          	addi	a1,a1,-1283 # ffff4afd <immx+0x452e702d>
    1090:	00b54633          	xor	a2,a0,a1
    1094:	2ac6a823          	sw	a2,688(a3)

00001098 <inst_191>:
    1098:	00500513          	addi	a0,zero,5
    109c:	0000b5b7          	lui	a1,0xb
    10a0:	50558593          	addi	a1,a1,1285 # b505 <_end+0x18fd>
    10a4:	00b54633          	xor	a2,a0,a1
    10a8:	2ac6aa23          	sw	a2,692(a3)

000010ac <inst_192>:
    10ac:	33333537          	lui	a0,0x33333
    10b0:	33350513          	addi	a0,a0,819 # 33333333 <_end+0x3332972b>
    10b4:	00300593          	addi	a1,zero,3
    10b8:	00b54633          	xor	a2,a0,a1
    10bc:	2ac6ac23          	sw	a2,696(a3)

000010c0 <inst_193>:
    10c0:	33333537          	lui	a0,0x33333
    10c4:	33350513          	addi	a0,a0,819 # 33333333 <_end+0x3332972b>
    10c8:	555555b7          	lui	a1,0x55555
    10cc:	55558593          	addi	a1,a1,1365 # 55555555 <absimm+0x10263026>
    10d0:	00b54633          	xor	a2,a0,a1
    10d4:	2ac6ae23          	sw	a2,700(a3)

000010d8 <inst_194>:
    10d8:	33333537          	lui	a0,0x33333
    10dc:	33350513          	addi	a0,a0,819 # 33333333 <_end+0x3332972b>
    10e0:	aaaab5b7          	lui	a1,0xaaaab
    10e4:	aaa58593          	addi	a1,a1,-1366 # aaaaaaaa <absimm+0x657b857b>
    10e8:	00b54633          	xor	a2,a0,a1
    10ec:	2cc6a023          	sw	a2,704(a3)

000010f0 <inst_195>:
    10f0:	33333537          	lui	a0,0x33333
    10f4:	33350513          	addi	a0,a0,819 # 33333333 <_end+0x3332972b>
    10f8:	00500593          	addi	a1,zero,5
    10fc:	00b54633          	xor	a2,a0,a1
    1100:	2cc6a223          	sw	a2,708(a3)

00001104 <inst_196>:
    1104:	33333537          	lui	a0,0x33333
    1108:	33350513          	addi	a0,a0,819 # 33333333 <_end+0x3332972b>
    110c:	333335b7          	lui	a1,0x33333
    1110:	33358593          	addi	a1,a1,819 # 33333333 <_end+0x3332972b>
    1114:	00b54633          	xor	a2,a0,a1
    1118:	2cc6a423          	sw	a2,712(a3)

0000111c <inst_197>:
    111c:	33333537          	lui	a0,0x33333
    1120:	33350513          	addi	a0,a0,819 # 33333333 <_end+0x3332972b>
    1124:	666665b7          	lui	a1,0x66666
    1128:	66658593          	addi	a1,a1,1638 # 66666666 <absimm+0x21374137>
    112c:	00b54633          	xor	a2,a0,a1
    1130:	2cc6a623          	sw	a2,716(a3)

00001134 <inst_198>:
    1134:	33333537          	lui	a0,0x33333
    1138:	33350513          	addi	a0,a0,819 # 33333333 <_end+0x3332972b>
    113c:	ffff55b7          	lui	a1,0xffff5
    1140:	afc58593          	addi	a1,a1,-1284 # ffff4afc <immx+0x452e702c>
    1144:	00b54633          	xor	a2,a0,a1
    1148:	2cc6a823          	sw	a2,720(a3)

0000114c <inst_199>:
    114c:	33333537          	lui	a0,0x33333
    1150:	33350513          	addi	a0,a0,819 # 33333333 <_end+0x3332972b>
    1154:	0000b5b7          	lui	a1,0xb
    1158:	50458593          	addi	a1,a1,1284 # b504 <_end+0x18fc>
    115c:	00b54633          	xor	a2,a0,a1
    1160:	2cc6aa23          	sw	a2,724(a3)

00001164 <inst_200>:
    1164:	33333537          	lui	a0,0x33333
    1168:	33350513          	addi	a0,a0,819 # 33333333 <_end+0x3332972b>
    116c:	00200593          	addi	a1,zero,2
    1170:	00b54633          	xor	a2,a0,a1
    1174:	2cc6ac23          	sw	a2,728(a3)

00001178 <inst_201>:
    1178:	33333537          	lui	a0,0x33333
    117c:	33350513          	addi	a0,a0,819 # 33333333 <_end+0x3332972b>
    1180:	555555b7          	lui	a1,0x55555
    1184:	55458593          	addi	a1,a1,1364 # 55555554 <absimm+0x10263025>
    1188:	00b54633          	xor	a2,a0,a1
    118c:	2cc6ae23          	sw	a2,732(a3)

00001190 <inst_202>:
    1190:	33333537          	lui	a0,0x33333
    1194:	33350513          	addi	a0,a0,819 # 33333333 <_end+0x3332972b>
    1198:	00000593          	addi	a1,zero,0
    119c:	00b54633          	xor	a2,a0,a1
    11a0:	2ec6a023          	sw	a2,736(a3)

000011a4 <inst_203>:
    11a4:	33333537          	lui	a0,0x33333
    11a8:	33350513          	addi	a0,a0,819 # 33333333 <_end+0x3332972b>
    11ac:	00400593          	addi	a1,zero,4
    11b0:	00b54633          	xor	a2,a0,a1
    11b4:	2ec6a223          	sw	a2,740(a3)

000011b8 <inst_204>:
    11b8:	33333537          	lui	a0,0x33333
    11bc:	33350513          	addi	a0,a0,819 # 33333333 <_end+0x3332972b>
    11c0:	333335b7          	lui	a1,0x33333
    11c4:	33258593          	addi	a1,a1,818 # 33333332 <_end+0x3332972a>
    11c8:	00b54633          	xor	a2,a0,a1
    11cc:	2ec6a423          	sw	a2,744(a3)

000011d0 <inst_205>:
    11d0:	33333537          	lui	a0,0x33333
    11d4:	33350513          	addi	a0,a0,819 # 33333333 <_end+0x3332972b>
    11d8:	666665b7          	lui	a1,0x66666
    11dc:	66558593          	addi	a1,a1,1637 # 66666665 <absimm+0x21374136>
    11e0:	00b54633          	xor	a2,a0,a1
    11e4:	2ec6a623          	sw	a2,748(a3)

000011e8 <inst_206>:
    11e8:	33333537          	lui	a0,0x33333
    11ec:	33350513          	addi	a0,a0,819 # 33333333 <_end+0x3332972b>
    11f0:	0000b5b7          	lui	a1,0xb
    11f4:	50358593          	addi	a1,a1,1283 # b503 <_end+0x18fb>
    11f8:	00b54633          	xor	a2,a0,a1
    11fc:	2ec6a823          	sw	a2,752(a3)

00001200 <inst_207>:
    1200:	33333537          	lui	a0,0x33333
    1204:	33350513          	addi	a0,a0,819 # 33333333 <_end+0x3332972b>
    1208:	555555b7          	lui	a1,0x55555
    120c:	55658593          	addi	a1,a1,1366 # 55555556 <absimm+0x10263027>
    1210:	00b54633          	xor	a2,a0,a1
    1214:	2ec6aa23          	sw	a2,756(a3)

00001218 <inst_208>:
    1218:	33333537          	lui	a0,0x33333
    121c:	33350513          	addi	a0,a0,819 # 33333333 <_end+0x3332972b>
    1220:	aaaab5b7          	lui	a1,0xaaaab
    1224:	aab58593          	addi	a1,a1,-1365 # aaaaaaab <absimm+0x657b857c>
    1228:	00b54633          	xor	a2,a0,a1
    122c:	2ec6ac23          	sw	a2,760(a3)

00001230 <inst_209>:
    1230:	33333537          	lui	a0,0x33333
    1234:	33350513          	addi	a0,a0,819 # 33333333 <_end+0x3332972b>
    1238:	00600593          	addi	a1,zero,6
    123c:	00b54633          	xor	a2,a0,a1
    1240:	2ec6ae23          	sw	a2,764(a3)

00001244 <inst_210>:
    1244:	33333537          	lui	a0,0x33333
    1248:	33350513          	addi	a0,a0,819 # 33333333 <_end+0x3332972b>
    124c:	333335b7          	lui	a1,0x33333
    1250:	33458593          	addi	a1,a1,820 # 33333334 <_end+0x3332972c>
    1254:	00b54633          	xor	a2,a0,a1
    1258:	30c6a023          	sw	a2,768(a3)

0000125c <inst_211>:
    125c:	33333537          	lui	a0,0x33333
    1260:	33350513          	addi	a0,a0,819 # 33333333 <_end+0x3332972b>
    1264:	666665b7          	lui	a1,0x66666
    1268:	66758593          	addi	a1,a1,1639 # 66666667 <absimm+0x21374138>
    126c:	00b54633          	xor	a2,a0,a1
    1270:	30c6a223          	sw	a2,772(a3)

00001274 <inst_212>:
    1274:	33333537          	lui	a0,0x33333
    1278:	33350513          	addi	a0,a0,819 # 33333333 <_end+0x3332972b>
    127c:	ffff55b7          	lui	a1,0xffff5
    1280:	afd58593          	addi	a1,a1,-1283 # ffff4afd <immx+0x452e702d>
    1284:	00b54633          	xor	a2,a0,a1
    1288:	30c6a423          	sw	a2,776(a3)

0000128c <inst_213>:
    128c:	33333537          	lui	a0,0x33333
    1290:	33350513          	addi	a0,a0,819 # 33333333 <_end+0x3332972b>
    1294:	0000b5b7          	lui	a1,0xb
    1298:	50558593          	addi	a1,a1,1285 # b505 <_end+0x18fd>
    129c:	00b54633          	xor	a2,a0,a1
    12a0:	30c6a623          	sw	a2,780(a3)

000012a4 <inst_214>:
    12a4:	66666537          	lui	a0,0x66666
    12a8:	66650513          	addi	a0,a0,1638 # 66666666 <absimm+0x21374137>
    12ac:	00300593          	addi	a1,zero,3
    12b0:	00b54633          	xor	a2,a0,a1
    12b4:	30c6a823          	sw	a2,784(a3)

000012b8 <inst_215>:
    12b8:	66666537          	lui	a0,0x66666
    12bc:	66650513          	addi	a0,a0,1638 # 66666666 <absimm+0x21374137>
    12c0:	555555b7          	lui	a1,0x55555
    12c4:	55558593          	addi	a1,a1,1365 # 55555555 <absimm+0x10263026>
    12c8:	00b54633          	xor	a2,a0,a1
    12cc:	30c6aa23          	sw	a2,788(a3)

000012d0 <inst_216>:
    12d0:	66666537          	lui	a0,0x66666
    12d4:	66650513          	addi	a0,a0,1638 # 66666666 <absimm+0x21374137>
    12d8:	aaaab5b7          	lui	a1,0xaaaab
    12dc:	aaa58593          	addi	a1,a1,-1366 # aaaaaaaa <absimm+0x657b857b>
    12e0:	00b54633          	xor	a2,a0,a1
    12e4:	30c6ac23          	sw	a2,792(a3)

000012e8 <inst_217>:
    12e8:	66666537          	lui	a0,0x66666
    12ec:	66650513          	addi	a0,a0,1638 # 66666666 <absimm+0x21374137>
    12f0:	00500593          	addi	a1,zero,5
    12f4:	00b54633          	xor	a2,a0,a1
    12f8:	30c6ae23          	sw	a2,796(a3)

000012fc <inst_218>:
    12fc:	66666537          	lui	a0,0x66666
    1300:	66650513          	addi	a0,a0,1638 # 66666666 <absimm+0x21374137>
    1304:	333335b7          	lui	a1,0x33333
    1308:	33358593          	addi	a1,a1,819 # 33333333 <_end+0x3332972b>
    130c:	00b54633          	xor	a2,a0,a1
    1310:	32c6a023          	sw	a2,800(a3)

00001314 <inst_219>:
    1314:	66666537          	lui	a0,0x66666
    1318:	66650513          	addi	a0,a0,1638 # 66666666 <absimm+0x21374137>
    131c:	666665b7          	lui	a1,0x66666
    1320:	66658593          	addi	a1,a1,1638 # 66666666 <absimm+0x21374137>
    1324:	00b54633          	xor	a2,a0,a1
    1328:	32c6a223          	sw	a2,804(a3)

0000132c <inst_220>:
    132c:	66666537          	lui	a0,0x66666
    1330:	66650513          	addi	a0,a0,1638 # 66666666 <absimm+0x21374137>
    1334:	ffff55b7          	lui	a1,0xffff5
    1338:	afc58593          	addi	a1,a1,-1284 # ffff4afc <immx+0x452e702c>
    133c:	00b54633          	xor	a2,a0,a1
    1340:	32c6a423          	sw	a2,808(a3)

00001344 <inst_221>:
    1344:	66666537          	lui	a0,0x66666
    1348:	66650513          	addi	a0,a0,1638 # 66666666 <absimm+0x21374137>
    134c:	0000b5b7          	lui	a1,0xb
    1350:	50458593          	addi	a1,a1,1284 # b504 <_end+0x18fc>
    1354:	00b54633          	xor	a2,a0,a1
    1358:	32c6a623          	sw	a2,812(a3)

0000135c <inst_222>:
    135c:	66666537          	lui	a0,0x66666
    1360:	66650513          	addi	a0,a0,1638 # 66666666 <absimm+0x21374137>
    1364:	00200593          	addi	a1,zero,2
    1368:	00b54633          	xor	a2,a0,a1
    136c:	32c6a823          	sw	a2,816(a3)

00001370 <inst_223>:
    1370:	66666537          	lui	a0,0x66666
    1374:	66650513          	addi	a0,a0,1638 # 66666666 <absimm+0x21374137>
    1378:	555555b7          	lui	a1,0x55555
    137c:	55458593          	addi	a1,a1,1364 # 55555554 <absimm+0x10263025>
    1380:	00b54633          	xor	a2,a0,a1
    1384:	32c6aa23          	sw	a2,820(a3)

00001388 <inst_224>:
    1388:	66666537          	lui	a0,0x66666
    138c:	66650513          	addi	a0,a0,1638 # 66666666 <absimm+0x21374137>
    1390:	00000593          	addi	a1,zero,0
    1394:	00b54633          	xor	a2,a0,a1
    1398:	32c6ac23          	sw	a2,824(a3)

0000139c <inst_225>:
    139c:	66666537          	lui	a0,0x66666
    13a0:	66650513          	addi	a0,a0,1638 # 66666666 <absimm+0x21374137>
    13a4:	00400593          	addi	a1,zero,4
    13a8:	00b54633          	xor	a2,a0,a1
    13ac:	32c6ae23          	sw	a2,828(a3)

000013b0 <inst_226>:
    13b0:	66666537          	lui	a0,0x66666
    13b4:	66650513          	addi	a0,a0,1638 # 66666666 <absimm+0x21374137>
    13b8:	333335b7          	lui	a1,0x33333
    13bc:	33258593          	addi	a1,a1,818 # 33333332 <_end+0x3332972a>
    13c0:	00b54633          	xor	a2,a0,a1
    13c4:	34c6a023          	sw	a2,832(a3)

000013c8 <inst_227>:
    13c8:	66666537          	lui	a0,0x66666
    13cc:	66650513          	addi	a0,a0,1638 # 66666666 <absimm+0x21374137>
    13d0:	666665b7          	lui	a1,0x66666
    13d4:	66558593          	addi	a1,a1,1637 # 66666665 <absimm+0x21374136>
    13d8:	00b54633          	xor	a2,a0,a1
    13dc:	34c6a223          	sw	a2,836(a3)

000013e0 <inst_228>:
    13e0:	66666537          	lui	a0,0x66666
    13e4:	66650513          	addi	a0,a0,1638 # 66666666 <absimm+0x21374137>
    13e8:	0000b5b7          	lui	a1,0xb
    13ec:	50358593          	addi	a1,a1,1283 # b503 <_end+0x18fb>
    13f0:	00b54633          	xor	a2,a0,a1
    13f4:	34c6a423          	sw	a2,840(a3)

000013f8 <inst_229>:
    13f8:	66666537          	lui	a0,0x66666
    13fc:	66650513          	addi	a0,a0,1638 # 66666666 <absimm+0x21374137>
    1400:	555555b7          	lui	a1,0x55555
    1404:	55658593          	addi	a1,a1,1366 # 55555556 <absimm+0x10263027>
    1408:	00b54633          	xor	a2,a0,a1
    140c:	34c6a623          	sw	a2,844(a3)

00001410 <inst_230>:
    1410:	66666537          	lui	a0,0x66666
    1414:	66650513          	addi	a0,a0,1638 # 66666666 <absimm+0x21374137>
    1418:	aaaab5b7          	lui	a1,0xaaaab
    141c:	aab58593          	addi	a1,a1,-1365 # aaaaaaab <absimm+0x657b857c>
    1420:	00b54633          	xor	a2,a0,a1
    1424:	34c6a823          	sw	a2,848(a3)

00001428 <inst_231>:
    1428:	66666537          	lui	a0,0x66666
    142c:	66650513          	addi	a0,a0,1638 # 66666666 <absimm+0x21374137>
    1430:	00600593          	addi	a1,zero,6
    1434:	00b54633          	xor	a2,a0,a1
    1438:	34c6aa23          	sw	a2,852(a3)

0000143c <inst_232>:
    143c:	66666537          	lui	a0,0x66666
    1440:	66650513          	addi	a0,a0,1638 # 66666666 <absimm+0x21374137>
    1444:	333335b7          	lui	a1,0x33333
    1448:	33458593          	addi	a1,a1,820 # 33333334 <_end+0x3332972c>
    144c:	00b54633          	xor	a2,a0,a1
    1450:	34c6ac23          	sw	a2,856(a3)

00001454 <inst_233>:
    1454:	66666537          	lui	a0,0x66666
    1458:	66650513          	addi	a0,a0,1638 # 66666666 <absimm+0x21374137>
    145c:	666665b7          	lui	a1,0x66666
    1460:	66758593          	addi	a1,a1,1639 # 66666667 <absimm+0x21374138>
    1464:	00b54633          	xor	a2,a0,a1
    1468:	34c6ae23          	sw	a2,860(a3)

0000146c <inst_234>:
    146c:	66666537          	lui	a0,0x66666
    1470:	66650513          	addi	a0,a0,1638 # 66666666 <absimm+0x21374137>
    1474:	ffff55b7          	lui	a1,0xffff5
    1478:	afd58593          	addi	a1,a1,-1283 # ffff4afd <immx+0x452e702d>
    147c:	00b54633          	xor	a2,a0,a1
    1480:	36c6a023          	sw	a2,864(a3)

00001484 <inst_235>:
    1484:	66666537          	lui	a0,0x66666
    1488:	66650513          	addi	a0,a0,1638 # 66666666 <absimm+0x21374137>
    148c:	0000b5b7          	lui	a1,0xb
    1490:	50558593          	addi	a1,a1,1285 # b505 <_end+0x18fd>
    1494:	00b54633          	xor	a2,a0,a1
    1498:	36c6a223          	sw	a2,868(a3)

0000149c <inst_236>:
    149c:	ffff5537          	lui	a0,0xffff5
    14a0:	afc50513          	addi	a0,a0,-1284 # ffff4afc <immx+0x452e702c>
    14a4:	00300593          	addi	a1,zero,3
    14a8:	00b54633          	xor	a2,a0,a1
    14ac:	36c6a423          	sw	a2,872(a3)

000014b0 <inst_237>:
    14b0:	ffff5537          	lui	a0,0xffff5
    14b4:	afc50513          	addi	a0,a0,-1284 # ffff4afc <immx+0x452e702c>
    14b8:	555555b7          	lui	a1,0x55555
    14bc:	55558593          	addi	a1,a1,1365 # 55555555 <absimm+0x10263026>
    14c0:	00b54633          	xor	a2,a0,a1
    14c4:	36c6a623          	sw	a2,876(a3)

000014c8 <inst_238>:
    14c8:	ffff5537          	lui	a0,0xffff5
    14cc:	afc50513          	addi	a0,a0,-1284 # ffff4afc <immx+0x452e702c>
    14d0:	aaaab5b7          	lui	a1,0xaaaab
    14d4:	aaa58593          	addi	a1,a1,-1366 # aaaaaaaa <absimm+0x657b857b>
    14d8:	00b54633          	xor	a2,a0,a1
    14dc:	36c6a823          	sw	a2,880(a3)

000014e0 <inst_239>:
    14e0:	ffff5537          	lui	a0,0xffff5
    14e4:	afc50513          	addi	a0,a0,-1284 # ffff4afc <immx+0x452e702c>
    14e8:	00500593          	addi	a1,zero,5
    14ec:	00b54633          	xor	a2,a0,a1
    14f0:	36c6aa23          	sw	a2,884(a3)

000014f4 <inst_240>:
    14f4:	ffff5537          	lui	a0,0xffff5
    14f8:	afc50513          	addi	a0,a0,-1284 # ffff4afc <immx+0x452e702c>
    14fc:	333335b7          	lui	a1,0x33333
    1500:	33358593          	addi	a1,a1,819 # 33333333 <_end+0x3332972b>
    1504:	00b54633          	xor	a2,a0,a1
    1508:	36c6ac23          	sw	a2,888(a3)

0000150c <inst_241>:
    150c:	ffff5537          	lui	a0,0xffff5
    1510:	afc50513          	addi	a0,a0,-1284 # ffff4afc <immx+0x452e702c>
    1514:	666665b7          	lui	a1,0x66666
    1518:	66658593          	addi	a1,a1,1638 # 66666666 <absimm+0x21374137>
    151c:	00b54633          	xor	a2,a0,a1
    1520:	36c6ae23          	sw	a2,892(a3)

00001524 <inst_242>:
    1524:	ffff5537          	lui	a0,0xffff5
    1528:	afc50513          	addi	a0,a0,-1284 # ffff4afc <immx+0x452e702c>
    152c:	ffff55b7          	lui	a1,0xffff5
    1530:	afc58593          	addi	a1,a1,-1284 # ffff4afc <immx+0x452e702c>
    1534:	00b54633          	xor	a2,a0,a1
    1538:	38c6a023          	sw	a2,896(a3)

0000153c <inst_243>:
    153c:	ffff5537          	lui	a0,0xffff5
    1540:	afc50513          	addi	a0,a0,-1284 # ffff4afc <immx+0x452e702c>
    1544:	0000b5b7          	lui	a1,0xb
    1548:	50458593          	addi	a1,a1,1284 # b504 <_end+0x18fc>
    154c:	00b54633          	xor	a2,a0,a1
    1550:	38c6a223          	sw	a2,900(a3)

00001554 <inst_244>:
    1554:	ffff5537          	lui	a0,0xffff5
    1558:	afc50513          	addi	a0,a0,-1284 # ffff4afc <immx+0x452e702c>
    155c:	00200593          	addi	a1,zero,2
    1560:	00b54633          	xor	a2,a0,a1
    1564:	38c6a423          	sw	a2,904(a3)

00001568 <inst_245>:
    1568:	ffff5537          	lui	a0,0xffff5
    156c:	afc50513          	addi	a0,a0,-1284 # ffff4afc <immx+0x452e702c>
    1570:	555555b7          	lui	a1,0x55555
    1574:	55458593          	addi	a1,a1,1364 # 55555554 <absimm+0x10263025>
    1578:	00b54633          	xor	a2,a0,a1
    157c:	38c6a623          	sw	a2,908(a3)

00001580 <inst_246>:
    1580:	ffff5537          	lui	a0,0xffff5
    1584:	afc50513          	addi	a0,a0,-1284 # ffff4afc <immx+0x452e702c>
    1588:	00000593          	addi	a1,zero,0
    158c:	00b54633          	xor	a2,a0,a1
    1590:	38c6a823          	sw	a2,912(a3)

00001594 <inst_247>:
    1594:	ffff5537          	lui	a0,0xffff5
    1598:	afc50513          	addi	a0,a0,-1284 # ffff4afc <immx+0x452e702c>
    159c:	00400593          	addi	a1,zero,4
    15a0:	00b54633          	xor	a2,a0,a1
    15a4:	38c6aa23          	sw	a2,916(a3)

000015a8 <inst_248>:
    15a8:	ffff5537          	lui	a0,0xffff5
    15ac:	afc50513          	addi	a0,a0,-1284 # ffff4afc <immx+0x452e702c>
    15b0:	333335b7          	lui	a1,0x33333
    15b4:	33258593          	addi	a1,a1,818 # 33333332 <_end+0x3332972a>
    15b8:	00b54633          	xor	a2,a0,a1
    15bc:	38c6ac23          	sw	a2,920(a3)

000015c0 <inst_249>:
    15c0:	ffff5537          	lui	a0,0xffff5
    15c4:	afc50513          	addi	a0,a0,-1284 # ffff4afc <immx+0x452e702c>
    15c8:	666665b7          	lui	a1,0x66666
    15cc:	66558593          	addi	a1,a1,1637 # 66666665 <absimm+0x21374136>
    15d0:	00b54633          	xor	a2,a0,a1
    15d4:	38c6ae23          	sw	a2,924(a3)

000015d8 <inst_250>:
    15d8:	ffff5537          	lui	a0,0xffff5
    15dc:	afc50513          	addi	a0,a0,-1284 # ffff4afc <immx+0x452e702c>
    15e0:	0000b5b7          	lui	a1,0xb
    15e4:	50358593          	addi	a1,a1,1283 # b503 <_end+0x18fb>
    15e8:	00b54633          	xor	a2,a0,a1
    15ec:	3ac6a023          	sw	a2,928(a3)

000015f0 <inst_251>:
    15f0:	ffff5537          	lui	a0,0xffff5
    15f4:	afc50513          	addi	a0,a0,-1284 # ffff4afc <immx+0x452e702c>
    15f8:	555555b7          	lui	a1,0x55555
    15fc:	55658593          	addi	a1,a1,1366 # 55555556 <absimm+0x10263027>
    1600:	00b54633          	xor	a2,a0,a1
    1604:	3ac6a223          	sw	a2,932(a3)

00001608 <inst_252>:
    1608:	ffff5537          	lui	a0,0xffff5
    160c:	afc50513          	addi	a0,a0,-1284 # ffff4afc <immx+0x452e702c>
    1610:	aaaab5b7          	lui	a1,0xaaaab
    1614:	aab58593          	addi	a1,a1,-1365 # aaaaaaab <absimm+0x657b857c>
    1618:	00b54633          	xor	a2,a0,a1
    161c:	3ac6a423          	sw	a2,936(a3)

00001620 <inst_253>:
    1620:	ffff5537          	lui	a0,0xffff5
    1624:	afc50513          	addi	a0,a0,-1284 # ffff4afc <immx+0x452e702c>
    1628:	00600593          	addi	a1,zero,6
    162c:	00b54633          	xor	a2,a0,a1
    1630:	3ac6a623          	sw	a2,940(a3)

00001634 <inst_254>:
    1634:	ffff5537          	lui	a0,0xffff5
    1638:	afc50513          	addi	a0,a0,-1284 # ffff4afc <immx+0x452e702c>
    163c:	333335b7          	lui	a1,0x33333
    1640:	33458593          	addi	a1,a1,820 # 33333334 <_end+0x3332972c>
    1644:	00b54633          	xor	a2,a0,a1
    1648:	3ac6a823          	sw	a2,944(a3)

0000164c <inst_255>:
    164c:	ffff5537          	lui	a0,0xffff5
    1650:	afc50513          	addi	a0,a0,-1284 # ffff4afc <immx+0x452e702c>
    1654:	666665b7          	lui	a1,0x66666
    1658:	66758593          	addi	a1,a1,1639 # 66666667 <absimm+0x21374138>
    165c:	00b54633          	xor	a2,a0,a1
    1660:	3ac6aa23          	sw	a2,948(a3)

00001664 <inst_256>:
    1664:	ffff5537          	lui	a0,0xffff5
    1668:	afc50513          	addi	a0,a0,-1284 # ffff4afc <immx+0x452e702c>
    166c:	ffff55b7          	lui	a1,0xffff5
    1670:	afd58593          	addi	a1,a1,-1283 # ffff4afd <immx+0x452e702d>
    1674:	00b54633          	xor	a2,a0,a1
    1678:	3ac6ac23          	sw	a2,952(a3)

0000167c <inst_257>:
    167c:	ffff5537          	lui	a0,0xffff5
    1680:	afc50513          	addi	a0,a0,-1284 # ffff4afc <immx+0x452e702c>
    1684:	0000b5b7          	lui	a1,0xb
    1688:	50558593          	addi	a1,a1,1285 # b505 <_end+0x18fd>
    168c:	00b54633          	xor	a2,a0,a1
    1690:	3ac6ae23          	sw	a2,956(a3)

00001694 <inst_258>:
    1694:	0000b537          	lui	a0,0xb
    1698:	50450513          	addi	a0,a0,1284 # b504 <_end+0x18fc>
    169c:	00300593          	addi	a1,zero,3
    16a0:	00b54633          	xor	a2,a0,a1
    16a4:	3cc6a023          	sw	a2,960(a3)

000016a8 <inst_259>:
    16a8:	0000b537          	lui	a0,0xb
    16ac:	50450513          	addi	a0,a0,1284 # b504 <_end+0x18fc>
    16b0:	555555b7          	lui	a1,0x55555
    16b4:	55558593          	addi	a1,a1,1365 # 55555555 <absimm+0x10263026>
    16b8:	00b54633          	xor	a2,a0,a1
    16bc:	3cc6a223          	sw	a2,964(a3)

000016c0 <inst_260>:
    16c0:	0000b537          	lui	a0,0xb
    16c4:	50450513          	addi	a0,a0,1284 # b504 <_end+0x18fc>
    16c8:	aaaab5b7          	lui	a1,0xaaaab
    16cc:	aaa58593          	addi	a1,a1,-1366 # aaaaaaaa <absimm+0x657b857b>
    16d0:	00b54633          	xor	a2,a0,a1
    16d4:	3cc6a423          	sw	a2,968(a3)

000016d8 <inst_261>:
    16d8:	0000b537          	lui	a0,0xb
    16dc:	50450513          	addi	a0,a0,1284 # b504 <_end+0x18fc>
    16e0:	00500593          	addi	a1,zero,5
    16e4:	00b54633          	xor	a2,a0,a1
    16e8:	3cc6a623          	sw	a2,972(a3)

000016ec <inst_262>:
    16ec:	0000b537          	lui	a0,0xb
    16f0:	50450513          	addi	a0,a0,1284 # b504 <_end+0x18fc>
    16f4:	333335b7          	lui	a1,0x33333
    16f8:	33358593          	addi	a1,a1,819 # 33333333 <_end+0x3332972b>
    16fc:	00b54633          	xor	a2,a0,a1
    1700:	3cc6a823          	sw	a2,976(a3)

00001704 <inst_263>:
    1704:	0000b537          	lui	a0,0xb
    1708:	50450513          	addi	a0,a0,1284 # b504 <_end+0x18fc>
    170c:	666665b7          	lui	a1,0x66666
    1710:	66658593          	addi	a1,a1,1638 # 66666666 <absimm+0x21374137>
    1714:	00b54633          	xor	a2,a0,a1
    1718:	3cc6aa23          	sw	a2,980(a3)

0000171c <inst_264>:
    171c:	0000b537          	lui	a0,0xb
    1720:	50450513          	addi	a0,a0,1284 # b504 <_end+0x18fc>
    1724:	ffff55b7          	lui	a1,0xffff5
    1728:	afc58593          	addi	a1,a1,-1284 # ffff4afc <immx+0x452e702c>
    172c:	00b54633          	xor	a2,a0,a1
    1730:	3cc6ac23          	sw	a2,984(a3)

00001734 <inst_265>:
    1734:	0000b537          	lui	a0,0xb
    1738:	50450513          	addi	a0,a0,1284 # b504 <_end+0x18fc>
    173c:	0000b5b7          	lui	a1,0xb
    1740:	50458593          	addi	a1,a1,1284 # b504 <_end+0x18fc>
    1744:	00b54633          	xor	a2,a0,a1
    1748:	3cc6ae23          	sw	a2,988(a3)

0000174c <inst_266>:
    174c:	0000b537          	lui	a0,0xb
    1750:	50450513          	addi	a0,a0,1284 # b504 <_end+0x18fc>
    1754:	00200593          	addi	a1,zero,2
    1758:	00b54633          	xor	a2,a0,a1
    175c:	3ec6a023          	sw	a2,992(a3)

00001760 <inst_267>:
    1760:	0000b537          	lui	a0,0xb
    1764:	50450513          	addi	a0,a0,1284 # b504 <_end+0x18fc>
    1768:	555555b7          	lui	a1,0x55555
    176c:	55458593          	addi	a1,a1,1364 # 55555554 <absimm+0x10263025>
    1770:	00b54633          	xor	a2,a0,a1
    1774:	3ec6a223          	sw	a2,996(a3)

00001778 <inst_268>:
    1778:	0000b537          	lui	a0,0xb
    177c:	50450513          	addi	a0,a0,1284 # b504 <_end+0x18fc>
    1780:	00000593          	addi	a1,zero,0
    1784:	00b54633          	xor	a2,a0,a1
    1788:	3ec6a423          	sw	a2,1000(a3)

0000178c <inst_269>:
    178c:	0000b537          	lui	a0,0xb
    1790:	50450513          	addi	a0,a0,1284 # b504 <_end+0x18fc>
    1794:	00400593          	addi	a1,zero,4
    1798:	00b54633          	xor	a2,a0,a1
    179c:	3ec6a623          	sw	a2,1004(a3)

000017a0 <inst_270>:
    17a0:	0000b537          	lui	a0,0xb
    17a4:	50450513          	addi	a0,a0,1284 # b504 <_end+0x18fc>
    17a8:	333335b7          	lui	a1,0x33333
    17ac:	33258593          	addi	a1,a1,818 # 33333332 <_end+0x3332972a>
    17b0:	00b54633          	xor	a2,a0,a1
    17b4:	3ec6a823          	sw	a2,1008(a3)

000017b8 <inst_271>:
    17b8:	0000b537          	lui	a0,0xb
    17bc:	50450513          	addi	a0,a0,1284 # b504 <_end+0x18fc>
    17c0:	666665b7          	lui	a1,0x66666
    17c4:	66558593          	addi	a1,a1,1637 # 66666665 <absimm+0x21374136>
    17c8:	00b54633          	xor	a2,a0,a1
    17cc:	3ec6aa23          	sw	a2,1012(a3)

000017d0 <inst_272>:
    17d0:	0000b537          	lui	a0,0xb
    17d4:	50450513          	addi	a0,a0,1284 # b504 <_end+0x18fc>
    17d8:	0000b5b7          	lui	a1,0xb
    17dc:	50358593          	addi	a1,a1,1283 # b503 <_end+0x18fb>
    17e0:	00b54633          	xor	a2,a0,a1
    17e4:	3ec6ac23          	sw	a2,1016(a3)

000017e8 <inst_273>:
    17e8:	0000b537          	lui	a0,0xb
    17ec:	50450513          	addi	a0,a0,1284 # b504 <_end+0x18fc>
    17f0:	555555b7          	lui	a1,0x55555
    17f4:	55658593          	addi	a1,a1,1366 # 55555556 <absimm+0x10263027>
    17f8:	00b54633          	xor	a2,a0,a1
    17fc:	3ec6ae23          	sw	a2,1020(a3)

00001800 <inst_274>:
    1800:	0000b537          	lui	a0,0xb
    1804:	50450513          	addi	a0,a0,1284 # b504 <_end+0x18fc>
    1808:	aaaab5b7          	lui	a1,0xaaaab
    180c:	aab58593          	addi	a1,a1,-1365 # aaaaaaab <absimm+0x657b857c>
    1810:	00b54633          	xor	a2,a0,a1
    1814:	40c6a023          	sw	a2,1024(a3)

00001818 <inst_275>:
    1818:	0000b537          	lui	a0,0xb
    181c:	50450513          	addi	a0,a0,1284 # b504 <_end+0x18fc>
    1820:	00600593          	addi	a1,zero,6
    1824:	00b54633          	xor	a2,a0,a1
    1828:	40c6a223          	sw	a2,1028(a3)

0000182c <inst_276>:
    182c:	0000b537          	lui	a0,0xb
    1830:	50450513          	addi	a0,a0,1284 # b504 <_end+0x18fc>
    1834:	333335b7          	lui	a1,0x33333
    1838:	33458593          	addi	a1,a1,820 # 33333334 <_end+0x3332972c>
    183c:	00b54633          	xor	a2,a0,a1
    1840:	40c6a423          	sw	a2,1032(a3)

00001844 <inst_277>:
    1844:	0000b537          	lui	a0,0xb
    1848:	50450513          	addi	a0,a0,1284 # b504 <_end+0x18fc>
    184c:	666665b7          	lui	a1,0x66666
    1850:	66758593          	addi	a1,a1,1639 # 66666667 <absimm+0x21374138>
    1854:	00b54633          	xor	a2,a0,a1
    1858:	40c6a623          	sw	a2,1036(a3)

0000185c <inst_278>:
    185c:	0000b537          	lui	a0,0xb
    1860:	50450513          	addi	a0,a0,1284 # b504 <_end+0x18fc>
    1864:	ffff55b7          	lui	a1,0xffff5
    1868:	afd58593          	addi	a1,a1,-1283 # ffff4afd <immx+0x452e702d>
    186c:	00b54633          	xor	a2,a0,a1
    1870:	40c6a823          	sw	a2,1040(a3)

00001874 <inst_279>:
    1874:	0000b537          	lui	a0,0xb
    1878:	50450513          	addi	a0,a0,1284 # b504 <_end+0x18fc>
    187c:	0000b5b7          	lui	a1,0xb
    1880:	50558593          	addi	a1,a1,1285 # b505 <_end+0x18fd>
    1884:	00b54633          	xor	a2,a0,a1
    1888:	40c6aa23          	sw	a2,1044(a3)

0000188c <inst_280>:
    188c:	00200513          	addi	a0,zero,2
    1890:	00300593          	addi	a1,zero,3
    1894:	00b54633          	xor	a2,a0,a1
    1898:	40c6ac23          	sw	a2,1048(a3)

0000189c <inst_281>:
    189c:	00200513          	addi	a0,zero,2
    18a0:	555555b7          	lui	a1,0x55555
    18a4:	55558593          	addi	a1,a1,1365 # 55555555 <absimm+0x10263026>
    18a8:	00b54633          	xor	a2,a0,a1
    18ac:	40c6ae23          	sw	a2,1052(a3)

000018b0 <inst_282>:
    18b0:	00200513          	addi	a0,zero,2
    18b4:	aaaab5b7          	lui	a1,0xaaaab
    18b8:	aaa58593          	addi	a1,a1,-1366 # aaaaaaaa <absimm+0x657b857b>
    18bc:	00b54633          	xor	a2,a0,a1
    18c0:	42c6a023          	sw	a2,1056(a3)

000018c4 <inst_283>:
    18c4:	00200513          	addi	a0,zero,2
    18c8:	00500593          	addi	a1,zero,5
    18cc:	00b54633          	xor	a2,a0,a1
    18d0:	42c6a223          	sw	a2,1060(a3)

000018d4 <inst_284>:
    18d4:	00200513          	addi	a0,zero,2
    18d8:	333335b7          	lui	a1,0x33333
    18dc:	33358593          	addi	a1,a1,819 # 33333333 <_end+0x3332972b>
    18e0:	00b54633          	xor	a2,a0,a1
    18e4:	42c6a423          	sw	a2,1064(a3)

000018e8 <inst_285>:
    18e8:	00200513          	addi	a0,zero,2
    18ec:	666665b7          	lui	a1,0x66666
    18f0:	66658593          	addi	a1,a1,1638 # 66666666 <absimm+0x21374137>
    18f4:	00b54633          	xor	a2,a0,a1
    18f8:	42c6a623          	sw	a2,1068(a3)

000018fc <inst_286>:
    18fc:	00200513          	addi	a0,zero,2
    1900:	ffff55b7          	lui	a1,0xffff5
    1904:	afc58593          	addi	a1,a1,-1284 # ffff4afc <immx+0x452e702c>
    1908:	00b54633          	xor	a2,a0,a1
    190c:	42c6a823          	sw	a2,1072(a3)

00001910 <inst_287>:
    1910:	00200513          	addi	a0,zero,2
    1914:	0000b5b7          	lui	a1,0xb
    1918:	50458593          	addi	a1,a1,1284 # b504 <_end+0x18fc>
    191c:	00b54633          	xor	a2,a0,a1
    1920:	42c6aa23          	sw	a2,1076(a3)

00001924 <inst_288>:
    1924:	00200513          	addi	a0,zero,2
    1928:	00200593          	addi	a1,zero,2
    192c:	00b54633          	xor	a2,a0,a1
    1930:	42c6ac23          	sw	a2,1080(a3)

00001934 <inst_289>:
    1934:	00200513          	addi	a0,zero,2
    1938:	555555b7          	lui	a1,0x55555
    193c:	55458593          	addi	a1,a1,1364 # 55555554 <absimm+0x10263025>
    1940:	00b54633          	xor	a2,a0,a1
    1944:	42c6ae23          	sw	a2,1084(a3)

00001948 <inst_290>:
    1948:	00200513          	addi	a0,zero,2
    194c:	00000593          	addi	a1,zero,0
    1950:	00b54633          	xor	a2,a0,a1
    1954:	44c6a023          	sw	a2,1088(a3)

00001958 <inst_291>:
    1958:	00200513          	addi	a0,zero,2
    195c:	00400593          	addi	a1,zero,4
    1960:	00b54633          	xor	a2,a0,a1
    1964:	44c6a223          	sw	a2,1092(a3)

00001968 <inst_292>:
    1968:	00200513          	addi	a0,zero,2
    196c:	333335b7          	lui	a1,0x33333
    1970:	33258593          	addi	a1,a1,818 # 33333332 <_end+0x3332972a>
    1974:	00b54633          	xor	a2,a0,a1
    1978:	44c6a423          	sw	a2,1096(a3)

0000197c <inst_293>:
    197c:	00200513          	addi	a0,zero,2
    1980:	666665b7          	lui	a1,0x66666
    1984:	66558593          	addi	a1,a1,1637 # 66666665 <absimm+0x21374136>
    1988:	00b54633          	xor	a2,a0,a1
    198c:	44c6a623          	sw	a2,1100(a3)

00001990 <inst_294>:
    1990:	00200513          	addi	a0,zero,2
    1994:	0000b5b7          	lui	a1,0xb
    1998:	50358593          	addi	a1,a1,1283 # b503 <_end+0x18fb>
    199c:	00b54633          	xor	a2,a0,a1
    19a0:	44c6a823          	sw	a2,1104(a3)

000019a4 <inst_295>:
    19a4:	00200513          	addi	a0,zero,2
    19a8:	555555b7          	lui	a1,0x55555
    19ac:	55658593          	addi	a1,a1,1366 # 55555556 <absimm+0x10263027>
    19b0:	00b54633          	xor	a2,a0,a1
    19b4:	44c6aa23          	sw	a2,1108(a3)

000019b8 <inst_296>:
    19b8:	00200513          	addi	a0,zero,2
    19bc:	aaaab5b7          	lui	a1,0xaaaab
    19c0:	aab58593          	addi	a1,a1,-1365 # aaaaaaab <absimm+0x657b857c>
    19c4:	00b54633          	xor	a2,a0,a1
    19c8:	44c6ac23          	sw	a2,1112(a3)

000019cc <inst_297>:
    19cc:	00200513          	addi	a0,zero,2
    19d0:	00600593          	addi	a1,zero,6
    19d4:	00b54633          	xor	a2,a0,a1
    19d8:	44c6ae23          	sw	a2,1116(a3)

000019dc <inst_298>:
    19dc:	00200513          	addi	a0,zero,2
    19e0:	333335b7          	lui	a1,0x33333
    19e4:	33458593          	addi	a1,a1,820 # 33333334 <_end+0x3332972c>
    19e8:	00b54633          	xor	a2,a0,a1
    19ec:	46c6a023          	sw	a2,1120(a3)

000019f0 <inst_299>:
    19f0:	00200513          	addi	a0,zero,2
    19f4:	666665b7          	lui	a1,0x66666
    19f8:	66758593          	addi	a1,a1,1639 # 66666667 <absimm+0x21374138>
    19fc:	00b54633          	xor	a2,a0,a1
    1a00:	46c6a223          	sw	a2,1124(a3)

00001a04 <inst_300>:
    1a04:	00200513          	addi	a0,zero,2
    1a08:	ffff55b7          	lui	a1,0xffff5
    1a0c:	afd58593          	addi	a1,a1,-1283 # ffff4afd <immx+0x452e702d>
    1a10:	00b54633          	xor	a2,a0,a1
    1a14:	46c6a423          	sw	a2,1128(a3)

00001a18 <inst_301>:
    1a18:	00200513          	addi	a0,zero,2
    1a1c:	0000b5b7          	lui	a1,0xb
    1a20:	50558593          	addi	a1,a1,1285 # b505 <_end+0x18fd>
    1a24:	00b54633          	xor	a2,a0,a1
    1a28:	46c6a623          	sw	a2,1132(a3)

00001a2c <inst_302>:
    1a2c:	55555537          	lui	a0,0x55555
    1a30:	55450513          	addi	a0,a0,1364 # 55555554 <absimm+0x10263025>
    1a34:	00300593          	addi	a1,zero,3
    1a38:	00b54633          	xor	a2,a0,a1
    1a3c:	46c6a823          	sw	a2,1136(a3)

00001a40 <inst_303>:
    1a40:	55555537          	lui	a0,0x55555
    1a44:	55450513          	addi	a0,a0,1364 # 55555554 <absimm+0x10263025>
    1a48:	aaaab5b7          	lui	a1,0xaaaab
    1a4c:	aaa58593          	addi	a1,a1,-1366 # aaaaaaaa <absimm+0x657b857b>
    1a50:	00b54633          	xor	a2,a0,a1
    1a54:	46c6aa23          	sw	a2,1140(a3)

00001a58 <inst_304>:
    1a58:	55555537          	lui	a0,0x55555
    1a5c:	55450513          	addi	a0,a0,1364 # 55555554 <absimm+0x10263025>
    1a60:	00500593          	addi	a1,zero,5
    1a64:	00b54633          	xor	a2,a0,a1
    1a68:	46c6ac23          	sw	a2,1144(a3)

00001a6c <inst_305>:
    1a6c:	55555537          	lui	a0,0x55555
    1a70:	55450513          	addi	a0,a0,1364 # 55555554 <absimm+0x10263025>
    1a74:	333335b7          	lui	a1,0x33333
    1a78:	33358593          	addi	a1,a1,819 # 33333333 <_end+0x3332972b>
    1a7c:	00b54633          	xor	a2,a0,a1
    1a80:	46c6ae23          	sw	a2,1148(a3)

00001a84 <inst_306>:
    1a84:	55555537          	lui	a0,0x55555
    1a88:	55450513          	addi	a0,a0,1364 # 55555554 <absimm+0x10263025>
    1a8c:	666665b7          	lui	a1,0x66666
    1a90:	66658593          	addi	a1,a1,1638 # 66666666 <absimm+0x21374137>
    1a94:	00b54633          	xor	a2,a0,a1
    1a98:	48c6a023          	sw	a2,1152(a3)

00001a9c <inst_307>:
    1a9c:	55555537          	lui	a0,0x55555
    1aa0:	55450513          	addi	a0,a0,1364 # 55555554 <absimm+0x10263025>
    1aa4:	ffff55b7          	lui	a1,0xffff5
    1aa8:	afc58593          	addi	a1,a1,-1284 # ffff4afc <immx+0x452e702c>
    1aac:	00b54633          	xor	a2,a0,a1
    1ab0:	48c6a223          	sw	a2,1156(a3)

00001ab4 <inst_308>:
    1ab4:	55555537          	lui	a0,0x55555
    1ab8:	55450513          	addi	a0,a0,1364 # 55555554 <absimm+0x10263025>
    1abc:	0000b5b7          	lui	a1,0xb
    1ac0:	50458593          	addi	a1,a1,1284 # b504 <_end+0x18fc>
    1ac4:	00b54633          	xor	a2,a0,a1
    1ac8:	48c6a423          	sw	a2,1160(a3)

00001acc <inst_309>:
    1acc:	55555537          	lui	a0,0x55555
    1ad0:	55450513          	addi	a0,a0,1364 # 55555554 <absimm+0x10263025>
    1ad4:	00200593          	addi	a1,zero,2
    1ad8:	00b54633          	xor	a2,a0,a1
    1adc:	48c6a623          	sw	a2,1164(a3)

00001ae0 <inst_310>:
    1ae0:	55555537          	lui	a0,0x55555
    1ae4:	55450513          	addi	a0,a0,1364 # 55555554 <absimm+0x10263025>
    1ae8:	555555b7          	lui	a1,0x55555
    1aec:	55458593          	addi	a1,a1,1364 # 55555554 <absimm+0x10263025>
    1af0:	00b54633          	xor	a2,a0,a1
    1af4:	48c6a823          	sw	a2,1168(a3)

00001af8 <inst_311>:
    1af8:	55555537          	lui	a0,0x55555
    1afc:	55450513          	addi	a0,a0,1364 # 55555554 <absimm+0x10263025>
    1b00:	00000593          	addi	a1,zero,0
    1b04:	00b54633          	xor	a2,a0,a1
    1b08:	48c6aa23          	sw	a2,1172(a3)

00001b0c <inst_312>:
    1b0c:	55555537          	lui	a0,0x55555
    1b10:	55450513          	addi	a0,a0,1364 # 55555554 <absimm+0x10263025>
    1b14:	00400593          	addi	a1,zero,4
    1b18:	00b54633          	xor	a2,a0,a1
    1b1c:	48c6ac23          	sw	a2,1176(a3)

00001b20 <inst_313>:
    1b20:	55555537          	lui	a0,0x55555
    1b24:	55450513          	addi	a0,a0,1364 # 55555554 <absimm+0x10263025>
    1b28:	333335b7          	lui	a1,0x33333
    1b2c:	33258593          	addi	a1,a1,818 # 33333332 <_end+0x3332972a>
    1b30:	00b54633          	xor	a2,a0,a1
    1b34:	48c6ae23          	sw	a2,1180(a3)

00001b38 <inst_314>:
    1b38:	55555537          	lui	a0,0x55555
    1b3c:	55450513          	addi	a0,a0,1364 # 55555554 <absimm+0x10263025>
    1b40:	666665b7          	lui	a1,0x66666
    1b44:	66558593          	addi	a1,a1,1637 # 66666665 <absimm+0x21374136>
    1b48:	00b54633          	xor	a2,a0,a1
    1b4c:	4ac6a023          	sw	a2,1184(a3)

00001b50 <inst_315>:
    1b50:	55555537          	lui	a0,0x55555
    1b54:	55450513          	addi	a0,a0,1364 # 55555554 <absimm+0x10263025>
    1b58:	0000b5b7          	lui	a1,0xb
    1b5c:	50358593          	addi	a1,a1,1283 # b503 <_end+0x18fb>
    1b60:	00b54633          	xor	a2,a0,a1
    1b64:	4ac6a223          	sw	a2,1188(a3)

00001b68 <inst_316>:
    1b68:	55555537          	lui	a0,0x55555
    1b6c:	55450513          	addi	a0,a0,1364 # 55555554 <absimm+0x10263025>
    1b70:	555555b7          	lui	a1,0x55555
    1b74:	55658593          	addi	a1,a1,1366 # 55555556 <absimm+0x10263027>
    1b78:	00b54633          	xor	a2,a0,a1
    1b7c:	4ac6a423          	sw	a2,1192(a3)

00001b80 <inst_317>:
    1b80:	55555537          	lui	a0,0x55555
    1b84:	55450513          	addi	a0,a0,1364 # 55555554 <absimm+0x10263025>
    1b88:	aaaab5b7          	lui	a1,0xaaaab
    1b8c:	aab58593          	addi	a1,a1,-1365 # aaaaaaab <absimm+0x657b857c>
    1b90:	00b54633          	xor	a2,a0,a1
    1b94:	4ac6a623          	sw	a2,1196(a3)

00001b98 <inst_318>:
    1b98:	55555537          	lui	a0,0x55555
    1b9c:	55450513          	addi	a0,a0,1364 # 55555554 <absimm+0x10263025>
    1ba0:	00600593          	addi	a1,zero,6
    1ba4:	00b54633          	xor	a2,a0,a1
    1ba8:	4ac6a823          	sw	a2,1200(a3)

00001bac <inst_319>:
    1bac:	55555537          	lui	a0,0x55555
    1bb0:	55450513          	addi	a0,a0,1364 # 55555554 <absimm+0x10263025>
    1bb4:	333335b7          	lui	a1,0x33333
    1bb8:	33458593          	addi	a1,a1,820 # 33333334 <_end+0x3332972c>
    1bbc:	00b54633          	xor	a2,a0,a1
    1bc0:	4ac6aa23          	sw	a2,1204(a3)

00001bc4 <inst_320>:
    1bc4:	55555537          	lui	a0,0x55555
    1bc8:	55450513          	addi	a0,a0,1364 # 55555554 <absimm+0x10263025>
    1bcc:	666665b7          	lui	a1,0x66666
    1bd0:	66758593          	addi	a1,a1,1639 # 66666667 <absimm+0x21374138>
    1bd4:	00b54633          	xor	a2,a0,a1
    1bd8:	4ac6ac23          	sw	a2,1208(a3)

00001bdc <inst_321>:
    1bdc:	55555537          	lui	a0,0x55555
    1be0:	55450513          	addi	a0,a0,1364 # 55555554 <absimm+0x10263025>
    1be4:	ffff55b7          	lui	a1,0xffff5
    1be8:	afd58593          	addi	a1,a1,-1283 # ffff4afd <immx+0x452e702d>
    1bec:	00b54633          	xor	a2,a0,a1
    1bf0:	4ac6ae23          	sw	a2,1212(a3)

00001bf4 <inst_322>:
    1bf4:	55555537          	lui	a0,0x55555
    1bf8:	55450513          	addi	a0,a0,1364 # 55555554 <absimm+0x10263025>
    1bfc:	0000b5b7          	lui	a1,0xb
    1c00:	50558593          	addi	a1,a1,1285 # b505 <_end+0x18fd>
    1c04:	00b54633          	xor	a2,a0,a1
    1c08:	4cc6a023          	sw	a2,1216(a3)

00001c0c <inst_323>:
    1c0c:	00000513          	addi	a0,zero,0
    1c10:	00300593          	addi	a1,zero,3
    1c14:	00b54633          	xor	a2,a0,a1
    1c18:	4cc6a223          	sw	a2,1220(a3)

00001c1c <inst_324>:
    1c1c:	00000513          	addi	a0,zero,0
    1c20:	555555b7          	lui	a1,0x55555
    1c24:	55558593          	addi	a1,a1,1365 # 55555555 <absimm+0x10263026>
    1c28:	00b54633          	xor	a2,a0,a1
    1c2c:	4cc6a423          	sw	a2,1224(a3)

00001c30 <inst_325>:
    1c30:	00000513          	addi	a0,zero,0
    1c34:	aaaab5b7          	lui	a1,0xaaaab
    1c38:	aaa58593          	addi	a1,a1,-1366 # aaaaaaaa <absimm+0x657b857b>
    1c3c:	00b54633          	xor	a2,a0,a1
    1c40:	4cc6a623          	sw	a2,1228(a3)

00001c44 <inst_326>:
    1c44:	00000513          	addi	a0,zero,0
    1c48:	00500593          	addi	a1,zero,5
    1c4c:	00b54633          	xor	a2,a0,a1
    1c50:	4cc6a823          	sw	a2,1232(a3)

00001c54 <inst_327>:
    1c54:	00000513          	addi	a0,zero,0
    1c58:	333335b7          	lui	a1,0x33333
    1c5c:	33358593          	addi	a1,a1,819 # 33333333 <_end+0x3332972b>
    1c60:	00b54633          	xor	a2,a0,a1
    1c64:	4cc6aa23          	sw	a2,1236(a3)

00001c68 <inst_328>:
    1c68:	00000513          	addi	a0,zero,0
    1c6c:	666665b7          	lui	a1,0x66666
    1c70:	66658593          	addi	a1,a1,1638 # 66666666 <absimm+0x21374137>
    1c74:	00b54633          	xor	a2,a0,a1
    1c78:	4cc6ac23          	sw	a2,1240(a3)

00001c7c <inst_329>:
    1c7c:	00000513          	addi	a0,zero,0
    1c80:	0000b5b7          	lui	a1,0xb
    1c84:	50458593          	addi	a1,a1,1284 # b504 <_end+0x18fc>
    1c88:	00b54633          	xor	a2,a0,a1
    1c8c:	4cc6ae23          	sw	a2,1244(a3)

00001c90 <inst_330>:
    1c90:	aaaab537          	lui	a0,0xaaaab
    1c94:	aab50513          	addi	a0,a0,-1365 # aaaaaaab <absimm+0x657b857c>
    1c98:	aaaab5b7          	lui	a1,0xaaaab
    1c9c:	aab58593          	addi	a1,a1,-1365 # aaaaaaab <absimm+0x657b857c>
    1ca0:	00b54633          	xor	a2,a0,a1
    1ca4:	4ec6a023          	sw	a2,1248(a3)

00001ca8 <inst_331>:
    1ca8:	aaaab537          	lui	a0,0xaaaab
    1cac:	aab50513          	addi	a0,a0,-1365 # aaaaaaab <absimm+0x657b857c>
    1cb0:	00600593          	addi	a1,zero,6
    1cb4:	00b54633          	xor	a2,a0,a1
    1cb8:	4ec6a223          	sw	a2,1252(a3)

00001cbc <inst_332>:
    1cbc:	aaaab537          	lui	a0,0xaaaab
    1cc0:	aab50513          	addi	a0,a0,-1365 # aaaaaaab <absimm+0x657b857c>
    1cc4:	333335b7          	lui	a1,0x33333
    1cc8:	33458593          	addi	a1,a1,820 # 33333334 <_end+0x3332972c>
    1ccc:	00b54633          	xor	a2,a0,a1
    1cd0:	4ec6a423          	sw	a2,1256(a3)

00001cd4 <inst_333>:
    1cd4:	aaaab537          	lui	a0,0xaaaab
    1cd8:	aab50513          	addi	a0,a0,-1365 # aaaaaaab <absimm+0x657b857c>
    1cdc:	666665b7          	lui	a1,0x66666
    1ce0:	66758593          	addi	a1,a1,1639 # 66666667 <absimm+0x21374138>
    1ce4:	00b54633          	xor	a2,a0,a1
    1ce8:	4ec6a623          	sw	a2,1260(a3)

00001cec <inst_334>:
    1cec:	aaaab537          	lui	a0,0xaaaab
    1cf0:	aab50513          	addi	a0,a0,-1365 # aaaaaaab <absimm+0x657b857c>
    1cf4:	ffff55b7          	lui	a1,0xffff5
    1cf8:	afd58593          	addi	a1,a1,-1283 # ffff4afd <immx+0x452e702d>
    1cfc:	00b54633          	xor	a2,a0,a1
    1d00:	4ec6a823          	sw	a2,1264(a3)

00001d04 <inst_335>:
    1d04:	aaaab537          	lui	a0,0xaaaab
    1d08:	aab50513          	addi	a0,a0,-1365 # aaaaaaab <absimm+0x657b857c>
    1d0c:	0000b5b7          	lui	a1,0xb
    1d10:	50558593          	addi	a1,a1,1285 # b505 <_end+0x18fd>
    1d14:	00b54633          	xor	a2,a0,a1
    1d18:	4ec6aa23          	sw	a2,1268(a3)

00001d1c <inst_336>:
    1d1c:	00600513          	addi	a0,zero,6
    1d20:	00300593          	addi	a1,zero,3
    1d24:	00b54633          	xor	a2,a0,a1
    1d28:	4ec6ac23          	sw	a2,1272(a3)

00001d2c <inst_337>:
    1d2c:	00600513          	addi	a0,zero,6
    1d30:	555555b7          	lui	a1,0x55555
    1d34:	55558593          	addi	a1,a1,1365 # 55555555 <absimm+0x10263026>
    1d38:	00b54633          	xor	a2,a0,a1
    1d3c:	4ec6ae23          	sw	a2,1276(a3)

00001d40 <inst_338>:
    1d40:	00600513          	addi	a0,zero,6
    1d44:	aaaab5b7          	lui	a1,0xaaaab
    1d48:	aaa58593          	addi	a1,a1,-1366 # aaaaaaaa <absimm+0x657b857b>
    1d4c:	00b54633          	xor	a2,a0,a1
    1d50:	50c6a023          	sw	a2,1280(a3)

00001d54 <inst_339>:
    1d54:	00600513          	addi	a0,zero,6
    1d58:	00500593          	addi	a1,zero,5
    1d5c:	00b54633          	xor	a2,a0,a1
    1d60:	50c6a223          	sw	a2,1284(a3)

00001d64 <inst_340>:
    1d64:	00600513          	addi	a0,zero,6
    1d68:	333335b7          	lui	a1,0x33333
    1d6c:	33358593          	addi	a1,a1,819 # 33333333 <_end+0x3332972b>
    1d70:	00b54633          	xor	a2,a0,a1
    1d74:	50c6a423          	sw	a2,1288(a3)

00001d78 <inst_341>:
    1d78:	00600513          	addi	a0,zero,6
    1d7c:	666665b7          	lui	a1,0x66666
    1d80:	66658593          	addi	a1,a1,1638 # 66666666 <absimm+0x21374137>
    1d84:	00b54633          	xor	a2,a0,a1
    1d88:	50c6a623          	sw	a2,1292(a3)

00001d8c <inst_342>:
    1d8c:	00600513          	addi	a0,zero,6
    1d90:	ffff55b7          	lui	a1,0xffff5
    1d94:	afc58593          	addi	a1,a1,-1284 # ffff4afc <immx+0x452e702c>
    1d98:	00b54633          	xor	a2,a0,a1
    1d9c:	50c6a823          	sw	a2,1296(a3)

00001da0 <inst_343>:
    1da0:	00600513          	addi	a0,zero,6
    1da4:	0000b5b7          	lui	a1,0xb
    1da8:	50458593          	addi	a1,a1,1284 # b504 <_end+0x18fc>
    1dac:	00b54633          	xor	a2,a0,a1
    1db0:	50c6aa23          	sw	a2,1300(a3)

00001db4 <inst_344>:
    1db4:	00600513          	addi	a0,zero,6
    1db8:	00200593          	addi	a1,zero,2
    1dbc:	00b54633          	xor	a2,a0,a1
    1dc0:	50c6ac23          	sw	a2,1304(a3)

00001dc4 <inst_345>:
    1dc4:	00600513          	addi	a0,zero,6
    1dc8:	555555b7          	lui	a1,0x55555
    1dcc:	55458593          	addi	a1,a1,1364 # 55555554 <absimm+0x10263025>
    1dd0:	00b54633          	xor	a2,a0,a1
    1dd4:	50c6ae23          	sw	a2,1308(a3)

00001dd8 <inst_346>:
    1dd8:	00600513          	addi	a0,zero,6
    1ddc:	00000593          	addi	a1,zero,0
    1de0:	00b54633          	xor	a2,a0,a1
    1de4:	52c6a023          	sw	a2,1312(a3)

00001de8 <inst_347>:
    1de8:	00600513          	addi	a0,zero,6
    1dec:	00400593          	addi	a1,zero,4
    1df0:	00b54633          	xor	a2,a0,a1
    1df4:	52c6a223          	sw	a2,1316(a3)

00001df8 <inst_348>:
    1df8:	00600513          	addi	a0,zero,6
    1dfc:	333335b7          	lui	a1,0x33333
    1e00:	33258593          	addi	a1,a1,818 # 33333332 <_end+0x3332972a>
    1e04:	00b54633          	xor	a2,a0,a1
    1e08:	52c6a423          	sw	a2,1320(a3)

00001e0c <inst_349>:
    1e0c:	00600513          	addi	a0,zero,6
    1e10:	666665b7          	lui	a1,0x66666
    1e14:	66558593          	addi	a1,a1,1637 # 66666665 <absimm+0x21374136>
    1e18:	00b54633          	xor	a2,a0,a1
    1e1c:	52c6a623          	sw	a2,1324(a3)

00001e20 <inst_350>:
    1e20:	00600513          	addi	a0,zero,6
    1e24:	0000b5b7          	lui	a1,0xb
    1e28:	50358593          	addi	a1,a1,1283 # b503 <_end+0x18fb>
    1e2c:	00b54633          	xor	a2,a0,a1
    1e30:	52c6a823          	sw	a2,1328(a3)

00001e34 <inst_351>:
    1e34:	00600513          	addi	a0,zero,6
    1e38:	555555b7          	lui	a1,0x55555
    1e3c:	55658593          	addi	a1,a1,1366 # 55555556 <absimm+0x10263027>
    1e40:	00b54633          	xor	a2,a0,a1
    1e44:	52c6aa23          	sw	a2,1332(a3)

00001e48 <inst_352>:
    1e48:	00600513          	addi	a0,zero,6
    1e4c:	aaaab5b7          	lui	a1,0xaaaab
    1e50:	aab58593          	addi	a1,a1,-1365 # aaaaaaab <absimm+0x657b857c>
    1e54:	00b54633          	xor	a2,a0,a1
    1e58:	52c6ac23          	sw	a2,1336(a3)

00001e5c <inst_353>:
    1e5c:	00600513          	addi	a0,zero,6
    1e60:	00600593          	addi	a1,zero,6
    1e64:	00b54633          	xor	a2,a0,a1
    1e68:	52c6ae23          	sw	a2,1340(a3)

00001e6c <inst_354>:
    1e6c:	00600513          	addi	a0,zero,6
    1e70:	333335b7          	lui	a1,0x33333
    1e74:	33458593          	addi	a1,a1,820 # 33333334 <_end+0x3332972c>
    1e78:	00b54633          	xor	a2,a0,a1
    1e7c:	54c6a023          	sw	a2,1344(a3)

00001e80 <inst_355>:
    1e80:	00600513          	addi	a0,zero,6
    1e84:	666665b7          	lui	a1,0x66666
    1e88:	66758593          	addi	a1,a1,1639 # 66666667 <absimm+0x21374138>
    1e8c:	00b54633          	xor	a2,a0,a1
    1e90:	54c6a223          	sw	a2,1348(a3)

00001e94 <inst_356>:
    1e94:	00600513          	addi	a0,zero,6
    1e98:	ffff55b7          	lui	a1,0xffff5
    1e9c:	afd58593          	addi	a1,a1,-1283 # ffff4afd <immx+0x452e702d>
    1ea0:	00b54633          	xor	a2,a0,a1
    1ea4:	54c6a423          	sw	a2,1352(a3)

00001ea8 <inst_357>:
    1ea8:	00600513          	addi	a0,zero,6
    1eac:	0000b5b7          	lui	a1,0xb
    1eb0:	50558593          	addi	a1,a1,1285 # b505 <_end+0x18fd>
    1eb4:	00b54633          	xor	a2,a0,a1
    1eb8:	54c6a623          	sw	a2,1356(a3)

00001ebc <inst_358>:
    1ebc:	33333537          	lui	a0,0x33333
    1ec0:	33450513          	addi	a0,a0,820 # 33333334 <_end+0x3332972c>
    1ec4:	00300593          	addi	a1,zero,3
    1ec8:	00b54633          	xor	a2,a0,a1
    1ecc:	54c6a823          	sw	a2,1360(a3)

00001ed0 <inst_359>:
    1ed0:	33333537          	lui	a0,0x33333
    1ed4:	33450513          	addi	a0,a0,820 # 33333334 <_end+0x3332972c>
    1ed8:	555555b7          	lui	a1,0x55555
    1edc:	55558593          	addi	a1,a1,1365 # 55555555 <absimm+0x10263026>
    1ee0:	00b54633          	xor	a2,a0,a1
    1ee4:	54c6aa23          	sw	a2,1364(a3)

00001ee8 <inst_360>:
    1ee8:	33333537          	lui	a0,0x33333
    1eec:	33450513          	addi	a0,a0,820 # 33333334 <_end+0x3332972c>
    1ef0:	aaaab5b7          	lui	a1,0xaaaab
    1ef4:	aaa58593          	addi	a1,a1,-1366 # aaaaaaaa <absimm+0x657b857b>
    1ef8:	00b54633          	xor	a2,a0,a1
    1efc:	54c6ac23          	sw	a2,1368(a3)

00001f00 <inst_361>:
    1f00:	33333537          	lui	a0,0x33333
    1f04:	33450513          	addi	a0,a0,820 # 33333334 <_end+0x3332972c>
    1f08:	00500593          	addi	a1,zero,5
    1f0c:	00b54633          	xor	a2,a0,a1
    1f10:	54c6ae23          	sw	a2,1372(a3)

00001f14 <inst_362>:
    1f14:	33333537          	lui	a0,0x33333
    1f18:	33450513          	addi	a0,a0,820 # 33333334 <_end+0x3332972c>
    1f1c:	333335b7          	lui	a1,0x33333
    1f20:	33358593          	addi	a1,a1,819 # 33333333 <_end+0x3332972b>
    1f24:	00b54633          	xor	a2,a0,a1
    1f28:	56c6a023          	sw	a2,1376(a3)

00001f2c <inst_363>:
    1f2c:	33333537          	lui	a0,0x33333
    1f30:	33450513          	addi	a0,a0,820 # 33333334 <_end+0x3332972c>
    1f34:	666665b7          	lui	a1,0x66666
    1f38:	66658593          	addi	a1,a1,1638 # 66666666 <absimm+0x21374137>
    1f3c:	00b54633          	xor	a2,a0,a1
    1f40:	56c6a223          	sw	a2,1380(a3)

00001f44 <inst_364>:
    1f44:	33333537          	lui	a0,0x33333
    1f48:	33450513          	addi	a0,a0,820 # 33333334 <_end+0x3332972c>
    1f4c:	ffff55b7          	lui	a1,0xffff5
    1f50:	afc58593          	addi	a1,a1,-1284 # ffff4afc <immx+0x452e702c>
    1f54:	00b54633          	xor	a2,a0,a1
    1f58:	56c6a423          	sw	a2,1384(a3)

00001f5c <inst_365>:
    1f5c:	33333537          	lui	a0,0x33333
    1f60:	33450513          	addi	a0,a0,820 # 33333334 <_end+0x3332972c>
    1f64:	0000b5b7          	lui	a1,0xb
    1f68:	50458593          	addi	a1,a1,1284 # b504 <_end+0x18fc>
    1f6c:	00b54633          	xor	a2,a0,a1
    1f70:	56c6a623          	sw	a2,1388(a3)

00001f74 <inst_366>:
    1f74:	33333537          	lui	a0,0x33333
    1f78:	33450513          	addi	a0,a0,820 # 33333334 <_end+0x3332972c>
    1f7c:	00200593          	addi	a1,zero,2
    1f80:	00b54633          	xor	a2,a0,a1
    1f84:	56c6a823          	sw	a2,1392(a3)

00001f88 <inst_367>:
    1f88:	33333537          	lui	a0,0x33333
    1f8c:	33450513          	addi	a0,a0,820 # 33333334 <_end+0x3332972c>
    1f90:	555555b7          	lui	a1,0x55555
    1f94:	55458593          	addi	a1,a1,1364 # 55555554 <absimm+0x10263025>
    1f98:	00b54633          	xor	a2,a0,a1
    1f9c:	56c6aa23          	sw	a2,1396(a3)

00001fa0 <inst_368>:
    1fa0:	33333537          	lui	a0,0x33333
    1fa4:	33450513          	addi	a0,a0,820 # 33333334 <_end+0x3332972c>
    1fa8:	00000593          	addi	a1,zero,0
    1fac:	00b54633          	xor	a2,a0,a1
    1fb0:	56c6ac23          	sw	a2,1400(a3)

00001fb4 <inst_369>:
    1fb4:	33333537          	lui	a0,0x33333
    1fb8:	33450513          	addi	a0,a0,820 # 33333334 <_end+0x3332972c>
    1fbc:	00400593          	addi	a1,zero,4
    1fc0:	00b54633          	xor	a2,a0,a1
    1fc4:	56c6ae23          	sw	a2,1404(a3)

00001fc8 <inst_370>:
    1fc8:	33333537          	lui	a0,0x33333
    1fcc:	33450513          	addi	a0,a0,820 # 33333334 <_end+0x3332972c>
    1fd0:	333335b7          	lui	a1,0x33333
    1fd4:	33258593          	addi	a1,a1,818 # 33333332 <_end+0x3332972a>
    1fd8:	00b54633          	xor	a2,a0,a1
    1fdc:	58c6a023          	sw	a2,1408(a3)

00001fe0 <inst_371>:
    1fe0:	33333537          	lui	a0,0x33333
    1fe4:	33450513          	addi	a0,a0,820 # 33333334 <_end+0x3332972c>
    1fe8:	666665b7          	lui	a1,0x66666
    1fec:	66558593          	addi	a1,a1,1637 # 66666665 <absimm+0x21374136>
    1ff0:	00b54633          	xor	a2,a0,a1
    1ff4:	58c6a223          	sw	a2,1412(a3)

00001ff8 <inst_372>:
    1ff8:	33333537          	lui	a0,0x33333
    1ffc:	33450513          	addi	a0,a0,820 # 33333334 <_end+0x3332972c>
    2000:	0000b5b7          	lui	a1,0xb
    2004:	50358593          	addi	a1,a1,1283 # b503 <_end+0x18fb>
    2008:	00b54633          	xor	a2,a0,a1
    200c:	58c6a423          	sw	a2,1416(a3)

00002010 <inst_373>:
    2010:	33333537          	lui	a0,0x33333
    2014:	33450513          	addi	a0,a0,820 # 33333334 <_end+0x3332972c>
    2018:	555555b7          	lui	a1,0x55555
    201c:	55658593          	addi	a1,a1,1366 # 55555556 <absimm+0x10263027>
    2020:	00b54633          	xor	a2,a0,a1
    2024:	58c6a623          	sw	a2,1420(a3)

00002028 <inst_374>:
    2028:	33333537          	lui	a0,0x33333
    202c:	33450513          	addi	a0,a0,820 # 33333334 <_end+0x3332972c>
    2030:	aaaab5b7          	lui	a1,0xaaaab
    2034:	aab58593          	addi	a1,a1,-1365 # aaaaaaab <absimm+0x657b857c>
    2038:	00b54633          	xor	a2,a0,a1
    203c:	58c6a823          	sw	a2,1424(a3)

00002040 <inst_375>:
    2040:	33333537          	lui	a0,0x33333
    2044:	33450513          	addi	a0,a0,820 # 33333334 <_end+0x3332972c>
    2048:	00600593          	addi	a1,zero,6
    204c:	00b54633          	xor	a2,a0,a1
    2050:	58c6aa23          	sw	a2,1428(a3)

00002054 <inst_376>:
    2054:	33333537          	lui	a0,0x33333
    2058:	33450513          	addi	a0,a0,820 # 33333334 <_end+0x3332972c>
    205c:	333335b7          	lui	a1,0x33333
    2060:	33458593          	addi	a1,a1,820 # 33333334 <_end+0x3332972c>
    2064:	00b54633          	xor	a2,a0,a1
    2068:	58c6ac23          	sw	a2,1432(a3)

0000206c <inst_377>:
    206c:	33333537          	lui	a0,0x33333
    2070:	33450513          	addi	a0,a0,820 # 33333334 <_end+0x3332972c>
    2074:	666665b7          	lui	a1,0x66666
    2078:	66758593          	addi	a1,a1,1639 # 66666667 <absimm+0x21374138>
    207c:	00b54633          	xor	a2,a0,a1
    2080:	58c6ae23          	sw	a2,1436(a3)

00002084 <inst_378>:
    2084:	33333537          	lui	a0,0x33333
    2088:	33450513          	addi	a0,a0,820 # 33333334 <_end+0x3332972c>
    208c:	ffff55b7          	lui	a1,0xffff5
    2090:	afd58593          	addi	a1,a1,-1283 # ffff4afd <immx+0x452e702d>
    2094:	00b54633          	xor	a2,a0,a1
    2098:	5ac6a023          	sw	a2,1440(a3)

0000209c <inst_379>:
    209c:	33333537          	lui	a0,0x33333
    20a0:	33450513          	addi	a0,a0,820 # 33333334 <_end+0x3332972c>
    20a4:	0000b5b7          	lui	a1,0xb
    20a8:	50558593          	addi	a1,a1,1285 # b505 <_end+0x18fd>
    20ac:	00b54633          	xor	a2,a0,a1
    20b0:	5ac6a223          	sw	a2,1444(a3)

000020b4 <inst_380>:
    20b4:	66666537          	lui	a0,0x66666
    20b8:	66750513          	addi	a0,a0,1639 # 66666667 <absimm+0x21374138>
    20bc:	00300593          	addi	a1,zero,3
    20c0:	00b54633          	xor	a2,a0,a1
    20c4:	5ac6a423          	sw	a2,1448(a3)

000020c8 <inst_381>:
    20c8:	66666537          	lui	a0,0x66666
    20cc:	66750513          	addi	a0,a0,1639 # 66666667 <absimm+0x21374138>
    20d0:	555555b7          	lui	a1,0x55555
    20d4:	55558593          	addi	a1,a1,1365 # 55555555 <absimm+0x10263026>
    20d8:	00b54633          	xor	a2,a0,a1
    20dc:	5ac6a623          	sw	a2,1452(a3)

000020e0 <inst_382>:
    20e0:	66666537          	lui	a0,0x66666
    20e4:	66750513          	addi	a0,a0,1639 # 66666667 <absimm+0x21374138>
    20e8:	aaaab5b7          	lui	a1,0xaaaab
    20ec:	aaa58593          	addi	a1,a1,-1366 # aaaaaaaa <absimm+0x657b857b>
    20f0:	00b54633          	xor	a2,a0,a1
    20f4:	5ac6a823          	sw	a2,1456(a3)

000020f8 <inst_383>:
    20f8:	66666537          	lui	a0,0x66666
    20fc:	66750513          	addi	a0,a0,1639 # 66666667 <absimm+0x21374138>
    2100:	00500593          	addi	a1,zero,5
    2104:	00b54633          	xor	a2,a0,a1
    2108:	5ac6aa23          	sw	a2,1460(a3)

0000210c <inst_384>:
    210c:	66666537          	lui	a0,0x66666
    2110:	66750513          	addi	a0,a0,1639 # 66666667 <absimm+0x21374138>
    2114:	333335b7          	lui	a1,0x33333
    2118:	33358593          	addi	a1,a1,819 # 33333333 <_end+0x3332972b>
    211c:	00b54633          	xor	a2,a0,a1
    2120:	5ac6ac23          	sw	a2,1464(a3)

00002124 <inst_385>:
    2124:	66666537          	lui	a0,0x66666
    2128:	66750513          	addi	a0,a0,1639 # 66666667 <absimm+0x21374138>
    212c:	666665b7          	lui	a1,0x66666
    2130:	66658593          	addi	a1,a1,1638 # 66666666 <absimm+0x21374137>
    2134:	00b54633          	xor	a2,a0,a1
    2138:	5ac6ae23          	sw	a2,1468(a3)

0000213c <inst_386>:
    213c:	66666537          	lui	a0,0x66666
    2140:	66750513          	addi	a0,a0,1639 # 66666667 <absimm+0x21374138>
    2144:	ffff55b7          	lui	a1,0xffff5
    2148:	afc58593          	addi	a1,a1,-1284 # ffff4afc <immx+0x452e702c>
    214c:	00b54633          	xor	a2,a0,a1
    2150:	5cc6a023          	sw	a2,1472(a3)

00002154 <inst_387>:
    2154:	66666537          	lui	a0,0x66666
    2158:	66750513          	addi	a0,a0,1639 # 66666667 <absimm+0x21374138>
    215c:	0000b5b7          	lui	a1,0xb
    2160:	50458593          	addi	a1,a1,1284 # b504 <_end+0x18fc>
    2164:	00b54633          	xor	a2,a0,a1
    2168:	5cc6a223          	sw	a2,1476(a3)

0000216c <inst_388>:
    216c:	66666537          	lui	a0,0x66666
    2170:	66750513          	addi	a0,a0,1639 # 66666667 <absimm+0x21374138>
    2174:	00200593          	addi	a1,zero,2
    2178:	00b54633          	xor	a2,a0,a1
    217c:	5cc6a423          	sw	a2,1480(a3)

00002180 <inst_389>:
    2180:	66666537          	lui	a0,0x66666
    2184:	66750513          	addi	a0,a0,1639 # 66666667 <absimm+0x21374138>
    2188:	555555b7          	lui	a1,0x55555
    218c:	55458593          	addi	a1,a1,1364 # 55555554 <absimm+0x10263025>
    2190:	00b54633          	xor	a2,a0,a1
    2194:	5cc6a623          	sw	a2,1484(a3)

00002198 <inst_390>:
    2198:	66666537          	lui	a0,0x66666
    219c:	66750513          	addi	a0,a0,1639 # 66666667 <absimm+0x21374138>
    21a0:	00000593          	addi	a1,zero,0
    21a4:	00b54633          	xor	a2,a0,a1
    21a8:	5cc6a823          	sw	a2,1488(a3)

000021ac <inst_391>:
    21ac:	66666537          	lui	a0,0x66666
    21b0:	66750513          	addi	a0,a0,1639 # 66666667 <absimm+0x21374138>
    21b4:	00400593          	addi	a1,zero,4
    21b8:	00b54633          	xor	a2,a0,a1
    21bc:	5cc6aa23          	sw	a2,1492(a3)

000021c0 <inst_392>:
    21c0:	66666537          	lui	a0,0x66666
    21c4:	66750513          	addi	a0,a0,1639 # 66666667 <absimm+0x21374138>
    21c8:	333335b7          	lui	a1,0x33333
    21cc:	33258593          	addi	a1,a1,818 # 33333332 <_end+0x3332972a>
    21d0:	00b54633          	xor	a2,a0,a1
    21d4:	5cc6ac23          	sw	a2,1496(a3)

000021d8 <inst_393>:
    21d8:	66666537          	lui	a0,0x66666
    21dc:	66750513          	addi	a0,a0,1639 # 66666667 <absimm+0x21374138>
    21e0:	666665b7          	lui	a1,0x66666
    21e4:	66558593          	addi	a1,a1,1637 # 66666665 <absimm+0x21374136>
    21e8:	00b54633          	xor	a2,a0,a1
    21ec:	5cc6ae23          	sw	a2,1500(a3)

000021f0 <inst_394>:
    21f0:	66666537          	lui	a0,0x66666
    21f4:	66750513          	addi	a0,a0,1639 # 66666667 <absimm+0x21374138>
    21f8:	0000b5b7          	lui	a1,0xb
    21fc:	50358593          	addi	a1,a1,1283 # b503 <_end+0x18fb>
    2200:	00b54633          	xor	a2,a0,a1
    2204:	5ec6a023          	sw	a2,1504(a3)

00002208 <inst_395>:
    2208:	66666537          	lui	a0,0x66666
    220c:	66750513          	addi	a0,a0,1639 # 66666667 <absimm+0x21374138>
    2210:	555555b7          	lui	a1,0x55555
    2214:	55658593          	addi	a1,a1,1366 # 55555556 <absimm+0x10263027>
    2218:	00b54633          	xor	a2,a0,a1
    221c:	5ec6a223          	sw	a2,1508(a3)

00002220 <inst_396>:
    2220:	66666537          	lui	a0,0x66666
    2224:	66750513          	addi	a0,a0,1639 # 66666667 <absimm+0x21374138>
    2228:	aaaab5b7          	lui	a1,0xaaaab
    222c:	aab58593          	addi	a1,a1,-1365 # aaaaaaab <absimm+0x657b857c>
    2230:	00b54633          	xor	a2,a0,a1
    2234:	5ec6a423          	sw	a2,1512(a3)

00002238 <inst_397>:
    2238:	66666537          	lui	a0,0x66666
    223c:	66750513          	addi	a0,a0,1639 # 66666667 <absimm+0x21374138>
    2240:	00600593          	addi	a1,zero,6
    2244:	00b54633          	xor	a2,a0,a1
    2248:	5ec6a623          	sw	a2,1516(a3)

0000224c <inst_398>:
    224c:	66666537          	lui	a0,0x66666
    2250:	66750513          	addi	a0,a0,1639 # 66666667 <absimm+0x21374138>
    2254:	333335b7          	lui	a1,0x33333
    2258:	33458593          	addi	a1,a1,820 # 33333334 <_end+0x3332972c>
    225c:	00b54633          	xor	a2,a0,a1
    2260:	5ec6a823          	sw	a2,1520(a3)

00002264 <inst_399>:
    2264:	66666537          	lui	a0,0x66666
    2268:	66750513          	addi	a0,a0,1639 # 66666667 <absimm+0x21374138>
    226c:	666665b7          	lui	a1,0x66666
    2270:	66758593          	addi	a1,a1,1639 # 66666667 <absimm+0x21374138>
    2274:	00b54633          	xor	a2,a0,a1
    2278:	5ec6aa23          	sw	a2,1524(a3)

0000227c <inst_400>:
    227c:	66666537          	lui	a0,0x66666
    2280:	66750513          	addi	a0,a0,1639 # 66666667 <absimm+0x21374138>
    2284:	ffff55b7          	lui	a1,0xffff5
    2288:	afd58593          	addi	a1,a1,-1283 # ffff4afd <immx+0x452e702d>
    228c:	00b54633          	xor	a2,a0,a1
    2290:	5ec6ac23          	sw	a2,1528(a3)

00002294 <inst_401>:
    2294:	66666537          	lui	a0,0x66666
    2298:	66750513          	addi	a0,a0,1639 # 66666667 <absimm+0x21374138>
    229c:	0000b5b7          	lui	a1,0xb
    22a0:	50558593          	addi	a1,a1,1285 # b505 <_end+0x18fd>
    22a4:	00b54633          	xor	a2,a0,a1
    22a8:	5ec6ae23          	sw	a2,1532(a3)

000022ac <inst_402>:
    22ac:	ffff5537          	lui	a0,0xffff5
    22b0:	afd50513          	addi	a0,a0,-1283 # ffff4afd <immx+0x452e702d>
    22b4:	00300593          	addi	a1,zero,3
    22b8:	00b54633          	xor	a2,a0,a1
    22bc:	60c6a023          	sw	a2,1536(a3)

000022c0 <inst_403>:
    22c0:	ffff5537          	lui	a0,0xffff5
    22c4:	afd50513          	addi	a0,a0,-1283 # ffff4afd <immx+0x452e702d>
    22c8:	555555b7          	lui	a1,0x55555
    22cc:	55558593          	addi	a1,a1,1365 # 55555555 <absimm+0x10263026>
    22d0:	00b54633          	xor	a2,a0,a1
    22d4:	60c6a223          	sw	a2,1540(a3)

000022d8 <inst_404>:
    22d8:	ffff5537          	lui	a0,0xffff5
    22dc:	afd50513          	addi	a0,a0,-1283 # ffff4afd <immx+0x452e702d>
    22e0:	aaaab5b7          	lui	a1,0xaaaab
    22e4:	aaa58593          	addi	a1,a1,-1366 # aaaaaaaa <absimm+0x657b857b>
    22e8:	00b54633          	xor	a2,a0,a1
    22ec:	60c6a423          	sw	a2,1544(a3)

000022f0 <inst_405>:
    22f0:	ffff5537          	lui	a0,0xffff5
    22f4:	afd50513          	addi	a0,a0,-1283 # ffff4afd <immx+0x452e702d>
    22f8:	00500593          	addi	a1,zero,5
    22fc:	00b54633          	xor	a2,a0,a1
    2300:	60c6a623          	sw	a2,1548(a3)

00002304 <inst_406>:
    2304:	ffff5537          	lui	a0,0xffff5
    2308:	afd50513          	addi	a0,a0,-1283 # ffff4afd <immx+0x452e702d>
    230c:	333335b7          	lui	a1,0x33333
    2310:	33358593          	addi	a1,a1,819 # 33333333 <_end+0x3332972b>
    2314:	00b54633          	xor	a2,a0,a1
    2318:	60c6a823          	sw	a2,1552(a3)

0000231c <inst_407>:
    231c:	ffff5537          	lui	a0,0xffff5
    2320:	afd50513          	addi	a0,a0,-1283 # ffff4afd <immx+0x452e702d>
    2324:	666665b7          	lui	a1,0x66666
    2328:	66658593          	addi	a1,a1,1638 # 66666666 <absimm+0x21374137>
    232c:	00b54633          	xor	a2,a0,a1
    2330:	60c6aa23          	sw	a2,1556(a3)

00002334 <inst_408>:
    2334:	ffff5537          	lui	a0,0xffff5
    2338:	afd50513          	addi	a0,a0,-1283 # ffff4afd <immx+0x452e702d>
    233c:	ffff55b7          	lui	a1,0xffff5
    2340:	afc58593          	addi	a1,a1,-1284 # ffff4afc <immx+0x452e702c>
    2344:	00b54633          	xor	a2,a0,a1
    2348:	60c6ac23          	sw	a2,1560(a3)

0000234c <inst_409>:
    234c:	ffff5537          	lui	a0,0xffff5
    2350:	afd50513          	addi	a0,a0,-1283 # ffff4afd <immx+0x452e702d>
    2354:	0000b5b7          	lui	a1,0xb
    2358:	50458593          	addi	a1,a1,1284 # b504 <_end+0x18fc>
    235c:	00b54633          	xor	a2,a0,a1
    2360:	60c6ae23          	sw	a2,1564(a3)

00002364 <inst_410>:
    2364:	ffff5537          	lui	a0,0xffff5
    2368:	afd50513          	addi	a0,a0,-1283 # ffff4afd <immx+0x452e702d>
    236c:	00200593          	addi	a1,zero,2
    2370:	00b54633          	xor	a2,a0,a1
    2374:	62c6a023          	sw	a2,1568(a3)

00002378 <inst_411>:
    2378:	ffff5537          	lui	a0,0xffff5
    237c:	afd50513          	addi	a0,a0,-1283 # ffff4afd <immx+0x452e702d>
    2380:	555555b7          	lui	a1,0x55555
    2384:	55458593          	addi	a1,a1,1364 # 55555554 <absimm+0x10263025>
    2388:	00b54633          	xor	a2,a0,a1
    238c:	62c6a223          	sw	a2,1572(a3)

00002390 <inst_412>:
    2390:	ffff5537          	lui	a0,0xffff5
    2394:	afd50513          	addi	a0,a0,-1283 # ffff4afd <immx+0x452e702d>
    2398:	00000593          	addi	a1,zero,0
    239c:	00b54633          	xor	a2,a0,a1
    23a0:	62c6a423          	sw	a2,1576(a3)

000023a4 <inst_413>:
    23a4:	ffff5537          	lui	a0,0xffff5
    23a8:	afd50513          	addi	a0,a0,-1283 # ffff4afd <immx+0x452e702d>
    23ac:	00400593          	addi	a1,zero,4
    23b0:	00b54633          	xor	a2,a0,a1
    23b4:	62c6a623          	sw	a2,1580(a3)

000023b8 <inst_414>:
    23b8:	ffff5537          	lui	a0,0xffff5
    23bc:	afd50513          	addi	a0,a0,-1283 # ffff4afd <immx+0x452e702d>
    23c0:	333335b7          	lui	a1,0x33333
    23c4:	33258593          	addi	a1,a1,818 # 33333332 <_end+0x3332972a>
    23c8:	00b54633          	xor	a2,a0,a1
    23cc:	62c6a823          	sw	a2,1584(a3)

000023d0 <inst_415>:
    23d0:	ffff5537          	lui	a0,0xffff5
    23d4:	afd50513          	addi	a0,a0,-1283 # ffff4afd <immx+0x452e702d>
    23d8:	666665b7          	lui	a1,0x66666
    23dc:	66558593          	addi	a1,a1,1637 # 66666665 <absimm+0x21374136>
    23e0:	00b54633          	xor	a2,a0,a1
    23e4:	62c6aa23          	sw	a2,1588(a3)

000023e8 <inst_416>:
    23e8:	ffff5537          	lui	a0,0xffff5
    23ec:	afd50513          	addi	a0,a0,-1283 # ffff4afd <immx+0x452e702d>
    23f0:	0000b5b7          	lui	a1,0xb
    23f4:	50358593          	addi	a1,a1,1283 # b503 <_end+0x18fb>
    23f8:	00b54633          	xor	a2,a0,a1
    23fc:	62c6ac23          	sw	a2,1592(a3)

00002400 <inst_417>:
    2400:	ffff5537          	lui	a0,0xffff5
    2404:	afd50513          	addi	a0,a0,-1283 # ffff4afd <immx+0x452e702d>
    2408:	555555b7          	lui	a1,0x55555
    240c:	55658593          	addi	a1,a1,1366 # 55555556 <absimm+0x10263027>
    2410:	00b54633          	xor	a2,a0,a1
    2414:	62c6ae23          	sw	a2,1596(a3)

00002418 <inst_418>:
    2418:	ffff5537          	lui	a0,0xffff5
    241c:	afd50513          	addi	a0,a0,-1283 # ffff4afd <immx+0x452e702d>
    2420:	aaaab5b7          	lui	a1,0xaaaab
    2424:	aab58593          	addi	a1,a1,-1365 # aaaaaaab <absimm+0x657b857c>
    2428:	00b54633          	xor	a2,a0,a1
    242c:	64c6a023          	sw	a2,1600(a3)

00002430 <inst_419>:
    2430:	ffff5537          	lui	a0,0xffff5
    2434:	afd50513          	addi	a0,a0,-1283 # ffff4afd <immx+0x452e702d>
    2438:	00600593          	addi	a1,zero,6
    243c:	00b54633          	xor	a2,a0,a1
    2440:	64c6a223          	sw	a2,1604(a3)

00002444 <inst_420>:
    2444:	ffff5537          	lui	a0,0xffff5
    2448:	afd50513          	addi	a0,a0,-1283 # ffff4afd <immx+0x452e702d>
    244c:	333335b7          	lui	a1,0x33333
    2450:	33458593          	addi	a1,a1,820 # 33333334 <_end+0x3332972c>
    2454:	00b54633          	xor	a2,a0,a1
    2458:	64c6a423          	sw	a2,1608(a3)

0000245c <inst_421>:
    245c:	ffff5537          	lui	a0,0xffff5
    2460:	afd50513          	addi	a0,a0,-1283 # ffff4afd <immx+0x452e702d>
    2464:	666665b7          	lui	a1,0x66666
    2468:	66758593          	addi	a1,a1,1639 # 66666667 <absimm+0x21374138>
    246c:	00b54633          	xor	a2,a0,a1
    2470:	64c6a623          	sw	a2,1612(a3)

00002474 <inst_422>:
    2474:	ffff5537          	lui	a0,0xffff5
    2478:	afd50513          	addi	a0,a0,-1283 # ffff4afd <immx+0x452e702d>
    247c:	ffff55b7          	lui	a1,0xffff5
    2480:	afd58593          	addi	a1,a1,-1283 # ffff4afd <immx+0x452e702d>
    2484:	00b54633          	xor	a2,a0,a1
    2488:	64c6a823          	sw	a2,1616(a3)

0000248c <inst_423>:
    248c:	ffff5537          	lui	a0,0xffff5
    2490:	afd50513          	addi	a0,a0,-1283 # ffff4afd <immx+0x452e702d>
    2494:	0000b5b7          	lui	a1,0xb
    2498:	50558593          	addi	a1,a1,1285 # b505 <_end+0x18fd>
    249c:	00b54633          	xor	a2,a0,a1
    24a0:	64c6aa23          	sw	a2,1620(a3)

000024a4 <inst_424>:
    24a4:	0000b537          	lui	a0,0xb
    24a8:	50550513          	addi	a0,a0,1285 # b505 <_end+0x18fd>
    24ac:	00300593          	addi	a1,zero,3
    24b0:	00b54633          	xor	a2,a0,a1
    24b4:	64c6ac23          	sw	a2,1624(a3)

000024b8 <inst_425>:
    24b8:	0000b537          	lui	a0,0xb
    24bc:	50550513          	addi	a0,a0,1285 # b505 <_end+0x18fd>
    24c0:	555555b7          	lui	a1,0x55555
    24c4:	55558593          	addi	a1,a1,1365 # 55555555 <absimm+0x10263026>
    24c8:	00b54633          	xor	a2,a0,a1
    24cc:	64c6ae23          	sw	a2,1628(a3)

000024d0 <inst_426>:
    24d0:	0000b537          	lui	a0,0xb
    24d4:	50550513          	addi	a0,a0,1285 # b505 <_end+0x18fd>
    24d8:	aaaab5b7          	lui	a1,0xaaaab
    24dc:	aaa58593          	addi	a1,a1,-1366 # aaaaaaaa <absimm+0x657b857b>
    24e0:	00b54633          	xor	a2,a0,a1
    24e4:	66c6a023          	sw	a2,1632(a3)

000024e8 <inst_427>:
    24e8:	0000b537          	lui	a0,0xb
    24ec:	50550513          	addi	a0,a0,1285 # b505 <_end+0x18fd>
    24f0:	00500593          	addi	a1,zero,5
    24f4:	00b54633          	xor	a2,a0,a1
    24f8:	66c6a223          	sw	a2,1636(a3)

000024fc <inst_428>:
    24fc:	0000b537          	lui	a0,0xb
    2500:	50550513          	addi	a0,a0,1285 # b505 <_end+0x18fd>
    2504:	333335b7          	lui	a1,0x33333
    2508:	33358593          	addi	a1,a1,819 # 33333333 <_end+0x3332972b>
    250c:	00b54633          	xor	a2,a0,a1
    2510:	66c6a423          	sw	a2,1640(a3)

00002514 <inst_429>:
    2514:	0000b537          	lui	a0,0xb
    2518:	50550513          	addi	a0,a0,1285 # b505 <_end+0x18fd>
    251c:	666665b7          	lui	a1,0x66666
    2520:	66658593          	addi	a1,a1,1638 # 66666666 <absimm+0x21374137>
    2524:	00b54633          	xor	a2,a0,a1
    2528:	66c6a623          	sw	a2,1644(a3)

0000252c <inst_430>:
    252c:	0000b537          	lui	a0,0xb
    2530:	50550513          	addi	a0,a0,1285 # b505 <_end+0x18fd>
    2534:	ffff55b7          	lui	a1,0xffff5
    2538:	afc58593          	addi	a1,a1,-1284 # ffff4afc <immx+0x452e702c>
    253c:	00b54633          	xor	a2,a0,a1
    2540:	66c6a823          	sw	a2,1648(a3)

00002544 <inst_431>:
    2544:	0000b537          	lui	a0,0xb
    2548:	50550513          	addi	a0,a0,1285 # b505 <_end+0x18fd>
    254c:	0000b5b7          	lui	a1,0xb
    2550:	50458593          	addi	a1,a1,1284 # b504 <_end+0x18fc>
    2554:	00b54633          	xor	a2,a0,a1
    2558:	66c6aa23          	sw	a2,1652(a3)

0000255c <inst_432>:
    255c:	0000b537          	lui	a0,0xb
    2560:	50550513          	addi	a0,a0,1285 # b505 <_end+0x18fd>
    2564:	00200593          	addi	a1,zero,2
    2568:	00b54633          	xor	a2,a0,a1
    256c:	66c6ac23          	sw	a2,1656(a3)

00002570 <inst_433>:
    2570:	0000b537          	lui	a0,0xb
    2574:	50550513          	addi	a0,a0,1285 # b505 <_end+0x18fd>
    2578:	555555b7          	lui	a1,0x55555
    257c:	55458593          	addi	a1,a1,1364 # 55555554 <absimm+0x10263025>
    2580:	00b54633          	xor	a2,a0,a1
    2584:	66c6ae23          	sw	a2,1660(a3)

00002588 <inst_434>:
    2588:	0000b537          	lui	a0,0xb
    258c:	50550513          	addi	a0,a0,1285 # b505 <_end+0x18fd>
    2590:	00000593          	addi	a1,zero,0
    2594:	00b54633          	xor	a2,a0,a1
    2598:	68c6a023          	sw	a2,1664(a3)

0000259c <inst_435>:
    259c:	0000b537          	lui	a0,0xb
    25a0:	50550513          	addi	a0,a0,1285 # b505 <_end+0x18fd>
    25a4:	00400593          	addi	a1,zero,4
    25a8:	00b54633          	xor	a2,a0,a1
    25ac:	68c6a223          	sw	a2,1668(a3)

000025b0 <inst_436>:
    25b0:	0000b537          	lui	a0,0xb
    25b4:	50550513          	addi	a0,a0,1285 # b505 <_end+0x18fd>
    25b8:	333335b7          	lui	a1,0x33333
    25bc:	33258593          	addi	a1,a1,818 # 33333332 <_end+0x3332972a>
    25c0:	00b54633          	xor	a2,a0,a1
    25c4:	68c6a423          	sw	a2,1672(a3)

000025c8 <inst_437>:
    25c8:	0000b537          	lui	a0,0xb
    25cc:	50550513          	addi	a0,a0,1285 # b505 <_end+0x18fd>
    25d0:	666665b7          	lui	a1,0x66666
    25d4:	66558593          	addi	a1,a1,1637 # 66666665 <absimm+0x21374136>
    25d8:	00b54633          	xor	a2,a0,a1
    25dc:	68c6a623          	sw	a2,1676(a3)

000025e0 <inst_438>:
    25e0:	0000b537          	lui	a0,0xb
    25e4:	50550513          	addi	a0,a0,1285 # b505 <_end+0x18fd>
    25e8:	0000b5b7          	lui	a1,0xb
    25ec:	50358593          	addi	a1,a1,1283 # b503 <_end+0x18fb>
    25f0:	00b54633          	xor	a2,a0,a1
    25f4:	68c6a823          	sw	a2,1680(a3)

000025f8 <inst_439>:
    25f8:	0000b537          	lui	a0,0xb
    25fc:	50550513          	addi	a0,a0,1285 # b505 <_end+0x18fd>
    2600:	555555b7          	lui	a1,0x55555
    2604:	55658593          	addi	a1,a1,1366 # 55555556 <absimm+0x10263027>
    2608:	00b54633          	xor	a2,a0,a1
    260c:	68c6aa23          	sw	a2,1684(a3)

00002610 <inst_440>:
    2610:	0000b537          	lui	a0,0xb
    2614:	50550513          	addi	a0,a0,1285 # b505 <_end+0x18fd>
    2618:	aaaab5b7          	lui	a1,0xaaaab
    261c:	aab58593          	addi	a1,a1,-1365 # aaaaaaab <absimm+0x657b857c>
    2620:	00b54633          	xor	a2,a0,a1
    2624:	68c6ac23          	sw	a2,1688(a3)

00002628 <inst_441>:
    2628:	0000b537          	lui	a0,0xb
    262c:	50550513          	addi	a0,a0,1285 # b505 <_end+0x18fd>
    2630:	00600593          	addi	a1,zero,6
    2634:	00b54633          	xor	a2,a0,a1
    2638:	68c6ae23          	sw	a2,1692(a3)

0000263c <inst_442>:
    263c:	0000b537          	lui	a0,0xb
    2640:	50550513          	addi	a0,a0,1285 # b505 <_end+0x18fd>
    2644:	333335b7          	lui	a1,0x33333
    2648:	33458593          	addi	a1,a1,820 # 33333334 <_end+0x3332972c>
    264c:	00b54633          	xor	a2,a0,a1
    2650:	6ac6a023          	sw	a2,1696(a3)

00002654 <inst_443>:
    2654:	0000b537          	lui	a0,0xb
    2658:	50550513          	addi	a0,a0,1285 # b505 <_end+0x18fd>
    265c:	666665b7          	lui	a1,0x66666
    2660:	66758593          	addi	a1,a1,1639 # 66666667 <absimm+0x21374138>
    2664:	00b54633          	xor	a2,a0,a1
    2668:	6ac6a223          	sw	a2,1700(a3)

0000266c <inst_444>:
    266c:	0000b537          	lui	a0,0xb
    2670:	50550513          	addi	a0,a0,1285 # b505 <_end+0x18fd>
    2674:	ffff55b7          	lui	a1,0xffff5
    2678:	afd58593          	addi	a1,a1,-1283 # ffff4afd <immx+0x452e702d>
    267c:	00b54633          	xor	a2,a0,a1
    2680:	6ac6a423          	sw	a2,1704(a3)

00002684 <inst_445>:
    2684:	0000b537          	lui	a0,0xb
    2688:	50550513          	addi	a0,a0,1285 # b505 <_end+0x18fd>
    268c:	0000b5b7          	lui	a1,0xb
    2690:	50558593          	addi	a1,a1,1285 # b505 <_end+0x18fd>
    2694:	00b54633          	xor	a2,a0,a1
    2698:	6ac6a623          	sw	a2,1708(a3)

0000269c <inst_446>:
    269c:	00000513          	addi	a0,zero,0
    26a0:	00200593          	addi	a1,zero,2
    26a4:	00b54633          	xor	a2,a0,a1
    26a8:	6ac6a823          	sw	a2,1712(a3)

000026ac <inst_447>:
    26ac:	00000513          	addi	a0,zero,0
    26b0:	555555b7          	lui	a1,0x55555
    26b4:	55458593          	addi	a1,a1,1364 # 55555554 <absimm+0x10263025>
    26b8:	00b54633          	xor	a2,a0,a1
    26bc:	6ac6aa23          	sw	a2,1716(a3)

000026c0 <inst_448>:
    26c0:	00000513          	addi	a0,zero,0
    26c4:	00000593          	addi	a1,zero,0
    26c8:	00b54633          	xor	a2,a0,a1
    26cc:	6ac6ac23          	sw	a2,1720(a3)

000026d0 <inst_449>:
    26d0:	00000513          	addi	a0,zero,0
    26d4:	00400593          	addi	a1,zero,4
    26d8:	00b54633          	xor	a2,a0,a1
    26dc:	6ac6ae23          	sw	a2,1724(a3)

000026e0 <inst_450>:
    26e0:	00000513          	addi	a0,zero,0
    26e4:	333335b7          	lui	a1,0x33333
    26e8:	33258593          	addi	a1,a1,818 # 33333332 <_end+0x3332972a>
    26ec:	00b54633          	xor	a2,a0,a1
    26f0:	6cc6a023          	sw	a2,1728(a3)

000026f4 <inst_451>:
    26f4:	00000513          	addi	a0,zero,0
    26f8:	666665b7          	lui	a1,0x66666
    26fc:	66558593          	addi	a1,a1,1637 # 66666665 <absimm+0x21374136>
    2700:	00b54633          	xor	a2,a0,a1
    2704:	6cc6a223          	sw	a2,1732(a3)

00002708 <inst_452>:
    2708:	00000513          	addi	a0,zero,0
    270c:	0000b5b7          	lui	a1,0xb
    2710:	50358593          	addi	a1,a1,1283 # b503 <_end+0x18fb>
    2714:	00b54633          	xor	a2,a0,a1
    2718:	6cc6a423          	sw	a2,1736(a3)

0000271c <inst_453>:
    271c:	00000513          	addi	a0,zero,0
    2720:	555555b7          	lui	a1,0x55555
    2724:	55658593          	addi	a1,a1,1366 # 55555556 <absimm+0x10263027>
    2728:	00b54633          	xor	a2,a0,a1
    272c:	6cc6a623          	sw	a2,1740(a3)

00002730 <inst_454>:
    2730:	00000513          	addi	a0,zero,0
    2734:	aaaab5b7          	lui	a1,0xaaaab
    2738:	aab58593          	addi	a1,a1,-1365 # aaaaaaab <absimm+0x657b857c>
    273c:	00b54633          	xor	a2,a0,a1
    2740:	6cc6a823          	sw	a2,1744(a3)

00002744 <inst_455>:
    2744:	00000513          	addi	a0,zero,0
    2748:	00600593          	addi	a1,zero,6
    274c:	00b54633          	xor	a2,a0,a1
    2750:	6cc6aa23          	sw	a2,1748(a3)

00002754 <inst_456>:
    2754:	00000513          	addi	a0,zero,0
    2758:	333335b7          	lui	a1,0x33333
    275c:	33458593          	addi	a1,a1,820 # 33333334 <_end+0x3332972c>
    2760:	00b54633          	xor	a2,a0,a1
    2764:	6cc6ac23          	sw	a2,1752(a3)

00002768 <inst_457>:
    2768:	00000513          	addi	a0,zero,0
    276c:	666665b7          	lui	a1,0x66666
    2770:	66758593          	addi	a1,a1,1639 # 66666667 <absimm+0x21374138>
    2774:	00b54633          	xor	a2,a0,a1
    2778:	6cc6ae23          	sw	a2,1756(a3)

0000277c <inst_458>:
    277c:	00000513          	addi	a0,zero,0
    2780:	ffff55b7          	lui	a1,0xffff5
    2784:	afd58593          	addi	a1,a1,-1283 # ffff4afd <immx+0x452e702d>
    2788:	00b54633          	xor	a2,a0,a1
    278c:	6ec6a023          	sw	a2,1760(a3)

00002790 <inst_459>:
    2790:	00000513          	addi	a0,zero,0
    2794:	0000b5b7          	lui	a1,0xb
    2798:	50558593          	addi	a1,a1,1285 # b505 <_end+0x18fd>
    279c:	00b54633          	xor	a2,a0,a1
    27a0:	6ec6a223          	sw	a2,1764(a3)

000027a4 <inst_460>:
    27a4:	00400513          	addi	a0,zero,4
    27a8:	00300593          	addi	a1,zero,3
    27ac:	00b54633          	xor	a2,a0,a1
    27b0:	6ec6a423          	sw	a2,1768(a3)

000027b4 <inst_461>:
    27b4:	00400513          	addi	a0,zero,4
    27b8:	555555b7          	lui	a1,0x55555
    27bc:	55558593          	addi	a1,a1,1365 # 55555555 <absimm+0x10263026>
    27c0:	00b54633          	xor	a2,a0,a1
    27c4:	6ec6a623          	sw	a2,1772(a3)

000027c8 <inst_462>:
    27c8:	00400513          	addi	a0,zero,4
    27cc:	aaaab5b7          	lui	a1,0xaaaab
    27d0:	aaa58593          	addi	a1,a1,-1366 # aaaaaaaa <absimm+0x657b857b>
    27d4:	00b54633          	xor	a2,a0,a1
    27d8:	6ec6a823          	sw	a2,1776(a3)

000027dc <inst_463>:
    27dc:	00400513          	addi	a0,zero,4
    27e0:	00500593          	addi	a1,zero,5
    27e4:	00b54633          	xor	a2,a0,a1
    27e8:	6ec6aa23          	sw	a2,1780(a3)

000027ec <inst_464>:
    27ec:	00400513          	addi	a0,zero,4
    27f0:	333335b7          	lui	a1,0x33333
    27f4:	33358593          	addi	a1,a1,819 # 33333333 <_end+0x3332972b>
    27f8:	00b54633          	xor	a2,a0,a1
    27fc:	6ec6ac23          	sw	a2,1784(a3)

00002800 <inst_465>:
    2800:	00400513          	addi	a0,zero,4
    2804:	666665b7          	lui	a1,0x66666
    2808:	66658593          	addi	a1,a1,1638 # 66666666 <absimm+0x21374137>
    280c:	00b54633          	xor	a2,a0,a1
    2810:	6ec6ae23          	sw	a2,1788(a3)

00002814 <inst_466>:
    2814:	00400513          	addi	a0,zero,4
    2818:	ffff55b7          	lui	a1,0xffff5
    281c:	afc58593          	addi	a1,a1,-1284 # ffff4afc <immx+0x452e702c>
    2820:	00b54633          	xor	a2,a0,a1
    2824:	70c6a023          	sw	a2,1792(a3)

00002828 <inst_467>:
    2828:	00400513          	addi	a0,zero,4
    282c:	0000b5b7          	lui	a1,0xb
    2830:	50458593          	addi	a1,a1,1284 # b504 <_end+0x18fc>
    2834:	00b54633          	xor	a2,a0,a1
    2838:	70c6a223          	sw	a2,1796(a3)

0000283c <inst_468>:
    283c:	00400513          	addi	a0,zero,4
    2840:	00200593          	addi	a1,zero,2
    2844:	00b54633          	xor	a2,a0,a1
    2848:	70c6a423          	sw	a2,1800(a3)

0000284c <inst_469>:
    284c:	00400513          	addi	a0,zero,4
    2850:	555555b7          	lui	a1,0x55555
    2854:	55458593          	addi	a1,a1,1364 # 55555554 <absimm+0x10263025>
    2858:	00b54633          	xor	a2,a0,a1
    285c:	70c6a623          	sw	a2,1804(a3)

00002860 <inst_470>:
    2860:	00400513          	addi	a0,zero,4
    2864:	00000593          	addi	a1,zero,0
    2868:	00b54633          	xor	a2,a0,a1
    286c:	70c6a823          	sw	a2,1808(a3)

00002870 <inst_471>:
    2870:	00400513          	addi	a0,zero,4
    2874:	00400593          	addi	a1,zero,4
    2878:	00b54633          	xor	a2,a0,a1
    287c:	70c6aa23          	sw	a2,1812(a3)

00002880 <inst_472>:
    2880:	00400513          	addi	a0,zero,4
    2884:	333335b7          	lui	a1,0x33333
    2888:	33258593          	addi	a1,a1,818 # 33333332 <_end+0x3332972a>
    288c:	00b54633          	xor	a2,a0,a1
    2890:	70c6ac23          	sw	a2,1816(a3)

00002894 <inst_473>:
    2894:	00400513          	addi	a0,zero,4
    2898:	666665b7          	lui	a1,0x66666
    289c:	66558593          	addi	a1,a1,1637 # 66666665 <absimm+0x21374136>
    28a0:	00b54633          	xor	a2,a0,a1
    28a4:	70c6ae23          	sw	a2,1820(a3)

000028a8 <inst_474>:
    28a8:	00400513          	addi	a0,zero,4
    28ac:	0000b5b7          	lui	a1,0xb
    28b0:	50358593          	addi	a1,a1,1283 # b503 <_end+0x18fb>
    28b4:	00b54633          	xor	a2,a0,a1
    28b8:	72c6a023          	sw	a2,1824(a3)

000028bc <inst_475>:
    28bc:	00400513          	addi	a0,zero,4
    28c0:	555555b7          	lui	a1,0x55555
    28c4:	55658593          	addi	a1,a1,1366 # 55555556 <absimm+0x10263027>
    28c8:	00b54633          	xor	a2,a0,a1
    28cc:	72c6a223          	sw	a2,1828(a3)

000028d0 <inst_476>:
    28d0:	00400513          	addi	a0,zero,4
    28d4:	aaaab5b7          	lui	a1,0xaaaab
    28d8:	aab58593          	addi	a1,a1,-1365 # aaaaaaab <absimm+0x657b857c>
    28dc:	00b54633          	xor	a2,a0,a1
    28e0:	72c6a423          	sw	a2,1832(a3)

000028e4 <inst_477>:
    28e4:	00400513          	addi	a0,zero,4
    28e8:	00600593          	addi	a1,zero,6
    28ec:	00b54633          	xor	a2,a0,a1
    28f0:	72c6a623          	sw	a2,1836(a3)

000028f4 <inst_478>:
    28f4:	00400513          	addi	a0,zero,4
    28f8:	333335b7          	lui	a1,0x33333
    28fc:	33458593          	addi	a1,a1,820 # 33333334 <_end+0x3332972c>
    2900:	00b54633          	xor	a2,a0,a1
    2904:	72c6a823          	sw	a2,1840(a3)

00002908 <inst_479>:
    2908:	00400513          	addi	a0,zero,4
    290c:	666665b7          	lui	a1,0x66666
    2910:	66758593          	addi	a1,a1,1639 # 66666667 <absimm+0x21374138>
    2914:	00b54633          	xor	a2,a0,a1
    2918:	72c6aa23          	sw	a2,1844(a3)

0000291c <inst_480>:
    291c:	00400513          	addi	a0,zero,4
    2920:	ffff55b7          	lui	a1,0xffff5
    2924:	afd58593          	addi	a1,a1,-1283 # ffff4afd <immx+0x452e702d>
    2928:	00b54633          	xor	a2,a0,a1
    292c:	72c6ac23          	sw	a2,1848(a3)

00002930 <inst_481>:
    2930:	00400513          	addi	a0,zero,4
    2934:	0000b5b7          	lui	a1,0xb
    2938:	50558593          	addi	a1,a1,1285 # b505 <_end+0x18fd>
    293c:	00b54633          	xor	a2,a0,a1
    2940:	72c6ae23          	sw	a2,1852(a3)

00002944 <inst_482>:
    2944:	33333537          	lui	a0,0x33333
    2948:	33250513          	addi	a0,a0,818 # 33333332 <_end+0x3332972a>
    294c:	00300593          	addi	a1,zero,3
    2950:	00b54633          	xor	a2,a0,a1
    2954:	74c6a023          	sw	a2,1856(a3)

00002958 <inst_483>:
    2958:	33333537          	lui	a0,0x33333
    295c:	33250513          	addi	a0,a0,818 # 33333332 <_end+0x3332972a>
    2960:	555555b7          	lui	a1,0x55555
    2964:	55558593          	addi	a1,a1,1365 # 55555555 <absimm+0x10263026>
    2968:	00b54633          	xor	a2,a0,a1
    296c:	74c6a223          	sw	a2,1860(a3)

00002970 <inst_484>:
    2970:	33333537          	lui	a0,0x33333
    2974:	33250513          	addi	a0,a0,818 # 33333332 <_end+0x3332972a>
    2978:	aaaab5b7          	lui	a1,0xaaaab
    297c:	aaa58593          	addi	a1,a1,-1366 # aaaaaaaa <absimm+0x657b857b>
    2980:	00b54633          	xor	a2,a0,a1
    2984:	74c6a423          	sw	a2,1864(a3)

00002988 <inst_485>:
    2988:	33333537          	lui	a0,0x33333
    298c:	33250513          	addi	a0,a0,818 # 33333332 <_end+0x3332972a>
    2990:	00500593          	addi	a1,zero,5
    2994:	00b54633          	xor	a2,a0,a1
    2998:	74c6a623          	sw	a2,1868(a3)

0000299c <inst_486>:
    299c:	33333537          	lui	a0,0x33333
    29a0:	33250513          	addi	a0,a0,818 # 33333332 <_end+0x3332972a>
    29a4:	333335b7          	lui	a1,0x33333
    29a8:	33358593          	addi	a1,a1,819 # 33333333 <_end+0x3332972b>
    29ac:	00b54633          	xor	a2,a0,a1
    29b0:	74c6a823          	sw	a2,1872(a3)

000029b4 <inst_487>:
    29b4:	33333537          	lui	a0,0x33333
    29b8:	33250513          	addi	a0,a0,818 # 33333332 <_end+0x3332972a>
    29bc:	666665b7          	lui	a1,0x66666
    29c0:	66658593          	addi	a1,a1,1638 # 66666666 <absimm+0x21374137>
    29c4:	00b54633          	xor	a2,a0,a1
    29c8:	74c6aa23          	sw	a2,1876(a3)

000029cc <inst_488>:
    29cc:	33333537          	lui	a0,0x33333
    29d0:	33250513          	addi	a0,a0,818 # 33333332 <_end+0x3332972a>
    29d4:	ffff55b7          	lui	a1,0xffff5
    29d8:	afc58593          	addi	a1,a1,-1284 # ffff4afc <immx+0x452e702c>
    29dc:	00b54633          	xor	a2,a0,a1
    29e0:	74c6ac23          	sw	a2,1880(a3)

000029e4 <inst_489>:
    29e4:	33333537          	lui	a0,0x33333
    29e8:	33250513          	addi	a0,a0,818 # 33333332 <_end+0x3332972a>
    29ec:	0000b5b7          	lui	a1,0xb
    29f0:	50458593          	addi	a1,a1,1284 # b504 <_end+0x18fc>
    29f4:	00b54633          	xor	a2,a0,a1
    29f8:	74c6ae23          	sw	a2,1884(a3)

000029fc <inst_490>:
    29fc:	33333537          	lui	a0,0x33333
    2a00:	33250513          	addi	a0,a0,818 # 33333332 <_end+0x3332972a>
    2a04:	00200593          	addi	a1,zero,2
    2a08:	00b54633          	xor	a2,a0,a1
    2a0c:	76c6a023          	sw	a2,1888(a3)

00002a10 <inst_491>:
    2a10:	33333537          	lui	a0,0x33333
    2a14:	33250513          	addi	a0,a0,818 # 33333332 <_end+0x3332972a>
    2a18:	555555b7          	lui	a1,0x55555
    2a1c:	55458593          	addi	a1,a1,1364 # 55555554 <absimm+0x10263025>
    2a20:	00b54633          	xor	a2,a0,a1
    2a24:	76c6a223          	sw	a2,1892(a3)

00002a28 <inst_492>:
    2a28:	33333537          	lui	a0,0x33333
    2a2c:	33250513          	addi	a0,a0,818 # 33333332 <_end+0x3332972a>
    2a30:	00000593          	addi	a1,zero,0
    2a34:	00b54633          	xor	a2,a0,a1
    2a38:	76c6a423          	sw	a2,1896(a3)

00002a3c <inst_493>:
    2a3c:	33333537          	lui	a0,0x33333
    2a40:	33250513          	addi	a0,a0,818 # 33333332 <_end+0x3332972a>
    2a44:	00400593          	addi	a1,zero,4
    2a48:	00b54633          	xor	a2,a0,a1
    2a4c:	76c6a623          	sw	a2,1900(a3)

00002a50 <inst_494>:
    2a50:	33333537          	lui	a0,0x33333
    2a54:	33250513          	addi	a0,a0,818 # 33333332 <_end+0x3332972a>
    2a58:	333335b7          	lui	a1,0x33333
    2a5c:	33258593          	addi	a1,a1,818 # 33333332 <_end+0x3332972a>
    2a60:	00b54633          	xor	a2,a0,a1
    2a64:	76c6a823          	sw	a2,1904(a3)

00002a68 <inst_495>:
    2a68:	33333537          	lui	a0,0x33333
    2a6c:	33250513          	addi	a0,a0,818 # 33333332 <_end+0x3332972a>
    2a70:	666665b7          	lui	a1,0x66666
    2a74:	66558593          	addi	a1,a1,1637 # 66666665 <absimm+0x21374136>
    2a78:	00b54633          	xor	a2,a0,a1
    2a7c:	76c6aa23          	sw	a2,1908(a3)

00002a80 <inst_496>:
    2a80:	33333537          	lui	a0,0x33333
    2a84:	33250513          	addi	a0,a0,818 # 33333332 <_end+0x3332972a>
    2a88:	0000b5b7          	lui	a1,0xb
    2a8c:	50358593          	addi	a1,a1,1283 # b503 <_end+0x18fb>
    2a90:	00b54633          	xor	a2,a0,a1
    2a94:	76c6ac23          	sw	a2,1912(a3)

00002a98 <inst_497>:
    2a98:	33333537          	lui	a0,0x33333
    2a9c:	33250513          	addi	a0,a0,818 # 33333332 <_end+0x3332972a>
    2aa0:	555555b7          	lui	a1,0x55555
    2aa4:	55658593          	addi	a1,a1,1366 # 55555556 <absimm+0x10263027>
    2aa8:	00b54633          	xor	a2,a0,a1
    2aac:	76c6ae23          	sw	a2,1916(a3)

00002ab0 <inst_498>:
    2ab0:	33333537          	lui	a0,0x33333
    2ab4:	33250513          	addi	a0,a0,818 # 33333332 <_end+0x3332972a>
    2ab8:	aaaab5b7          	lui	a1,0xaaaab
    2abc:	aab58593          	addi	a1,a1,-1365 # aaaaaaab <absimm+0x657b857c>
    2ac0:	00b54633          	xor	a2,a0,a1
    2ac4:	78c6a023          	sw	a2,1920(a3)

00002ac8 <inst_499>:
    2ac8:	33333537          	lui	a0,0x33333
    2acc:	33250513          	addi	a0,a0,818 # 33333332 <_end+0x3332972a>
    2ad0:	00600593          	addi	a1,zero,6
    2ad4:	00b54633          	xor	a2,a0,a1
    2ad8:	78c6a223          	sw	a2,1924(a3)

00002adc <inst_500>:
    2adc:	33333537          	lui	a0,0x33333
    2ae0:	33250513          	addi	a0,a0,818 # 33333332 <_end+0x3332972a>
    2ae4:	333335b7          	lui	a1,0x33333
    2ae8:	33458593          	addi	a1,a1,820 # 33333334 <_end+0x3332972c>
    2aec:	00b54633          	xor	a2,a0,a1
    2af0:	78c6a423          	sw	a2,1928(a3)

00002af4 <inst_501>:
    2af4:	33333537          	lui	a0,0x33333
    2af8:	33250513          	addi	a0,a0,818 # 33333332 <_end+0x3332972a>
    2afc:	666665b7          	lui	a1,0x66666
    2b00:	66758593          	addi	a1,a1,1639 # 66666667 <absimm+0x21374138>
    2b04:	00b54633          	xor	a2,a0,a1
    2b08:	78c6a623          	sw	a2,1932(a3)

00002b0c <inst_502>:
    2b0c:	33333537          	lui	a0,0x33333
    2b10:	33250513          	addi	a0,a0,818 # 33333332 <_end+0x3332972a>
    2b14:	ffff55b7          	lui	a1,0xffff5
    2b18:	afd58593          	addi	a1,a1,-1283 # ffff4afd <immx+0x452e702d>
    2b1c:	00b54633          	xor	a2,a0,a1
    2b20:	78c6a823          	sw	a2,1936(a3)

00002b24 <inst_503>:
    2b24:	33333537          	lui	a0,0x33333
    2b28:	33250513          	addi	a0,a0,818 # 33333332 <_end+0x3332972a>
    2b2c:	0000b5b7          	lui	a1,0xb
    2b30:	50558593          	addi	a1,a1,1285 # b505 <_end+0x18fd>
    2b34:	00b54633          	xor	a2,a0,a1
    2b38:	78c6aa23          	sw	a2,1940(a3)

00002b3c <inst_504>:
    2b3c:	66666537          	lui	a0,0x66666
    2b40:	66550513          	addi	a0,a0,1637 # 66666665 <absimm+0x21374136>
    2b44:	555555b7          	lui	a1,0x55555
    2b48:	55558593          	addi	a1,a1,1365 # 55555555 <absimm+0x10263026>
    2b4c:	00b54633          	xor	a2,a0,a1
    2b50:	78c6ac23          	sw	a2,1944(a3)

00002b54 <inst_505>:
    2b54:	66666537          	lui	a0,0x66666
    2b58:	66550513          	addi	a0,a0,1637 # 66666665 <absimm+0x21374136>
    2b5c:	aaaab5b7          	lui	a1,0xaaaab
    2b60:	aaa58593          	addi	a1,a1,-1366 # aaaaaaaa <absimm+0x657b857b>
    2b64:	00b54633          	xor	a2,a0,a1
    2b68:	78c6ae23          	sw	a2,1948(a3)

00002b6c <inst_506>:
    2b6c:	66666537          	lui	a0,0x66666
    2b70:	66550513          	addi	a0,a0,1637 # 66666665 <absimm+0x21374136>
    2b74:	00500593          	addi	a1,zero,5
    2b78:	00b54633          	xor	a2,a0,a1
    2b7c:	7ac6a023          	sw	a2,1952(a3)

00002b80 <inst_507>:
    2b80:	66666537          	lui	a0,0x66666
    2b84:	66550513          	addi	a0,a0,1637 # 66666665 <absimm+0x21374136>
    2b88:	333335b7          	lui	a1,0x33333
    2b8c:	33358593          	addi	a1,a1,819 # 33333333 <_end+0x3332972b>
    2b90:	00b54633          	xor	a2,a0,a1
    2b94:	7ac6a223          	sw	a2,1956(a3)

00002b98 <inst_508>:
    2b98:	66666537          	lui	a0,0x66666
    2b9c:	66550513          	addi	a0,a0,1637 # 66666665 <absimm+0x21374136>
    2ba0:	666665b7          	lui	a1,0x66666
    2ba4:	66658593          	addi	a1,a1,1638 # 66666666 <absimm+0x21374137>
    2ba8:	00b54633          	xor	a2,a0,a1
    2bac:	7ac6a423          	sw	a2,1960(a3)

00002bb0 <inst_509>:
    2bb0:	66666537          	lui	a0,0x66666
    2bb4:	66550513          	addi	a0,a0,1637 # 66666665 <absimm+0x21374136>
    2bb8:	ffff55b7          	lui	a1,0xffff5
    2bbc:	afc58593          	addi	a1,a1,-1284 # ffff4afc <immx+0x452e702c>
    2bc0:	00b54633          	xor	a2,a0,a1
    2bc4:	7ac6a623          	sw	a2,1964(a3)

00002bc8 <inst_510>:
    2bc8:	66666537          	lui	a0,0x66666
    2bcc:	66550513          	addi	a0,a0,1637 # 66666665 <absimm+0x21374136>
    2bd0:	0000b5b7          	lui	a1,0xb
    2bd4:	50458593          	addi	a1,a1,1284 # b504 <_end+0x18fc>
    2bd8:	00b54633          	xor	a2,a0,a1
    2bdc:	7ac6a823          	sw	a2,1968(a3)

00002be0 <inst_511>:
    2be0:	66666537          	lui	a0,0x66666
    2be4:	66550513          	addi	a0,a0,1637 # 66666665 <absimm+0x21374136>
    2be8:	00200593          	addi	a1,zero,2
    2bec:	00b54633          	xor	a2,a0,a1
    2bf0:	7ac6aa23          	sw	a2,1972(a3)

00002bf4 <inst_512>:
    2bf4:	66666537          	lui	a0,0x66666
    2bf8:	66550513          	addi	a0,a0,1637 # 66666665 <absimm+0x21374136>
    2bfc:	555555b7          	lui	a1,0x55555
    2c00:	55458593          	addi	a1,a1,1364 # 55555554 <absimm+0x10263025>
    2c04:	00b54633          	xor	a2,a0,a1
    2c08:	7ac6ac23          	sw	a2,1976(a3)

00002c0c <inst_513>:
    2c0c:	66666537          	lui	a0,0x66666
    2c10:	66550513          	addi	a0,a0,1637 # 66666665 <absimm+0x21374136>
    2c14:	00000593          	addi	a1,zero,0
    2c18:	00b54633          	xor	a2,a0,a1
    2c1c:	7ac6ae23          	sw	a2,1980(a3)

00002c20 <inst_514>:
    2c20:	66666537          	lui	a0,0x66666
    2c24:	66550513          	addi	a0,a0,1637 # 66666665 <absimm+0x21374136>
    2c28:	00400593          	addi	a1,zero,4
    2c2c:	00b54633          	xor	a2,a0,a1
    2c30:	7cc6a023          	sw	a2,1984(a3)

00002c34 <inst_515>:
    2c34:	66666537          	lui	a0,0x66666
    2c38:	66550513          	addi	a0,a0,1637 # 66666665 <absimm+0x21374136>
    2c3c:	333335b7          	lui	a1,0x33333
    2c40:	33258593          	addi	a1,a1,818 # 33333332 <_end+0x3332972a>
    2c44:	00b54633          	xor	a2,a0,a1
    2c48:	7cc6a223          	sw	a2,1988(a3)

00002c4c <inst_516>:
    2c4c:	66666537          	lui	a0,0x66666
    2c50:	66550513          	addi	a0,a0,1637 # 66666665 <absimm+0x21374136>
    2c54:	666665b7          	lui	a1,0x66666
    2c58:	66558593          	addi	a1,a1,1637 # 66666665 <absimm+0x21374136>
    2c5c:	00b54633          	xor	a2,a0,a1
    2c60:	7cc6a423          	sw	a2,1992(a3)

00002c64 <inst_517>:
    2c64:	66666537          	lui	a0,0x66666
    2c68:	66550513          	addi	a0,a0,1637 # 66666665 <absimm+0x21374136>
    2c6c:	0000b5b7          	lui	a1,0xb
    2c70:	50358593          	addi	a1,a1,1283 # b503 <_end+0x18fb>
    2c74:	00b54633          	xor	a2,a0,a1
    2c78:	7cc6a623          	sw	a2,1996(a3)

00002c7c <inst_518>:
    2c7c:	66666537          	lui	a0,0x66666
    2c80:	66550513          	addi	a0,a0,1637 # 66666665 <absimm+0x21374136>
    2c84:	555555b7          	lui	a1,0x55555
    2c88:	55658593          	addi	a1,a1,1366 # 55555556 <absimm+0x10263027>
    2c8c:	00b54633          	xor	a2,a0,a1
    2c90:	7cc6a823          	sw	a2,2000(a3)

00002c94 <inst_519>:
    2c94:	66666537          	lui	a0,0x66666
    2c98:	66550513          	addi	a0,a0,1637 # 66666665 <absimm+0x21374136>
    2c9c:	aaaab5b7          	lui	a1,0xaaaab
    2ca0:	aab58593          	addi	a1,a1,-1365 # aaaaaaab <absimm+0x657b857c>
    2ca4:	00b54633          	xor	a2,a0,a1
    2ca8:	7cc6aa23          	sw	a2,2004(a3)

00002cac <inst_520>:
    2cac:	66666537          	lui	a0,0x66666
    2cb0:	66550513          	addi	a0,a0,1637 # 66666665 <absimm+0x21374136>
    2cb4:	00600593          	addi	a1,zero,6
    2cb8:	00b54633          	xor	a2,a0,a1
    2cbc:	7cc6ac23          	sw	a2,2008(a3)

00002cc0 <inst_521>:
    2cc0:	66666537          	lui	a0,0x66666
    2cc4:	66550513          	addi	a0,a0,1637 # 66666665 <absimm+0x21374136>
    2cc8:	333335b7          	lui	a1,0x33333
    2ccc:	33458593          	addi	a1,a1,820 # 33333334 <_end+0x3332972c>
    2cd0:	00b54633          	xor	a2,a0,a1
    2cd4:	7cc6ae23          	sw	a2,2012(a3)

00002cd8 <inst_522>:
    2cd8:	66666537          	lui	a0,0x66666
    2cdc:	66550513          	addi	a0,a0,1637 # 66666665 <absimm+0x21374136>
    2ce0:	666665b7          	lui	a1,0x66666
    2ce4:	66758593          	addi	a1,a1,1639 # 66666667 <absimm+0x21374138>
    2ce8:	00b54633          	xor	a2,a0,a1
    2cec:	7ec6a023          	sw	a2,2016(a3)

00002cf0 <inst_523>:
    2cf0:	66666537          	lui	a0,0x66666
    2cf4:	66550513          	addi	a0,a0,1637 # 66666665 <absimm+0x21374136>
    2cf8:	ffff55b7          	lui	a1,0xffff5
    2cfc:	afd58593          	addi	a1,a1,-1283 # ffff4afd <immx+0x452e702d>
    2d00:	00b54633          	xor	a2,a0,a1
    2d04:	7ec6a223          	sw	a2,2020(a3)

00002d08 <inst_524>:
    2d08:	66666537          	lui	a0,0x66666
    2d0c:	66550513          	addi	a0,a0,1637 # 66666665 <absimm+0x21374136>
    2d10:	0000b5b7          	lui	a1,0xb
    2d14:	50558593          	addi	a1,a1,1285 # b505 <_end+0x18fd>
    2d18:	00b54633          	xor	a2,a0,a1
    2d1c:	7ec6a423          	sw	a2,2024(a3)

00002d20 <inst_525>:
    2d20:	0000b537          	lui	a0,0xb
    2d24:	50350513          	addi	a0,a0,1283 # b503 <_end+0x18fb>
    2d28:	00300593          	addi	a1,zero,3
    2d2c:	00b54633          	xor	a2,a0,a1
    2d30:	7ec6a623          	sw	a2,2028(a3)

00002d34 <inst_526>:
    2d34:	0000b537          	lui	a0,0xb
    2d38:	50350513          	addi	a0,a0,1283 # b503 <_end+0x18fb>
    2d3c:	555555b7          	lui	a1,0x55555
    2d40:	55558593          	addi	a1,a1,1365 # 55555555 <absimm+0x10263026>
    2d44:	00b54633          	xor	a2,a0,a1
    2d48:	7ec6a823          	sw	a2,2032(a3)

00002d4c <inst_527>:
    2d4c:	0000b537          	lui	a0,0xb
    2d50:	50350513          	addi	a0,a0,1283 # b503 <_end+0x18fb>
    2d54:	aaaab5b7          	lui	a1,0xaaaab
    2d58:	aaa58593          	addi	a1,a1,-1366 # aaaaaaaa <absimm+0x657b857b>
    2d5c:	00b54633          	xor	a2,a0,a1
    2d60:	7ec6aa23          	sw	a2,2036(a3)

00002d64 <inst_528>:
    2d64:	0000b537          	lui	a0,0xb
    2d68:	50350513          	addi	a0,a0,1283 # b503 <_end+0x18fb>
    2d6c:	00500593          	addi	a1,zero,5
    2d70:	00b54633          	xor	a2,a0,a1
    2d74:	7ec6ac23          	sw	a2,2040(a3)

00002d78 <inst_529>:
    2d78:	0000b537          	lui	a0,0xb
    2d7c:	50350513          	addi	a0,a0,1283 # b503 <_end+0x18fb>
    2d80:	333335b7          	lui	a1,0x33333
    2d84:	33358593          	addi	a1,a1,819 # 33333333 <_end+0x3332972b>
    2d88:	00b54633          	xor	a2,a0,a1
    2d8c:	7ec6ae23          	sw	a2,2044(a3)
    2d90:	00000013          	addi	zero,zero,0
    2d94:	00000013          	addi	zero,zero,0
    2d98:	00000013          	addi	zero,zero,0
    2d9c:	00000013          	addi	zero,zero,0
    2da0:	00007697          	auipc	a3,0x7
    2da4:	bbc68693          	addi	a3,a3,-1092 # 995c <signature_x13_1>
    2da8:	00000013          	addi	zero,zero,0
    2dac:	00000013          	addi	zero,zero,0
    2db0:	00000013          	addi	zero,zero,0
    2db4:	00000013          	addi	zero,zero,0
    2db8:	00000013          	addi	zero,zero,0
    2dbc:	00000013          	addi	zero,zero,0

00002dc0 <inst_530>:
    2dc0:	0000b537          	lui	a0,0xb
    2dc4:	50350513          	addi	a0,a0,1283 # b503 <_end+0x18fb>
    2dc8:	666665b7          	lui	a1,0x66666
    2dcc:	66658593          	addi	a1,a1,1638 # 66666666 <absimm+0x21374137>
    2dd0:	00b54633          	xor	a2,a0,a1
    2dd4:	00c6a023          	sw	a2,0(a3)

00002dd8 <inst_531>:
    2dd8:	0000b537          	lui	a0,0xb
    2ddc:	50350513          	addi	a0,a0,1283 # b503 <_end+0x18fb>
    2de0:	ffff55b7          	lui	a1,0xffff5
    2de4:	afc58593          	addi	a1,a1,-1284 # ffff4afc <immx+0x452e702c>
    2de8:	00b54633          	xor	a2,a0,a1
    2dec:	00c6a223          	sw	a2,4(a3)

00002df0 <inst_532>:
    2df0:	0000b537          	lui	a0,0xb
    2df4:	50350513          	addi	a0,a0,1283 # b503 <_end+0x18fb>
    2df8:	0000b5b7          	lui	a1,0xb
    2dfc:	50458593          	addi	a1,a1,1284 # b504 <_end+0x18fc>
    2e00:	00b54633          	xor	a2,a0,a1
    2e04:	00c6a423          	sw	a2,8(a3)

00002e08 <inst_533>:
    2e08:	0000b537          	lui	a0,0xb
    2e0c:	50350513          	addi	a0,a0,1283 # b503 <_end+0x18fb>
    2e10:	00200593          	addi	a1,zero,2
    2e14:	00b54633          	xor	a2,a0,a1
    2e18:	00c6a623          	sw	a2,12(a3)

00002e1c <inst_534>:
    2e1c:	0000b537          	lui	a0,0xb
    2e20:	50350513          	addi	a0,a0,1283 # b503 <_end+0x18fb>
    2e24:	555555b7          	lui	a1,0x55555
    2e28:	55458593          	addi	a1,a1,1364 # 55555554 <absimm+0x10263025>
    2e2c:	00b54633          	xor	a2,a0,a1
    2e30:	00c6a823          	sw	a2,16(a3)

00002e34 <inst_535>:
    2e34:	0000b537          	lui	a0,0xb
    2e38:	50350513          	addi	a0,a0,1283 # b503 <_end+0x18fb>
    2e3c:	00000593          	addi	a1,zero,0
    2e40:	00b54633          	xor	a2,a0,a1
    2e44:	00c6aa23          	sw	a2,20(a3)

00002e48 <inst_536>:
    2e48:	0000b537          	lui	a0,0xb
    2e4c:	50350513          	addi	a0,a0,1283 # b503 <_end+0x18fb>
    2e50:	00400593          	addi	a1,zero,4
    2e54:	00b54633          	xor	a2,a0,a1
    2e58:	00c6ac23          	sw	a2,24(a3)

00002e5c <inst_537>:
    2e5c:	0000b537          	lui	a0,0xb
    2e60:	50350513          	addi	a0,a0,1283 # b503 <_end+0x18fb>
    2e64:	333335b7          	lui	a1,0x33333
    2e68:	33258593          	addi	a1,a1,818 # 33333332 <_end+0x3332972a>
    2e6c:	00b54633          	xor	a2,a0,a1
    2e70:	00c6ae23          	sw	a2,28(a3)

00002e74 <inst_538>:
    2e74:	0000b537          	lui	a0,0xb
    2e78:	50350513          	addi	a0,a0,1283 # b503 <_end+0x18fb>
    2e7c:	666665b7          	lui	a1,0x66666
    2e80:	66558593          	addi	a1,a1,1637 # 66666665 <absimm+0x21374136>
    2e84:	00b54633          	xor	a2,a0,a1
    2e88:	02c6a023          	sw	a2,32(a3)

00002e8c <inst_539>:
    2e8c:	0000b537          	lui	a0,0xb
    2e90:	50350513          	addi	a0,a0,1283 # b503 <_end+0x18fb>
    2e94:	0000b5b7          	lui	a1,0xb
    2e98:	50358593          	addi	a1,a1,1283 # b503 <_end+0x18fb>
    2e9c:	00b54633          	xor	a2,a0,a1
    2ea0:	02c6a223          	sw	a2,36(a3)

00002ea4 <inst_540>:
    2ea4:	0000b537          	lui	a0,0xb
    2ea8:	50350513          	addi	a0,a0,1283 # b503 <_end+0x18fb>
    2eac:	555555b7          	lui	a1,0x55555
    2eb0:	55658593          	addi	a1,a1,1366 # 55555556 <absimm+0x10263027>
    2eb4:	00b54633          	xor	a2,a0,a1
    2eb8:	02c6a423          	sw	a2,40(a3)

00002ebc <inst_541>:
    2ebc:	0000b537          	lui	a0,0xb
    2ec0:	50350513          	addi	a0,a0,1283 # b503 <_end+0x18fb>
    2ec4:	aaaab5b7          	lui	a1,0xaaaab
    2ec8:	aab58593          	addi	a1,a1,-1365 # aaaaaaab <absimm+0x657b857c>
    2ecc:	00b54633          	xor	a2,a0,a1
    2ed0:	02c6a623          	sw	a2,44(a3)

00002ed4 <inst_542>:
    2ed4:	0000b537          	lui	a0,0xb
    2ed8:	50350513          	addi	a0,a0,1283 # b503 <_end+0x18fb>
    2edc:	00600593          	addi	a1,zero,6
    2ee0:	00b54633          	xor	a2,a0,a1
    2ee4:	02c6a823          	sw	a2,48(a3)

00002ee8 <inst_543>:
    2ee8:	0000b537          	lui	a0,0xb
    2eec:	50350513          	addi	a0,a0,1283 # b503 <_end+0x18fb>
    2ef0:	333335b7          	lui	a1,0x33333
    2ef4:	33458593          	addi	a1,a1,820 # 33333334 <_end+0x3332972c>
    2ef8:	00b54633          	xor	a2,a0,a1
    2efc:	02c6aa23          	sw	a2,52(a3)

00002f00 <inst_544>:
    2f00:	0000b537          	lui	a0,0xb
    2f04:	50350513          	addi	a0,a0,1283 # b503 <_end+0x18fb>
    2f08:	666665b7          	lui	a1,0x66666
    2f0c:	66758593          	addi	a1,a1,1639 # 66666667 <absimm+0x21374138>
    2f10:	00b54633          	xor	a2,a0,a1
    2f14:	02c6ac23          	sw	a2,56(a3)

00002f18 <inst_545>:
    2f18:	0000b537          	lui	a0,0xb
    2f1c:	50350513          	addi	a0,a0,1283 # b503 <_end+0x18fb>
    2f20:	ffff55b7          	lui	a1,0xffff5
    2f24:	afd58593          	addi	a1,a1,-1283 # ffff4afd <immx+0x452e702d>
    2f28:	00b54633          	xor	a2,a0,a1
    2f2c:	02c6ae23          	sw	a2,60(a3)

00002f30 <inst_546>:
    2f30:	0000b537          	lui	a0,0xb
    2f34:	50350513          	addi	a0,a0,1283 # b503 <_end+0x18fb>
    2f38:	0000b5b7          	lui	a1,0xb
    2f3c:	50558593          	addi	a1,a1,1285 # b505 <_end+0x18fd>
    2f40:	00b54633          	xor	a2,a0,a1
    2f44:	04c6a023          	sw	a2,64(a3)

00002f48 <inst_547>:
    2f48:	55555537          	lui	a0,0x55555
    2f4c:	55650513          	addi	a0,a0,1366 # 55555556 <absimm+0x10263027>
    2f50:	00300593          	addi	a1,zero,3
    2f54:	00b54633          	xor	a2,a0,a1
    2f58:	04c6a223          	sw	a2,68(a3)

00002f5c <inst_548>:
    2f5c:	55555537          	lui	a0,0x55555
    2f60:	55650513          	addi	a0,a0,1366 # 55555556 <absimm+0x10263027>
    2f64:	555555b7          	lui	a1,0x55555
    2f68:	55558593          	addi	a1,a1,1365 # 55555555 <absimm+0x10263026>
    2f6c:	00b54633          	xor	a2,a0,a1
    2f70:	04c6a423          	sw	a2,72(a3)

00002f74 <inst_549>:
    2f74:	55555537          	lui	a0,0x55555
    2f78:	55650513          	addi	a0,a0,1366 # 55555556 <absimm+0x10263027>
    2f7c:	aaaab5b7          	lui	a1,0xaaaab
    2f80:	aaa58593          	addi	a1,a1,-1366 # aaaaaaaa <absimm+0x657b857b>
    2f84:	00b54633          	xor	a2,a0,a1
    2f88:	04c6a623          	sw	a2,76(a3)

00002f8c <inst_550>:
    2f8c:	55555537          	lui	a0,0x55555
    2f90:	55650513          	addi	a0,a0,1366 # 55555556 <absimm+0x10263027>
    2f94:	00500593          	addi	a1,zero,5
    2f98:	00b54633          	xor	a2,a0,a1
    2f9c:	04c6a823          	sw	a2,80(a3)

00002fa0 <inst_551>:
    2fa0:	55555537          	lui	a0,0x55555
    2fa4:	55650513          	addi	a0,a0,1366 # 55555556 <absimm+0x10263027>
    2fa8:	333335b7          	lui	a1,0x33333
    2fac:	33358593          	addi	a1,a1,819 # 33333333 <_end+0x3332972b>
    2fb0:	00b54633          	xor	a2,a0,a1
    2fb4:	04c6aa23          	sw	a2,84(a3)

00002fb8 <inst_552>:
    2fb8:	55555537          	lui	a0,0x55555
    2fbc:	55650513          	addi	a0,a0,1366 # 55555556 <absimm+0x10263027>
    2fc0:	666665b7          	lui	a1,0x66666
    2fc4:	66658593          	addi	a1,a1,1638 # 66666666 <absimm+0x21374137>
    2fc8:	00b54633          	xor	a2,a0,a1
    2fcc:	04c6ac23          	sw	a2,88(a3)

00002fd0 <inst_553>:
    2fd0:	55555537          	lui	a0,0x55555
    2fd4:	55650513          	addi	a0,a0,1366 # 55555556 <absimm+0x10263027>
    2fd8:	ffff55b7          	lui	a1,0xffff5
    2fdc:	afc58593          	addi	a1,a1,-1284 # ffff4afc <immx+0x452e702c>
    2fe0:	00b54633          	xor	a2,a0,a1
    2fe4:	04c6ae23          	sw	a2,92(a3)

00002fe8 <inst_554>:
    2fe8:	55555537          	lui	a0,0x55555
    2fec:	55650513          	addi	a0,a0,1366 # 55555556 <absimm+0x10263027>
    2ff0:	0000b5b7          	lui	a1,0xb
    2ff4:	50458593          	addi	a1,a1,1284 # b504 <_end+0x18fc>
    2ff8:	00b54633          	xor	a2,a0,a1
    2ffc:	06c6a023          	sw	a2,96(a3)

00003000 <inst_555>:
    3000:	55555537          	lui	a0,0x55555
    3004:	55650513          	addi	a0,a0,1366 # 55555556 <absimm+0x10263027>
    3008:	00200593          	addi	a1,zero,2
    300c:	00b54633          	xor	a2,a0,a1
    3010:	06c6a223          	sw	a2,100(a3)

00003014 <inst_556>:
    3014:	55555537          	lui	a0,0x55555
    3018:	55650513          	addi	a0,a0,1366 # 55555556 <absimm+0x10263027>
    301c:	555555b7          	lui	a1,0x55555
    3020:	55458593          	addi	a1,a1,1364 # 55555554 <absimm+0x10263025>
    3024:	00b54633          	xor	a2,a0,a1
    3028:	06c6a423          	sw	a2,104(a3)

0000302c <inst_557>:
    302c:	55555537          	lui	a0,0x55555
    3030:	55650513          	addi	a0,a0,1366 # 55555556 <absimm+0x10263027>
    3034:	00000593          	addi	a1,zero,0
    3038:	00b54633          	xor	a2,a0,a1
    303c:	06c6a623          	sw	a2,108(a3)

00003040 <inst_558>:
    3040:	55555537          	lui	a0,0x55555
    3044:	55650513          	addi	a0,a0,1366 # 55555556 <absimm+0x10263027>
    3048:	00400593          	addi	a1,zero,4
    304c:	00b54633          	xor	a2,a0,a1
    3050:	06c6a823          	sw	a2,112(a3)

00003054 <inst_559>:
    3054:	55555537          	lui	a0,0x55555
    3058:	55650513          	addi	a0,a0,1366 # 55555556 <absimm+0x10263027>
    305c:	333335b7          	lui	a1,0x33333
    3060:	33258593          	addi	a1,a1,818 # 33333332 <_end+0x3332972a>
    3064:	00b54633          	xor	a2,a0,a1
    3068:	06c6aa23          	sw	a2,116(a3)

0000306c <inst_560>:
    306c:	55555537          	lui	a0,0x55555
    3070:	55650513          	addi	a0,a0,1366 # 55555556 <absimm+0x10263027>
    3074:	666665b7          	lui	a1,0x66666
    3078:	66558593          	addi	a1,a1,1637 # 66666665 <absimm+0x21374136>
    307c:	00b54633          	xor	a2,a0,a1
    3080:	06c6ac23          	sw	a2,120(a3)

00003084 <inst_561>:
    3084:	55555537          	lui	a0,0x55555
    3088:	55650513          	addi	a0,a0,1366 # 55555556 <absimm+0x10263027>
    308c:	0000b5b7          	lui	a1,0xb
    3090:	50358593          	addi	a1,a1,1283 # b503 <_end+0x18fb>
    3094:	00b54633          	xor	a2,a0,a1
    3098:	06c6ae23          	sw	a2,124(a3)

0000309c <inst_562>:
    309c:	55555537          	lui	a0,0x55555
    30a0:	55650513          	addi	a0,a0,1366 # 55555556 <absimm+0x10263027>
    30a4:	555555b7          	lui	a1,0x55555
    30a8:	55658593          	addi	a1,a1,1366 # 55555556 <absimm+0x10263027>
    30ac:	00b54633          	xor	a2,a0,a1
    30b0:	08c6a023          	sw	a2,128(a3)

000030b4 <inst_563>:
    30b4:	55555537          	lui	a0,0x55555
    30b8:	55650513          	addi	a0,a0,1366 # 55555556 <absimm+0x10263027>
    30bc:	aaaab5b7          	lui	a1,0xaaaab
    30c0:	aab58593          	addi	a1,a1,-1365 # aaaaaaab <absimm+0x657b857c>
    30c4:	00b54633          	xor	a2,a0,a1
    30c8:	08c6a223          	sw	a2,132(a3)

000030cc <inst_564>:
    30cc:	55555537          	lui	a0,0x55555
    30d0:	55650513          	addi	a0,a0,1366 # 55555556 <absimm+0x10263027>
    30d4:	00600593          	addi	a1,zero,6
    30d8:	00b54633          	xor	a2,a0,a1
    30dc:	08c6a423          	sw	a2,136(a3)

000030e0 <inst_565>:
    30e0:	55555537          	lui	a0,0x55555
    30e4:	55650513          	addi	a0,a0,1366 # 55555556 <absimm+0x10263027>
    30e8:	333335b7          	lui	a1,0x33333
    30ec:	33458593          	addi	a1,a1,820 # 33333334 <_end+0x3332972c>
    30f0:	00b54633          	xor	a2,a0,a1
    30f4:	08c6a623          	sw	a2,140(a3)

000030f8 <inst_566>:
    30f8:	55555537          	lui	a0,0x55555
    30fc:	55650513          	addi	a0,a0,1366 # 55555556 <absimm+0x10263027>
    3100:	666665b7          	lui	a1,0x66666
    3104:	66758593          	addi	a1,a1,1639 # 66666667 <absimm+0x21374138>
    3108:	00b54633          	xor	a2,a0,a1
    310c:	08c6a823          	sw	a2,144(a3)

00003110 <inst_567>:
    3110:	55555537          	lui	a0,0x55555
    3114:	55650513          	addi	a0,a0,1366 # 55555556 <absimm+0x10263027>
    3118:	ffff55b7          	lui	a1,0xffff5
    311c:	afd58593          	addi	a1,a1,-1283 # ffff4afd <immx+0x452e702d>
    3120:	00b54633          	xor	a2,a0,a1
    3124:	08c6aa23          	sw	a2,148(a3)

00003128 <inst_568>:
    3128:	55555537          	lui	a0,0x55555
    312c:	55650513          	addi	a0,a0,1366 # 55555556 <absimm+0x10263027>
    3130:	0000b5b7          	lui	a1,0xb
    3134:	50558593          	addi	a1,a1,1285 # b505 <_end+0x18fd>
    3138:	00b54633          	xor	a2,a0,a1
    313c:	08c6ac23          	sw	a2,152(a3)

00003140 <inst_569>:
    3140:	aaaab537          	lui	a0,0xaaaab
    3144:	aab50513          	addi	a0,a0,-1365 # aaaaaaab <absimm+0x657b857c>
    3148:	00300593          	addi	a1,zero,3
    314c:	00b54633          	xor	a2,a0,a1
    3150:	08c6ae23          	sw	a2,156(a3)

00003154 <inst_570>:
    3154:	aaaab537          	lui	a0,0xaaaab
    3158:	aab50513          	addi	a0,a0,-1365 # aaaaaaab <absimm+0x657b857c>
    315c:	555555b7          	lui	a1,0x55555
    3160:	55558593          	addi	a1,a1,1365 # 55555555 <absimm+0x10263026>
    3164:	00b54633          	xor	a2,a0,a1
    3168:	0ac6a023          	sw	a2,160(a3)

0000316c <inst_571>:
    316c:	aaaab537          	lui	a0,0xaaaab
    3170:	aab50513          	addi	a0,a0,-1365 # aaaaaaab <absimm+0x657b857c>
    3174:	aaaab5b7          	lui	a1,0xaaaab
    3178:	aaa58593          	addi	a1,a1,-1366 # aaaaaaaa <absimm+0x657b857b>
    317c:	00b54633          	xor	a2,a0,a1
    3180:	0ac6a223          	sw	a2,164(a3)

00003184 <inst_572>:
    3184:	aaaab537          	lui	a0,0xaaaab
    3188:	aab50513          	addi	a0,a0,-1365 # aaaaaaab <absimm+0x657b857c>
    318c:	00500593          	addi	a1,zero,5
    3190:	00b54633          	xor	a2,a0,a1
    3194:	0ac6a423          	sw	a2,168(a3)

00003198 <inst_573>:
    3198:	aaaab537          	lui	a0,0xaaaab
    319c:	aab50513          	addi	a0,a0,-1365 # aaaaaaab <absimm+0x657b857c>
    31a0:	333335b7          	lui	a1,0x33333
    31a4:	33358593          	addi	a1,a1,819 # 33333333 <_end+0x3332972b>
    31a8:	00b54633          	xor	a2,a0,a1
    31ac:	0ac6a623          	sw	a2,172(a3)

000031b0 <inst_574>:
    31b0:	aaaab537          	lui	a0,0xaaaab
    31b4:	aab50513          	addi	a0,a0,-1365 # aaaaaaab <absimm+0x657b857c>
    31b8:	666665b7          	lui	a1,0x66666
    31bc:	66658593          	addi	a1,a1,1638 # 66666666 <absimm+0x21374137>
    31c0:	00b54633          	xor	a2,a0,a1
    31c4:	0ac6a823          	sw	a2,176(a3)

000031c8 <inst_575>:
    31c8:	aaaab537          	lui	a0,0xaaaab
    31cc:	aab50513          	addi	a0,a0,-1365 # aaaaaaab <absimm+0x657b857c>
    31d0:	ffff55b7          	lui	a1,0xffff5
    31d4:	afc58593          	addi	a1,a1,-1284 # ffff4afc <immx+0x452e702c>
    31d8:	00b54633          	xor	a2,a0,a1
    31dc:	0ac6aa23          	sw	a2,180(a3)

000031e0 <inst_576>:
    31e0:	aaaab537          	lui	a0,0xaaaab
    31e4:	aab50513          	addi	a0,a0,-1365 # aaaaaaab <absimm+0x657b857c>
    31e8:	0000b5b7          	lui	a1,0xb
    31ec:	50458593          	addi	a1,a1,1284 # b504 <_end+0x18fc>
    31f0:	00b54633          	xor	a2,a0,a1
    31f4:	0ac6ac23          	sw	a2,184(a3)

000031f8 <inst_577>:
    31f8:	aaaab537          	lui	a0,0xaaaab
    31fc:	aab50513          	addi	a0,a0,-1365 # aaaaaaab <absimm+0x657b857c>
    3200:	00200593          	addi	a1,zero,2
    3204:	00b54633          	xor	a2,a0,a1
    3208:	0ac6ae23          	sw	a2,188(a3)

0000320c <inst_578>:
    320c:	aaaab537          	lui	a0,0xaaaab
    3210:	aab50513          	addi	a0,a0,-1365 # aaaaaaab <absimm+0x657b857c>
    3214:	555555b7          	lui	a1,0x55555
    3218:	55458593          	addi	a1,a1,1364 # 55555554 <absimm+0x10263025>
    321c:	00b54633          	xor	a2,a0,a1
    3220:	0cc6a023          	sw	a2,192(a3)

00003224 <inst_579>:
    3224:	aaaab537          	lui	a0,0xaaaab
    3228:	aab50513          	addi	a0,a0,-1365 # aaaaaaab <absimm+0x657b857c>
    322c:	00000593          	addi	a1,zero,0
    3230:	00b54633          	xor	a2,a0,a1
    3234:	0cc6a223          	sw	a2,196(a3)

00003238 <inst_580>:
    3238:	aaaab537          	lui	a0,0xaaaab
    323c:	aab50513          	addi	a0,a0,-1365 # aaaaaaab <absimm+0x657b857c>
    3240:	00400593          	addi	a1,zero,4
    3244:	00b54633          	xor	a2,a0,a1
    3248:	0cc6a423          	sw	a2,200(a3)

0000324c <inst_581>:
    324c:	aaaab537          	lui	a0,0xaaaab
    3250:	aab50513          	addi	a0,a0,-1365 # aaaaaaab <absimm+0x657b857c>
    3254:	333335b7          	lui	a1,0x33333
    3258:	33258593          	addi	a1,a1,818 # 33333332 <_end+0x3332972a>
    325c:	00b54633          	xor	a2,a0,a1
    3260:	0cc6a623          	sw	a2,204(a3)

00003264 <inst_582>:
    3264:	aaaab537          	lui	a0,0xaaaab
    3268:	aab50513          	addi	a0,a0,-1365 # aaaaaaab <absimm+0x657b857c>
    326c:	666665b7          	lui	a1,0x66666
    3270:	66558593          	addi	a1,a1,1637 # 66666665 <absimm+0x21374136>
    3274:	00b54633          	xor	a2,a0,a1
    3278:	0cc6a823          	sw	a2,208(a3)

0000327c <inst_583>:
    327c:	aaaab537          	lui	a0,0xaaaab
    3280:	aab50513          	addi	a0,a0,-1365 # aaaaaaab <absimm+0x657b857c>
    3284:	0000b5b7          	lui	a1,0xb
    3288:	50358593          	addi	a1,a1,1283 # b503 <_end+0x18fb>
    328c:	00b54633          	xor	a2,a0,a1
    3290:	0cc6aa23          	sw	a2,212(a3)

00003294 <inst_584>:
    3294:	aaaab537          	lui	a0,0xaaaab
    3298:	aab50513          	addi	a0,a0,-1365 # aaaaaaab <absimm+0x657b857c>
    329c:	555555b7          	lui	a1,0x55555
    32a0:	55658593          	addi	a1,a1,1366 # 55555556 <absimm+0x10263027>
    32a4:	00b54633          	xor	a2,a0,a1
    32a8:	0cc6ac23          	sw	a2,216(a3)

000032ac <inst_585>:
    32ac:	ffffc537          	lui	a0,0xffffc
    32b0:	fff50513          	addi	a0,a0,-1 # ffffbfff <immx+0x452ee52f>
    32b4:	ffff05b7          	lui	a1,0xffff0
    32b8:	fff58593          	addi	a1,a1,-1 # fffeffff <immx+0x452e252f>
    32bc:	00b54633          	xor	a2,a0,a1
    32c0:	0cc6ae23          	sw	a2,220(a3)

000032c4 <inst_586>:
    32c4:	80000537          	lui	a0,0x80000
    32c8:	fff50513          	addi	a0,a0,-1 # 7fffffff <absimm+0x3ad0dad0>
    32cc:	000015b7          	lui	a1,0x1
    32d0:	00b54633          	xor	a2,a0,a1
    32d4:	0ec6a023          	sw	a2,224(a3)

000032d8 <inst_587>:
    32d8:	08000513          	addi	a0,zero,128
    32dc:	40000593          	addi	a1,zero,1024
    32e0:	00b54633          	xor	a2,a0,a1
    32e4:	0ec6a223          	sw	a2,228(a3)

000032e8 <cleanup_epilogs>:
    32e8:	0200006f          	jal	zero,3308 <exit_cleanup>

000032ec <abort_tests>:
    32ec:	17812483          	lw	s1,376(sp)
    32f0:	18012303          	lw	t1,384(sp)
    32f4:	00930333          	add	t1,t1,s1
    32f8:	bad0e337          	lui	t1,0xbad0e
    32fc:	ad030313          	addi	t1,t1,-1328 # bad0dad0 <immx>
    3300:	fe64ae23          	sw	t1,-4(s1)
    3304:	0040006f          	jal	zero,3308 <exit_cleanup>

00003308 <exit_cleanup>:
    3308:	00006517          	auipc	a0,0x6
    330c:	e0850513          	addi	a0,a0,-504 # 9110 <begin_signature>
    3310:	00006597          	auipc	a1,0x6
    3314:	74058593          	addi	a1,a1,1856 # 9a50 <end_signature>
    3318:	00008637          	lui	a2,0x8
    331c:	00460613          	addi	a2,a2,4 # 8004 <rvtest_data_begin+0x4>

00003320 <sig_dump_loop>:
    3320:	00052283          	lw	t0,0(a0)
    3324:	00562023          	sw	t0,0(a2)
    3328:	00450513          	addi	a0,a0,4
    332c:	00b55463          	bge	a0,a1,3334 <end_sim>
    3330:	ff1ff06f          	jal	zero,3320 <sig_dump_loop>

00003334 <end_sim>:
    3334:	00008537          	lui	a0,0x8
    3338:	00850513          	addi	a0,a0,8 # 8008 <rvtest_data_begin+0x8>
    333c:	cafed5b7          	lui	a1,0xcafed
    3340:	afe58593          	addi	a1,a1,-1282 # cafecafe <immx+0x102df02e>
    3344:	00b52023          	sw	a1,0(a0)
    3348:	fedff06f          	jal	zero,3334 <end_sim>
	...
