
my.elf:     file format elf32-littleriscv


Disassembly of section .text.init:

00000000 <rvtest_entry_point>:
       0:	7d5c0837          	lui	a6,0x7d5c0
       4:	ddb80813          	addi	a6,a6,-549 # 7d5bfddb <absimm+0x382cd8ac>
       8:	00785893          	srli	a7,a6,0x7
       c:	01985793          	srli	a5,a6,0x19
      10:	00f8e8b3          	or	a7,a7,a5
      14:	0078d913          	srli	s2,a7,0x7
      18:	0198d793          	srli	a5,a7,0x19
      1c:	00f96933          	or	s2,s2,a5
      20:	00795993          	srli	s3,s2,0x7
      24:	01995793          	srli	a5,s2,0x19
      28:	00f9e9b3          	or	s3,s3,a5
      2c:	0079da13          	srli	s4,s3,0x7
      30:	0199d793          	srli	a5,s3,0x19
      34:	00fa6a33          	or	s4,s4,a5
      38:	007a5a93          	srli	s5,s4,0x7
      3c:	019a5793          	srli	a5,s4,0x19
      40:	00faeab3          	or	s5,s5,a5
      44:	007adb13          	srli	s6,s5,0x7
      48:	019ad793          	srli	a5,s5,0x19
      4c:	00fb6b33          	or	s6,s6,a5
      50:	007b5b93          	srli	s7,s6,0x7
      54:	019b5793          	srli	a5,s6,0x19
      58:	00fbebb3          	or	s7,s7,a5
      5c:	007bdc13          	srli	s8,s7,0x7
      60:	019bd793          	srli	a5,s7,0x19
      64:	00fc6c33          	or	s8,s8,a5
      68:	007c5c93          	srli	s9,s8,0x7
      6c:	019c5793          	srli	a5,s8,0x19
      70:	00fcecb3          	or	s9,s9,a5
      74:	007cdd13          	srli	s10,s9,0x7
      78:	019cd793          	srli	a5,s9,0x19
      7c:	00fd6d33          	or	s10,s10,a5
      80:	007d5d93          	srli	s11,s10,0x7
      84:	019d5793          	srli	a5,s10,0x19
      88:	00fdedb3          	or	s11,s11,a5
      8c:	007dde13          	srli	t3,s11,0x7
      90:	019dd793          	srli	a5,s11,0x19
      94:	00fe6e33          	or	t3,t3,a5
      98:	007e5e93          	srli	t4,t3,0x7
      9c:	019e5793          	srli	a5,t3,0x19
      a0:	00feeeb3          	or	t4,t4,a5
      a4:	007edf13          	srli	t5,t4,0x7
      a8:	019ed793          	srli	a5,t4,0x19
      ac:	00ff6f33          	or	t5,t5,a5
      b0:	feedc0b7          	lui	ra,0xfeedc
      b4:	ead08093          	addi	ra,ra,-339 # feedbead <immx+0x441ce3dd>
      b8:	0070d113          	srli	sp,ra,0x7
      bc:	0190d793          	srli	a5,ra,0x19
      c0:	00f16133          	or	sp,sp,a5
      c4:	00715193          	srli	gp,sp,0x7
      c8:	01915793          	srli	a5,sp,0x19
      cc:	00f1e1b3          	or	gp,gp,a5
      d0:	0071d213          	srli	tp,gp,0x7
      d4:	0191d793          	srli	a5,gp,0x19
      d8:	00f26233          	or	tp,tp,a5
      dc:	00725293          	srli	t0,tp,0x7
      e0:	01925793          	srli	a5,tp,0x19
      e4:	00f2e2b3          	or	t0,t0,a5
      e8:	0072d313          	srli	t1,t0,0x7
      ec:	0192d793          	srli	a5,t0,0x19
      f0:	00f36333          	or	t1,t1,a5
      f4:	00735393          	srli	t2,t1,0x7
      f8:	01935793          	srli	a5,t1,0x19
      fc:	00f3e3b3          	or	t2,t2,a5
     100:	0073d413          	srli	s0,t2,0x7
     104:	0193d793          	srli	a5,t2,0x19
     108:	00f46433          	or	s0,s0,a5
     10c:	00745493          	srli	s1,s0,0x7
     110:	01945793          	srli	a5,s0,0x19
     114:	00f4e4b3          	or	s1,s1,a5
     118:	0074d513          	srli	a0,s1,0x7
     11c:	0194d793          	srli	a5,s1,0x19
     120:	00f56533          	or	a0,a0,a5
     124:	00755593          	srli	a1,a0,0x7
     128:	01955793          	srli	a5,a0,0x19
     12c:	00f5e5b3          	or	a1,a1,a5
     130:	0075d613          	srli	a2,a1,0x7
     134:	0195d793          	srli	a5,a1,0x19
     138:	00f66633          	or	a2,a2,a5
     13c:	00765693          	srli	a3,a2,0x7
     140:	01965793          	srli	a5,a2,0x19
     144:	00f6e6b3          	or	a3,a3,a5

00000148 <rvtest_code_begin>:
     148:	00000013          	addi	zero,zero,0
     14c:	00000013          	addi	zero,zero,0
     150:	00000013          	addi	zero,zero,0
     154:	00000013          	addi	zero,zero,0
     158:	00000013          	addi	zero,zero,0
     15c:	00000013          	addi	zero,zero,0
     160:	00009717          	auipc	a4,0x9
     164:	fb470713          	addi	a4,a4,-76 # 9114 <signature_x14_0>
     168:	00000013          	addi	zero,zero,0
     16c:	00000013          	addi	zero,zero,0
     170:	00000013          	addi	zero,zero,0
     174:	00000013          	addi	zero,zero,0
     178:	00000013          	addi	zero,zero,0
     17c:	00000013          	addi	zero,zero,0

00000180 <inst_0>:
     180:	20000a37          	lui	s4,0x20000
     184:	800a0393          	addi	t2,s4,-2048 # 1ffff800 <_end+0x1fff5cf8>
     188:	00772023          	sw	t2,0(a4)

0000018c <inst_1>:
     18c:	40000193          	addi	gp,zero,1024
     190:	00018193          	addi	gp,gp,0
     194:	00372223          	sw	gp,4(a4)

00000198 <inst_2>:
     198:	dff00213          	addi	tp,zero,-513
     19c:	7ff20b13          	addi	s6,tp,2047 # 7ff <inst_118+0x7>
     1a0:	01672423          	sw	s6,8(a4)

000001a4 <inst_3>:
     1a4:	00000f13          	addi	t5,zero,0
     1a8:	001f0593          	addi	a1,t5,1
     1ac:	00b72623          	sw	a1,12(a4)

000001b0 <inst_4>:
     1b0:	80000db7          	lui	s11,0x80000
     1b4:	010d8f93          	addi	t6,s11,16 # 80000010 <absimm+0x3ad0dae1>
     1b8:	01f72823          	sw	t6,16(a4)

000001bc <inst_5>:
     1bc:	800008b7          	lui	a7,0x80000
     1c0:	fff88893          	addi	a7,a7,-1 # 7fffffff <absimm+0x3ad0dad0>
     1c4:	00688f13          	addi	t5,a7,6
     1c8:	01e72a23          	sw	t5,20(a4)

000001cc <inst_6>:
     1cc:	00100913          	addi	s2,zero,1
     1d0:	00490e13          	addi	t3,s2,4
     1d4:	01c72c23          	sw	t3,24(a4)

000001d8 <inst_7>:
     1d8:	00500693          	addi	a3,zero,5
     1dc:	00568313          	addi	t1,a3,5
     1e0:	00672e23          	sw	t1,28(a4)

000001e4 <inst_8>:
     1e4:	aaaab537          	lui	a0,0xaaaab
     1e8:	aab50513          	addi	a0,a0,-1365 # aaaaaaab <absimm+0x657b857c>
     1ec:	fdf50813          	addi	a6,a0,-33
     1f0:	03072023          	sw	a6,32(a4)

000001f4 <inst_9>:
     1f4:	fef00493          	addi	s1,zero,-17
     1f8:	00248a93          	addi	s5,s1,2
     1fc:	03572223          	sw	s5,36(a4)

00000200 <inst_10>:
     200:	0000b3b7          	lui	t2,0xb
     204:	50538393          	addi	t2,t2,1285 # b505 <_end+0x19fd>
     208:	00838113          	addi	sp,t2,8
     20c:	02272423          	sw	sp,40(a4)

00000210 <inst_11>:
     210:	ffff5b37          	lui	s6,0xffff5
     214:	afcb0b13          	addi	s6,s6,-1284 # ffff4afc <immx+0x452e702c>
     218:	020b0913          	addi	s2,s6,32
     21c:	03272623          	sw	s2,44(a4)

00000220 <inst_12>:
     220:	ffe00eb7          	lui	t4,0xffe00
     224:	fffe8e93          	addi	t4,t4,-1 # ffdfffff <immx+0x450f252f>
     228:	040e8013          	addi	zero,t4,64
     22c:	02072823          	sw	zero,48(a4)

00000230 <inst_13>:
     230:	00500c93          	addi	s9,zero,5
     234:	080c8693          	addi	a3,s9,128
     238:	02d72a23          	sw	a3,52(a4)

0000023c <inst_14>:
     23c:	fe0005b7          	lui	a1,0xfe000
     240:	fff58593          	addi	a1,a1,-1 # fdffffff <immx+0x432f252f>
     244:	10058e93          	addi	t4,a1,256
     248:	03d72c23          	sw	t4,56(a4)

0000024c <inst_15>:
     24c:	01000313          	addi	t1,zero,16
     250:	20030413          	addi	s0,t1,512
     254:	02872e23          	sw	s0,60(a4)

00000258 <inst_16>:
     258:	00200993          	addi	s3,zero,2
     25c:	40098213          	addi	tp,s3,1024
     260:	04472023          	sw	tp,64(a4)

00000264 <inst_17>:
     264:	55555637          	lui	a2,0x55555
     268:	55460613          	addi	a2,a2,1364 # 55555554 <absimm+0x10263025>
     26c:	ffe60513          	addi	a0,a2,-2
     270:	04a72223          	sw	a0,68(a4)

00000274 <inst_18>:
     274:	55555fb7          	lui	t6,0x55555
     278:	555f8f93          	addi	t6,t6,1365 # 55555555 <absimm+0x10263026>
     27c:	ffdf8d13          	addi	s10,t6,-3
     280:	05a72423          	sw	s10,72(a4)

00000284 <inst_19>:
     284:	55555d37          	lui	s10,0x55555
     288:	554d0d13          	addi	s10,s10,1364 # 55555554 <absimm+0x10263025>
     28c:	ffbd0793          	addi	a5,s10,-5
     290:	04f72623          	sw	a5,76(a4)

00000294 <inst_20>:
     294:	00300293          	addi	t0,zero,3
     298:	ff728993          	addi	s3,t0,-9
     29c:	05372823          	sw	s3,80(a4)

000002a0 <inst_21>:
     2a0:	00000013          	addi	zero,zero,0
     2a4:	fef00093          	addi	ra,zero,-17
     2a8:	04172a23          	sw	ra,84(a4)
     2ac:	00000013          	addi	zero,zero,0
     2b0:	00000013          	addi	zero,zero,0
     2b4:	00000013          	addi	zero,zero,0
     2b8:	00000013          	addi	zero,zero,0
     2bc:	00000013          	addi	zero,zero,0
     2c0:	00009197          	auipc	gp,0x9
     2c4:	eac18193          	addi	gp,gp,-340 # 916c <signature_x3_0>
     2c8:	00000013          	addi	zero,zero,0
     2cc:	00000013          	addi	zero,zero,0
     2d0:	00000013          	addi	zero,zero,0
     2d4:	00000013          	addi	zero,zero,0
     2d8:	00000013          	addi	zero,zero,0
     2dc:	00000013          	addi	zero,zero,0

000002e0 <inst_22>:
     2e0:	00800c37          	lui	s8,0x800
     2e4:	fbfc0b93          	addi	s7,s8,-65 # 7fffbf <_end+0x7f64b7>
     2e8:	0171a023          	sw	s7,0(gp)

000002ec <inst_23>:
     2ec:	fef00793          	addi	a5,zero,-17
     2f0:	f7f78d93          	addi	s11,a5,-129
     2f4:	01b1a223          	sw	s11,4(gp)

000002f8 <inst_24>:
     2f8:	55555737          	lui	a4,0x55555
     2fc:	55570713          	addi	a4,a4,1365 # 55555555 <absimm+0x10263026>
     300:	eff70893          	addi	a7,a4,-257
     304:	0111a423          	sw	a7,8(gp)

00000308 <inst_25>:
     308:	55555ab7          	lui	s5,0x55555
     30c:	556a8a93          	addi	s5,s5,1366 # 55555556 <absimm+0x10263027>
     310:	dffa8c93          	addi	s9,s5,-513
     314:	0191a623          	sw	s9,12(gp)

00000318 <inst_26>:
     318:	000020b7          	lui	ra,0x2
     31c:	bff08c13          	addi	s8,ra,-1025 # 1bff <inst_459+0xb>
     320:	0181a823          	sw	s8,16(gp)

00000324 <inst_27>:
     324:	aaaab837          	lui	a6,0xaaaab
     328:	aaa80813          	addi	a6,a6,-1366 # aaaaaaaa <absimm+0x657b857b>
     32c:	55580613          	addi	a2,a6,1365
     330:	00c1aa23          	sw	a2,20(gp)

00000334 <inst_28>:
     334:	00000113          	addi	sp,zero,0
     338:	aaa10713          	addi	a4,sp,-1366
     33c:	00e1ac23          	sw	a4,24(gp)

00000340 <inst_29>:
     340:	00400b93          	addi	s7,zero,4
     344:	004b8a13          	addi	s4,s7,4
     348:	0141ae23          	sw	s4,28(gp)

0000034c <inst_30>:
     34c:	00800e13          	addi	t3,zero,8
     350:	010e0293          	addi	t0,t3,16
     354:	0251a023          	sw	t0,32(gp)

00000358 <inst_31>:
     358:	02000413          	addi	s0,zero,32
     35c:	fd440493          	addi	s1,s0,-44
     360:	0291a223          	sw	s1,36(gp)

00000364 <inst_32>:
     364:	04000513          	addi	a0,zero,64
     368:	fbf50593          	addi	a1,a0,-65
     36c:	02b1a423          	sw	a1,40(gp)

00000370 <inst_33>:
     370:	08000513          	addi	a0,zero,128
     374:	00550593          	addi	a1,a0,5
     378:	02b1a623          	sw	a1,44(gp)

0000037c <inst_34>:
     37c:	10000513          	addi	a0,zero,256
     380:	c0050593          	addi	a1,a0,-1024
     384:	02b1a823          	sw	a1,48(gp)

00000388 <inst_35>:
     388:	20000513          	addi	a0,zero,512
     38c:	10050593          	addi	a1,a0,256
     390:	02b1aa23          	sw	a1,52(gp)

00000394 <inst_36>:
     394:	00001537          	lui	a0,0x1
     398:	80050513          	addi	a0,a0,-2048 # 800 <inst_118+0x8>
     39c:	ff650593          	addi	a1,a0,-10
     3a0:	02b1ac23          	sw	a1,56(gp)

000003a4 <inst_37>:
     3a4:	00001537          	lui	a0,0x1
     3a8:	04050593          	addi	a1,a0,64 # 1040 <inst_256+0x4>
     3ac:	02b1ae23          	sw	a1,60(gp)

000003b0 <inst_38>:
     3b0:	00004537          	lui	a0,0x4
     3b4:	33250593          	addi	a1,a0,818 # 4332 <end_sim+0x20ae>
     3b8:	04b1a023          	sw	a1,64(gp)

000003bc <inst_39>:
     3bc:	00008537          	lui	a0,0x8
     3c0:	c0050593          	addi	a1,a0,-1024 # 7c00 <end_sim+0x597c>
     3c4:	04b1a223          	sw	a1,68(gp)

000003c8 <inst_40>:
     3c8:	00010537          	lui	a0,0x10
     3cc:	eff50593          	addi	a1,a0,-257 # feff <_end+0x63f7>
     3d0:	04b1a423          	sw	a1,72(gp)

000003d4 <inst_41>:
     3d4:	00020537          	lui	a0,0x20
     3d8:	00450593          	addi	a1,a0,4 # 20004 <_end+0x164fc>
     3dc:	04b1a623          	sw	a1,76(gp)

000003e0 <inst_42>:
     3e0:	00040537          	lui	a0,0x40
     3e4:	00050593          	addi	a1,a0,0 # 40000 <_end+0x364f8>
     3e8:	04b1a823          	sw	a1,80(gp)

000003ec <inst_43>:
     3ec:	00080537          	lui	a0,0x80
     3f0:	00550593          	addi	a1,a0,5 # 80005 <_end+0x764fd>
     3f4:	04b1aa23          	sw	a1,84(gp)

000003f8 <inst_44>:
     3f8:	00100537          	lui	a0,0x100
     3fc:	02c50593          	addi	a1,a0,44 # 10002c <_end+0xf6524>
     400:	04b1ac23          	sw	a1,88(gp)

00000404 <inst_45>:
     404:	00200537          	lui	a0,0x200
     408:	ffc50593          	addi	a1,a0,-4 # 1ffffc <_end+0x1f64f4>
     40c:	04b1ae23          	sw	a1,92(gp)

00000410 <inst_46>:
     410:	00400537          	lui	a0,0x400
     414:	02e50593          	addi	a1,a0,46 # 40002e <_end+0x3f6526>
     418:	06b1a023          	sw	a1,96(gp)

0000041c <inst_47>:
     41c:	01000537          	lui	a0,0x1000
     420:	c0050593          	addi	a1,a0,-1024 # fffc00 <_end+0xff60f8>
     424:	06b1a223          	sw	a1,100(gp)

00000428 <inst_48>:
     428:	02000537          	lui	a0,0x2000
     42c:	fef50593          	addi	a1,a0,-17 # 1ffffef <_end+0x1ff64e7>
     430:	06b1a423          	sw	a1,104(gp)

00000434 <inst_49>:
     434:	04000537          	lui	a0,0x4000
     438:	ffe50593          	addi	a1,a0,-2 # 3fffffe <_end+0x3ff64f6>
     43c:	06b1a623          	sw	a1,108(gp)

00000440 <inst_50>:
     440:	08000537          	lui	a0,0x8000
     444:	00350593          	addi	a1,a0,3 # 8000003 <_end+0x7ff64fb>
     448:	06b1a823          	sw	a1,112(gp)

0000044c <inst_51>:
     44c:	10000537          	lui	a0,0x10000
     450:	f7f50593          	addi	a1,a0,-129 # fffff7f <_end+0xfff6477>
     454:	06b1aa23          	sw	a1,116(gp)

00000458 <inst_52>:
     458:	40000537          	lui	a0,0x40000
     45c:	ffe50593          	addi	a1,a0,-2 # 3ffffffe <_end+0x3fff64f6>
     460:	06b1ac23          	sw	a1,120(gp)

00000464 <inst_53>:
     464:	ffe00513          	addi	a0,zero,-2
     468:	dff50593          	addi	a1,a0,-513
     46c:	06b1ae23          	sw	a1,124(gp)

00000470 <inst_54>:
     470:	ffd00513          	addi	a0,zero,-3
     474:	ff750593          	addi	a1,a0,-9
     478:	08b1a023          	sw	a1,128(gp)

0000047c <inst_55>:
     47c:	ffb00513          	addi	a0,zero,-5
     480:	fd350593          	addi	a1,a0,-45
     484:	08b1a223          	sw	a1,132(gp)

00000488 <inst_56>:
     488:	ff700513          	addi	a0,zero,-9
     48c:	33450593          	addi	a1,a0,820
     490:	08b1a423          	sw	a1,136(gp)

00000494 <inst_57>:
     494:	fdf00513          	addi	a0,zero,-33
     498:	ffb50593          	addi	a1,a0,-5
     49c:	08b1a623          	sw	a1,140(gp)

000004a0 <inst_58>:
     4a0:	fbf00513          	addi	a0,zero,-65
     4a4:	ff750593          	addi	a1,a0,-9
     4a8:	08b1a823          	sw	a1,144(gp)

000004ac <inst_59>:
     4ac:	f7f00513          	addi	a0,zero,-129
     4b0:	fef50593          	addi	a1,a0,-17
     4b4:	08b1aa23          	sw	a1,148(gp)

000004b8 <inst_60>:
     4b8:	eff00513          	addi	a0,zero,-257
     4bc:	20050593          	addi	a1,a0,512
     4c0:	08b1ac23          	sw	a1,152(gp)

000004c4 <inst_61>:
     4c4:	bff00513          	addi	a0,zero,-1025
     4c8:	fd450593          	addi	a1,a0,-44
     4cc:	08b1ae23          	sw	a1,156(gp)

000004d0 <inst_62>:
     4d0:	fffff537          	lui	a0,0xfffff
     4d4:	7ff50513          	addi	a0,a0,2047 # fffff7ff <immx+0x452f1d2f>
     4d8:	00450593          	addi	a1,a0,4
     4dc:	0ab1a023          	sw	a1,160(gp)

000004e0 <inst_63>:
     4e0:	fffff537          	lui	a0,0xfffff
     4e4:	fff50513          	addi	a0,a0,-1 # ffffefff <immx+0x452f152f>
     4e8:	00850593          	addi	a1,a0,8
     4ec:	0ab1a223          	sw	a1,164(gp)

000004f0 <inst_64>:
     4f0:	ffffe537          	lui	a0,0xffffe
     4f4:	fff50513          	addi	a0,a0,-1 # ffffdfff <immx+0x452f052f>
     4f8:	dff50593          	addi	a1,a0,-513
     4fc:	0ab1a423          	sw	a1,168(gp)

00000500 <inst_65>:
     500:	ffffc537          	lui	a0,0xffffc
     504:	fff50513          	addi	a0,a0,-1 # ffffbfff <immx+0x452ee52f>
     508:	40050593          	addi	a1,a0,1024
     50c:	0ab1a623          	sw	a1,172(gp)

00000510 <inst_66>:
     510:	ffff8537          	lui	a0,0xffff8
     514:	fff50513          	addi	a0,a0,-1 # ffff7fff <immx+0x452ea52f>
     518:	aaa50593          	addi	a1,a0,-1366
     51c:	0ab1a823          	sw	a1,176(gp)

00000520 <inst_67>:
     520:	ffff0537          	lui	a0,0xffff0
     524:	fff50513          	addi	a0,a0,-1 # fffeffff <immx+0x452e252f>
     528:	00750593          	addi	a1,a0,7
     52c:	0ab1aa23          	sw	a1,180(gp)

00000530 <inst_68>:
     530:	fffe0537          	lui	a0,0xfffe0
     534:	fff50513          	addi	a0,a0,-1 # fffdffff <immx+0x452d252f>
     538:	08050593          	addi	a1,a0,128
     53c:	0ab1ac23          	sw	a1,184(gp)

00000540 <inst_69>:
     540:	fffc0537          	lui	a0,0xfffc0
     544:	fff50513          	addi	a0,a0,-1 # fffbffff <immx+0x452b252f>
     548:	00850593          	addi	a1,a0,8
     54c:	0ab1ae23          	sw	a1,188(gp)

00000550 <inst_70>:
     550:	fff80537          	lui	a0,0xfff80
     554:	fff50513          	addi	a0,a0,-1 # fff7ffff <immx+0x4527252f>
     558:	80050593          	addi	a1,a0,-2048
     55c:	0cb1a023          	sw	a1,192(gp)

00000560 <inst_71>:
     560:	fff00537          	lui	a0,0xfff00
     564:	fff50513          	addi	a0,a0,-1 # ffefffff <immx+0x451f252f>
     568:	fdf50593          	addi	a1,a0,-33
     56c:	0cb1a223          	sw	a1,196(gp)

00000570 <inst_72>:
     570:	ffc00537          	lui	a0,0xffc00
     574:	fff50513          	addi	a0,a0,-1 # ffbfffff <immx+0x44ef252f>
     578:	55450593          	addi	a1,a0,1364
     57c:	0cb1a423          	sw	a1,200(gp)

00000580 <inst_73>:
     580:	ff800537          	lui	a0,0xff800
     584:	fff50513          	addi	a0,a0,-1 # ff7fffff <immx+0x44af252f>
     588:	ff650593          	addi	a1,a0,-10
     58c:	0cb1a623          	sw	a1,204(gp)

00000590 <inst_74>:
     590:	ff000537          	lui	a0,0xff000
     594:	fff50513          	addi	a0,a0,-1 # feffffff <immx+0x442f252f>
     598:	02c50593          	addi	a1,a0,44
     59c:	0cb1a823          	sw	a1,208(gp)

000005a0 <inst_75>:
     5a0:	fc000537          	lui	a0,0xfc000
     5a4:	fff50513          	addi	a0,a0,-1 # fbffffff <immx+0x412f252f>
     5a8:	00650593          	addi	a1,a0,6
     5ac:	0cb1aa23          	sw	a1,212(gp)

000005b0 <inst_76>:
     5b0:	f8000537          	lui	a0,0xf8000
     5b4:	fff50513          	addi	a0,a0,-1 # f7ffffff <immx+0x3d2f252f>
     5b8:	66650593          	addi	a1,a0,1638
     5bc:	0cb1ac23          	sw	a1,216(gp)

000005c0 <inst_77>:
     5c0:	f0000537          	lui	a0,0xf0000
     5c4:	fff50513          	addi	a0,a0,-1 # efffffff <immx+0x352f252f>
     5c8:	02e50593          	addi	a1,a0,46
     5cc:	0cb1ae23          	sw	a1,220(gp)

000005d0 <inst_78>:
     5d0:	e0000537          	lui	a0,0xe0000
     5d4:	fff50513          	addi	a0,a0,-1 # dfffffff <immx+0x252f252f>
     5d8:	00350593          	addi	a1,a0,3
     5dc:	0eb1a023          	sw	a1,224(gp)

000005e0 <inst_79>:
     5e0:	c0000537          	lui	a0,0xc0000
     5e4:	fff50513          	addi	a0,a0,-1 # bfffffff <immx+0x52f252f>
     5e8:	66650593          	addi	a1,a0,1638
     5ec:	0eb1a223          	sw	a1,228(gp)

000005f0 <inst_80>:
     5f0:	00300513          	addi	a0,zero,3
     5f4:	00350593          	addi	a1,a0,3
     5f8:	0eb1a423          	sw	a1,232(gp)

000005fc <inst_81>:
     5fc:	00300513          	addi	a0,zero,3
     600:	55550593          	addi	a1,a0,1365
     604:	0eb1a623          	sw	a1,236(gp)

00000608 <inst_82>:
     608:	00300513          	addi	a0,zero,3
     60c:	aaa50593          	addi	a1,a0,-1366
     610:	0eb1a823          	sw	a1,240(gp)

00000614 <inst_83>:
     614:	00300513          	addi	a0,zero,3
     618:	00550593          	addi	a1,a0,5
     61c:	0eb1aa23          	sw	a1,244(gp)

00000620 <inst_84>:
     620:	00300513          	addi	a0,zero,3
     624:	33350593          	addi	a1,a0,819
     628:	0eb1ac23          	sw	a1,248(gp)

0000062c <inst_85>:
     62c:	00300513          	addi	a0,zero,3
     630:	66650593          	addi	a1,a0,1638
     634:	0eb1ae23          	sw	a1,252(gp)

00000638 <inst_86>:
     638:	00300513          	addi	a0,zero,3
     63c:	fd350593          	addi	a1,a0,-45
     640:	10b1a023          	sw	a1,256(gp)

00000644 <inst_87>:
     644:	00300513          	addi	a0,zero,3
     648:	02d50593          	addi	a1,a0,45
     64c:	10b1a223          	sw	a1,260(gp)

00000650 <inst_88>:
     650:	00300513          	addi	a0,zero,3
     654:	00250593          	addi	a1,a0,2
     658:	10b1a423          	sw	a1,264(gp)

0000065c <inst_89>:
     65c:	00300513          	addi	a0,zero,3
     660:	55450593          	addi	a1,a0,1364
     664:	10b1a623          	sw	a1,268(gp)

00000668 <inst_90>:
     668:	00300513          	addi	a0,zero,3
     66c:	00050593          	addi	a1,a0,0
     670:	10b1a823          	sw	a1,272(gp)

00000674 <inst_91>:
     674:	00300513          	addi	a0,zero,3
     678:	00450593          	addi	a1,a0,4
     67c:	10b1aa23          	sw	a1,276(gp)

00000680 <inst_92>:
     680:	00300513          	addi	a0,zero,3
     684:	33250593          	addi	a1,a0,818
     688:	10b1ac23          	sw	a1,280(gp)

0000068c <inst_93>:
     68c:	00300513          	addi	a0,zero,3
     690:	66550593          	addi	a1,a0,1637
     694:	10b1ae23          	sw	a1,284(gp)

00000698 <inst_94>:
     698:	00300513          	addi	a0,zero,3
     69c:	02c50593          	addi	a1,a0,44
     6a0:	12b1a023          	sw	a1,288(gp)

000006a4 <inst_95>:
     6a4:	00300513          	addi	a0,zero,3
     6a8:	55650593          	addi	a1,a0,1366
     6ac:	12b1a223          	sw	a1,292(gp)

000006b0 <inst_96>:
     6b0:	00300513          	addi	a0,zero,3
     6b4:	aab50593          	addi	a1,a0,-1365
     6b8:	12b1a423          	sw	a1,296(gp)

000006bc <inst_97>:
     6bc:	00300513          	addi	a0,zero,3
     6c0:	00650593          	addi	a1,a0,6
     6c4:	12b1a623          	sw	a1,300(gp)

000006c8 <inst_98>:
     6c8:	00300513          	addi	a0,zero,3
     6cc:	33450593          	addi	a1,a0,820
     6d0:	12b1a823          	sw	a1,304(gp)

000006d4 <inst_99>:
     6d4:	00300513          	addi	a0,zero,3
     6d8:	66750593          	addi	a1,a0,1639
     6dc:	12b1aa23          	sw	a1,308(gp)

000006e0 <inst_100>:
     6e0:	00300513          	addi	a0,zero,3
     6e4:	fd450593          	addi	a1,a0,-44
     6e8:	12b1ac23          	sw	a1,312(gp)

000006ec <inst_101>:
     6ec:	00300513          	addi	a0,zero,3
     6f0:	02e50593          	addi	a1,a0,46
     6f4:	12b1ae23          	sw	a1,316(gp)

000006f8 <inst_102>:
     6f8:	55555537          	lui	a0,0x55555
     6fc:	55550513          	addi	a0,a0,1365 # 55555555 <absimm+0x10263026>
     700:	00350593          	addi	a1,a0,3
     704:	14b1a023          	sw	a1,320(gp)

00000708 <inst_103>:
     708:	55555537          	lui	a0,0x55555
     70c:	55550513          	addi	a0,a0,1365 # 55555555 <absimm+0x10263026>
     710:	55550593          	addi	a1,a0,1365
     714:	14b1a223          	sw	a1,324(gp)

00000718 <inst_104>:
     718:	55555537          	lui	a0,0x55555
     71c:	55550513          	addi	a0,a0,1365 # 55555555 <absimm+0x10263026>
     720:	aaa50593          	addi	a1,a0,-1366
     724:	14b1a423          	sw	a1,328(gp)

00000728 <inst_105>:
     728:	55555537          	lui	a0,0x55555
     72c:	55550513          	addi	a0,a0,1365 # 55555555 <absimm+0x10263026>
     730:	00550593          	addi	a1,a0,5
     734:	14b1a623          	sw	a1,332(gp)

00000738 <inst_106>:
     738:	55555537          	lui	a0,0x55555
     73c:	55550513          	addi	a0,a0,1365 # 55555555 <absimm+0x10263026>
     740:	33350593          	addi	a1,a0,819
     744:	14b1a823          	sw	a1,336(gp)

00000748 <inst_107>:
     748:	55555537          	lui	a0,0x55555
     74c:	55550513          	addi	a0,a0,1365 # 55555555 <absimm+0x10263026>
     750:	66650593          	addi	a1,a0,1638
     754:	14b1aa23          	sw	a1,340(gp)

00000758 <inst_108>:
     758:	55555537          	lui	a0,0x55555
     75c:	55550513          	addi	a0,a0,1365 # 55555555 <absimm+0x10263026>
     760:	fd350593          	addi	a1,a0,-45
     764:	14b1ac23          	sw	a1,344(gp)

00000768 <inst_109>:
     768:	55555537          	lui	a0,0x55555
     76c:	55550513          	addi	a0,a0,1365 # 55555555 <absimm+0x10263026>
     770:	02d50593          	addi	a1,a0,45
     774:	14b1ae23          	sw	a1,348(gp)

00000778 <inst_110>:
     778:	55555537          	lui	a0,0x55555
     77c:	55550513          	addi	a0,a0,1365 # 55555555 <absimm+0x10263026>
     780:	00250593          	addi	a1,a0,2
     784:	16b1a023          	sw	a1,352(gp)

00000788 <inst_111>:
     788:	55555537          	lui	a0,0x55555
     78c:	55550513          	addi	a0,a0,1365 # 55555555 <absimm+0x10263026>
     790:	55450593          	addi	a1,a0,1364
     794:	16b1a223          	sw	a1,356(gp)

00000798 <inst_112>:
     798:	55555537          	lui	a0,0x55555
     79c:	55550513          	addi	a0,a0,1365 # 55555555 <absimm+0x10263026>
     7a0:	00050593          	addi	a1,a0,0
     7a4:	16b1a423          	sw	a1,360(gp)

000007a8 <inst_113>:
     7a8:	55555537          	lui	a0,0x55555
     7ac:	55550513          	addi	a0,a0,1365 # 55555555 <absimm+0x10263026>
     7b0:	00450593          	addi	a1,a0,4
     7b4:	16b1a623          	sw	a1,364(gp)

000007b8 <inst_114>:
     7b8:	55555537          	lui	a0,0x55555
     7bc:	55550513          	addi	a0,a0,1365 # 55555555 <absimm+0x10263026>
     7c0:	33250593          	addi	a1,a0,818
     7c4:	16b1a823          	sw	a1,368(gp)

000007c8 <inst_115>:
     7c8:	55555537          	lui	a0,0x55555
     7cc:	55550513          	addi	a0,a0,1365 # 55555555 <absimm+0x10263026>
     7d0:	66550593          	addi	a1,a0,1637
     7d4:	16b1aa23          	sw	a1,372(gp)

000007d8 <inst_116>:
     7d8:	55555537          	lui	a0,0x55555
     7dc:	55550513          	addi	a0,a0,1365 # 55555555 <absimm+0x10263026>
     7e0:	02c50593          	addi	a1,a0,44
     7e4:	16b1ac23          	sw	a1,376(gp)

000007e8 <inst_117>:
     7e8:	55555537          	lui	a0,0x55555
     7ec:	55550513          	addi	a0,a0,1365 # 55555555 <absimm+0x10263026>
     7f0:	55650593          	addi	a1,a0,1366
     7f4:	16b1ae23          	sw	a1,380(gp)

000007f8 <inst_118>:
     7f8:	55555537          	lui	a0,0x55555
     7fc:	55550513          	addi	a0,a0,1365 # 55555555 <absimm+0x10263026>
     800:	aab50593          	addi	a1,a0,-1365
     804:	18b1a023          	sw	a1,384(gp)

00000808 <inst_119>:
     808:	55555537          	lui	a0,0x55555
     80c:	55550513          	addi	a0,a0,1365 # 55555555 <absimm+0x10263026>
     810:	00650593          	addi	a1,a0,6
     814:	18b1a223          	sw	a1,388(gp)

00000818 <inst_120>:
     818:	55555537          	lui	a0,0x55555
     81c:	55550513          	addi	a0,a0,1365 # 55555555 <absimm+0x10263026>
     820:	33450593          	addi	a1,a0,820
     824:	18b1a423          	sw	a1,392(gp)

00000828 <inst_121>:
     828:	55555537          	lui	a0,0x55555
     82c:	55550513          	addi	a0,a0,1365 # 55555555 <absimm+0x10263026>
     830:	66750593          	addi	a1,a0,1639
     834:	18b1a623          	sw	a1,396(gp)

00000838 <inst_122>:
     838:	55555537          	lui	a0,0x55555
     83c:	55550513          	addi	a0,a0,1365 # 55555555 <absimm+0x10263026>
     840:	fd450593          	addi	a1,a0,-44
     844:	18b1a823          	sw	a1,400(gp)

00000848 <inst_123>:
     848:	55555537          	lui	a0,0x55555
     84c:	55550513          	addi	a0,a0,1365 # 55555555 <absimm+0x10263026>
     850:	02e50593          	addi	a1,a0,46
     854:	18b1aa23          	sw	a1,404(gp)

00000858 <inst_124>:
     858:	aaaab537          	lui	a0,0xaaaab
     85c:	aaa50513          	addi	a0,a0,-1366 # aaaaaaaa <absimm+0x657b857b>
     860:	00350593          	addi	a1,a0,3
     864:	18b1ac23          	sw	a1,408(gp)

00000868 <inst_125>:
     868:	aaaab537          	lui	a0,0xaaaab
     86c:	aaa50513          	addi	a0,a0,-1366 # aaaaaaaa <absimm+0x657b857b>
     870:	aaa50593          	addi	a1,a0,-1366
     874:	18b1ae23          	sw	a1,412(gp)

00000878 <inst_126>:
     878:	aaaab537          	lui	a0,0xaaaab
     87c:	aaa50513          	addi	a0,a0,-1366 # aaaaaaaa <absimm+0x657b857b>
     880:	00550593          	addi	a1,a0,5
     884:	1ab1a023          	sw	a1,416(gp)

00000888 <inst_127>:
     888:	aaaab537          	lui	a0,0xaaaab
     88c:	aaa50513          	addi	a0,a0,-1366 # aaaaaaaa <absimm+0x657b857b>
     890:	33350593          	addi	a1,a0,819
     894:	1ab1a223          	sw	a1,420(gp)

00000898 <inst_128>:
     898:	aaaab537          	lui	a0,0xaaaab
     89c:	aaa50513          	addi	a0,a0,-1366 # aaaaaaaa <absimm+0x657b857b>
     8a0:	66650593          	addi	a1,a0,1638
     8a4:	1ab1a423          	sw	a1,424(gp)

000008a8 <inst_129>:
     8a8:	aaaab537          	lui	a0,0xaaaab
     8ac:	aaa50513          	addi	a0,a0,-1366 # aaaaaaaa <absimm+0x657b857b>
     8b0:	fd350593          	addi	a1,a0,-45
     8b4:	1ab1a623          	sw	a1,428(gp)

000008b8 <inst_130>:
     8b8:	aaaab537          	lui	a0,0xaaaab
     8bc:	aaa50513          	addi	a0,a0,-1366 # aaaaaaaa <absimm+0x657b857b>
     8c0:	02d50593          	addi	a1,a0,45
     8c4:	1ab1a823          	sw	a1,432(gp)

000008c8 <inst_131>:
     8c8:	aaaab537          	lui	a0,0xaaaab
     8cc:	aaa50513          	addi	a0,a0,-1366 # aaaaaaaa <absimm+0x657b857b>
     8d0:	00250593          	addi	a1,a0,2
     8d4:	1ab1aa23          	sw	a1,436(gp)

000008d8 <inst_132>:
     8d8:	aaaab537          	lui	a0,0xaaaab
     8dc:	aaa50513          	addi	a0,a0,-1366 # aaaaaaaa <absimm+0x657b857b>
     8e0:	55450593          	addi	a1,a0,1364
     8e4:	1ab1ac23          	sw	a1,440(gp)

000008e8 <inst_133>:
     8e8:	aaaab537          	lui	a0,0xaaaab
     8ec:	aaa50513          	addi	a0,a0,-1366 # aaaaaaaa <absimm+0x657b857b>
     8f0:	00050593          	addi	a1,a0,0
     8f4:	1ab1ae23          	sw	a1,444(gp)

000008f8 <inst_134>:
     8f8:	aaaab537          	lui	a0,0xaaaab
     8fc:	aaa50513          	addi	a0,a0,-1366 # aaaaaaaa <absimm+0x657b857b>
     900:	00450593          	addi	a1,a0,4
     904:	1cb1a023          	sw	a1,448(gp)

00000908 <inst_135>:
     908:	aaaab537          	lui	a0,0xaaaab
     90c:	aaa50513          	addi	a0,a0,-1366 # aaaaaaaa <absimm+0x657b857b>
     910:	33250593          	addi	a1,a0,818
     914:	1cb1a223          	sw	a1,452(gp)

00000918 <inst_136>:
     918:	aaaab537          	lui	a0,0xaaaab
     91c:	aaa50513          	addi	a0,a0,-1366 # aaaaaaaa <absimm+0x657b857b>
     920:	66550593          	addi	a1,a0,1637
     924:	1cb1a423          	sw	a1,456(gp)

00000928 <inst_137>:
     928:	aaaab537          	lui	a0,0xaaaab
     92c:	aaa50513          	addi	a0,a0,-1366 # aaaaaaaa <absimm+0x657b857b>
     930:	02c50593          	addi	a1,a0,44
     934:	1cb1a623          	sw	a1,460(gp)

00000938 <inst_138>:
     938:	aaaab537          	lui	a0,0xaaaab
     93c:	aaa50513          	addi	a0,a0,-1366 # aaaaaaaa <absimm+0x657b857b>
     940:	55650593          	addi	a1,a0,1366
     944:	1cb1a823          	sw	a1,464(gp)

00000948 <inst_139>:
     948:	aaaab537          	lui	a0,0xaaaab
     94c:	aaa50513          	addi	a0,a0,-1366 # aaaaaaaa <absimm+0x657b857b>
     950:	aab50593          	addi	a1,a0,-1365
     954:	1cb1aa23          	sw	a1,468(gp)

00000958 <inst_140>:
     958:	aaaab537          	lui	a0,0xaaaab
     95c:	aaa50513          	addi	a0,a0,-1366 # aaaaaaaa <absimm+0x657b857b>
     960:	00650593          	addi	a1,a0,6
     964:	1cb1ac23          	sw	a1,472(gp)

00000968 <inst_141>:
     968:	aaaab537          	lui	a0,0xaaaab
     96c:	aaa50513          	addi	a0,a0,-1366 # aaaaaaaa <absimm+0x657b857b>
     970:	33450593          	addi	a1,a0,820
     974:	1cb1ae23          	sw	a1,476(gp)

00000978 <inst_142>:
     978:	aaaab537          	lui	a0,0xaaaab
     97c:	aaa50513          	addi	a0,a0,-1366 # aaaaaaaa <absimm+0x657b857b>
     980:	66750593          	addi	a1,a0,1639
     984:	1eb1a023          	sw	a1,480(gp)

00000988 <inst_143>:
     988:	aaaab537          	lui	a0,0xaaaab
     98c:	aaa50513          	addi	a0,a0,-1366 # aaaaaaaa <absimm+0x657b857b>
     990:	fd450593          	addi	a1,a0,-44
     994:	1eb1a223          	sw	a1,484(gp)

00000998 <inst_144>:
     998:	aaaab537          	lui	a0,0xaaaab
     99c:	aaa50513          	addi	a0,a0,-1366 # aaaaaaaa <absimm+0x657b857b>
     9a0:	02e50593          	addi	a1,a0,46
     9a4:	1eb1a423          	sw	a1,488(gp)

000009a8 <inst_145>:
     9a8:	00500513          	addi	a0,zero,5
     9ac:	00350593          	addi	a1,a0,3
     9b0:	1eb1a623          	sw	a1,492(gp)

000009b4 <inst_146>:
     9b4:	00500513          	addi	a0,zero,5
     9b8:	55550593          	addi	a1,a0,1365
     9bc:	1eb1a823          	sw	a1,496(gp)

000009c0 <inst_147>:
     9c0:	00500513          	addi	a0,zero,5
     9c4:	aaa50593          	addi	a1,a0,-1366
     9c8:	1eb1aa23          	sw	a1,500(gp)

000009cc <inst_148>:
     9cc:	00500513          	addi	a0,zero,5
     9d0:	33350593          	addi	a1,a0,819
     9d4:	1eb1ac23          	sw	a1,504(gp)

000009d8 <inst_149>:
     9d8:	00500513          	addi	a0,zero,5
     9dc:	66650593          	addi	a1,a0,1638
     9e0:	1eb1ae23          	sw	a1,508(gp)

000009e4 <inst_150>:
     9e4:	00500513          	addi	a0,zero,5
     9e8:	fd350593          	addi	a1,a0,-45
     9ec:	20b1a023          	sw	a1,512(gp)

000009f0 <inst_151>:
     9f0:	00500513          	addi	a0,zero,5
     9f4:	02d50593          	addi	a1,a0,45
     9f8:	20b1a223          	sw	a1,516(gp)

000009fc <inst_152>:
     9fc:	00500513          	addi	a0,zero,5
     a00:	00250593          	addi	a1,a0,2
     a04:	20b1a423          	sw	a1,520(gp)

00000a08 <inst_153>:
     a08:	00500513          	addi	a0,zero,5
     a0c:	55450593          	addi	a1,a0,1364
     a10:	20b1a623          	sw	a1,524(gp)

00000a14 <inst_154>:
     a14:	00500513          	addi	a0,zero,5
     a18:	00050593          	addi	a1,a0,0
     a1c:	20b1a823          	sw	a1,528(gp)

00000a20 <inst_155>:
     a20:	00500513          	addi	a0,zero,5
     a24:	00450593          	addi	a1,a0,4
     a28:	20b1aa23          	sw	a1,532(gp)

00000a2c <inst_156>:
     a2c:	00500513          	addi	a0,zero,5
     a30:	33250593          	addi	a1,a0,818
     a34:	20b1ac23          	sw	a1,536(gp)

00000a38 <inst_157>:
     a38:	00500513          	addi	a0,zero,5
     a3c:	66550593          	addi	a1,a0,1637
     a40:	20b1ae23          	sw	a1,540(gp)

00000a44 <inst_158>:
     a44:	00500513          	addi	a0,zero,5
     a48:	02c50593          	addi	a1,a0,44
     a4c:	22b1a023          	sw	a1,544(gp)

00000a50 <inst_159>:
     a50:	00500513          	addi	a0,zero,5
     a54:	55650593          	addi	a1,a0,1366
     a58:	22b1a223          	sw	a1,548(gp)

00000a5c <inst_160>:
     a5c:	00500513          	addi	a0,zero,5
     a60:	aab50593          	addi	a1,a0,-1365
     a64:	22b1a423          	sw	a1,552(gp)

00000a68 <inst_161>:
     a68:	00500513          	addi	a0,zero,5
     a6c:	00650593          	addi	a1,a0,6
     a70:	22b1a623          	sw	a1,556(gp)

00000a74 <inst_162>:
     a74:	00500513          	addi	a0,zero,5
     a78:	33450593          	addi	a1,a0,820
     a7c:	22b1a823          	sw	a1,560(gp)

00000a80 <inst_163>:
     a80:	00500513          	addi	a0,zero,5
     a84:	66750593          	addi	a1,a0,1639
     a88:	22b1aa23          	sw	a1,564(gp)

00000a8c <inst_164>:
     a8c:	00500513          	addi	a0,zero,5
     a90:	fd450593          	addi	a1,a0,-44
     a94:	22b1ac23          	sw	a1,568(gp)

00000a98 <inst_165>:
     a98:	00500513          	addi	a0,zero,5
     a9c:	02e50593          	addi	a1,a0,46
     aa0:	22b1ae23          	sw	a1,572(gp)

00000aa4 <inst_166>:
     aa4:	33333537          	lui	a0,0x33333
     aa8:	33350513          	addi	a0,a0,819 # 33333333 <_end+0x3332982b>
     aac:	00350593          	addi	a1,a0,3
     ab0:	24b1a023          	sw	a1,576(gp)

00000ab4 <inst_167>:
     ab4:	33333537          	lui	a0,0x33333
     ab8:	33350513          	addi	a0,a0,819 # 33333333 <_end+0x3332982b>
     abc:	55550593          	addi	a1,a0,1365
     ac0:	24b1a223          	sw	a1,580(gp)

00000ac4 <inst_168>:
     ac4:	33333537          	lui	a0,0x33333
     ac8:	33350513          	addi	a0,a0,819 # 33333333 <_end+0x3332982b>
     acc:	aaa50593          	addi	a1,a0,-1366
     ad0:	24b1a423          	sw	a1,584(gp)

00000ad4 <inst_169>:
     ad4:	33333537          	lui	a0,0x33333
     ad8:	33350513          	addi	a0,a0,819 # 33333333 <_end+0x3332982b>
     adc:	00550593          	addi	a1,a0,5
     ae0:	24b1a623          	sw	a1,588(gp)

00000ae4 <inst_170>:
     ae4:	33333537          	lui	a0,0x33333
     ae8:	33350513          	addi	a0,a0,819 # 33333333 <_end+0x3332982b>
     aec:	33350593          	addi	a1,a0,819
     af0:	24b1a823          	sw	a1,592(gp)

00000af4 <inst_171>:
     af4:	33333537          	lui	a0,0x33333
     af8:	33350513          	addi	a0,a0,819 # 33333333 <_end+0x3332982b>
     afc:	66650593          	addi	a1,a0,1638
     b00:	24b1aa23          	sw	a1,596(gp)

00000b04 <inst_172>:
     b04:	33333537          	lui	a0,0x33333
     b08:	33350513          	addi	a0,a0,819 # 33333333 <_end+0x3332982b>
     b0c:	fd350593          	addi	a1,a0,-45
     b10:	24b1ac23          	sw	a1,600(gp)

00000b14 <inst_173>:
     b14:	33333537          	lui	a0,0x33333
     b18:	33350513          	addi	a0,a0,819 # 33333333 <_end+0x3332982b>
     b1c:	02d50593          	addi	a1,a0,45
     b20:	24b1ae23          	sw	a1,604(gp)

00000b24 <inst_174>:
     b24:	33333537          	lui	a0,0x33333
     b28:	33350513          	addi	a0,a0,819 # 33333333 <_end+0x3332982b>
     b2c:	00250593          	addi	a1,a0,2
     b30:	26b1a023          	sw	a1,608(gp)

00000b34 <inst_175>:
     b34:	33333537          	lui	a0,0x33333
     b38:	33350513          	addi	a0,a0,819 # 33333333 <_end+0x3332982b>
     b3c:	55450593          	addi	a1,a0,1364
     b40:	26b1a223          	sw	a1,612(gp)

00000b44 <inst_176>:
     b44:	33333537          	lui	a0,0x33333
     b48:	33350513          	addi	a0,a0,819 # 33333333 <_end+0x3332982b>
     b4c:	00050593          	addi	a1,a0,0
     b50:	26b1a423          	sw	a1,616(gp)

00000b54 <inst_177>:
     b54:	33333537          	lui	a0,0x33333
     b58:	33350513          	addi	a0,a0,819 # 33333333 <_end+0x3332982b>
     b5c:	00450593          	addi	a1,a0,4
     b60:	26b1a623          	sw	a1,620(gp)

00000b64 <inst_178>:
     b64:	33333537          	lui	a0,0x33333
     b68:	33350513          	addi	a0,a0,819 # 33333333 <_end+0x3332982b>
     b6c:	33250593          	addi	a1,a0,818
     b70:	26b1a823          	sw	a1,624(gp)

00000b74 <inst_179>:
     b74:	33333537          	lui	a0,0x33333
     b78:	33350513          	addi	a0,a0,819 # 33333333 <_end+0x3332982b>
     b7c:	66550593          	addi	a1,a0,1637
     b80:	26b1aa23          	sw	a1,628(gp)

00000b84 <inst_180>:
     b84:	33333537          	lui	a0,0x33333
     b88:	33350513          	addi	a0,a0,819 # 33333333 <_end+0x3332982b>
     b8c:	02c50593          	addi	a1,a0,44
     b90:	26b1ac23          	sw	a1,632(gp)

00000b94 <inst_181>:
     b94:	33333537          	lui	a0,0x33333
     b98:	33350513          	addi	a0,a0,819 # 33333333 <_end+0x3332982b>
     b9c:	55650593          	addi	a1,a0,1366
     ba0:	26b1ae23          	sw	a1,636(gp)

00000ba4 <inst_182>:
     ba4:	33333537          	lui	a0,0x33333
     ba8:	33350513          	addi	a0,a0,819 # 33333333 <_end+0x3332982b>
     bac:	aab50593          	addi	a1,a0,-1365
     bb0:	28b1a023          	sw	a1,640(gp)

00000bb4 <inst_183>:
     bb4:	33333537          	lui	a0,0x33333
     bb8:	33350513          	addi	a0,a0,819 # 33333333 <_end+0x3332982b>
     bbc:	00650593          	addi	a1,a0,6
     bc0:	28b1a223          	sw	a1,644(gp)

00000bc4 <inst_184>:
     bc4:	33333537          	lui	a0,0x33333
     bc8:	33350513          	addi	a0,a0,819 # 33333333 <_end+0x3332982b>
     bcc:	33450593          	addi	a1,a0,820
     bd0:	28b1a423          	sw	a1,648(gp)

00000bd4 <inst_185>:
     bd4:	33333537          	lui	a0,0x33333
     bd8:	33350513          	addi	a0,a0,819 # 33333333 <_end+0x3332982b>
     bdc:	66750593          	addi	a1,a0,1639
     be0:	28b1a623          	sw	a1,652(gp)

00000be4 <inst_186>:
     be4:	33333537          	lui	a0,0x33333
     be8:	33350513          	addi	a0,a0,819 # 33333333 <_end+0x3332982b>
     bec:	fd450593          	addi	a1,a0,-44
     bf0:	28b1a823          	sw	a1,656(gp)

00000bf4 <inst_187>:
     bf4:	33333537          	lui	a0,0x33333
     bf8:	33350513          	addi	a0,a0,819 # 33333333 <_end+0x3332982b>
     bfc:	02e50593          	addi	a1,a0,46
     c00:	28b1aa23          	sw	a1,660(gp)

00000c04 <inst_188>:
     c04:	66666537          	lui	a0,0x66666
     c08:	66650513          	addi	a0,a0,1638 # 66666666 <absimm+0x21374137>
     c0c:	00350593          	addi	a1,a0,3
     c10:	28b1ac23          	sw	a1,664(gp)

00000c14 <inst_189>:
     c14:	66666537          	lui	a0,0x66666
     c18:	66650513          	addi	a0,a0,1638 # 66666666 <absimm+0x21374137>
     c1c:	55550593          	addi	a1,a0,1365
     c20:	28b1ae23          	sw	a1,668(gp)

00000c24 <inst_190>:
     c24:	66666537          	lui	a0,0x66666
     c28:	66650513          	addi	a0,a0,1638 # 66666666 <absimm+0x21374137>
     c2c:	aaa50593          	addi	a1,a0,-1366
     c30:	2ab1a023          	sw	a1,672(gp)

00000c34 <inst_191>:
     c34:	66666537          	lui	a0,0x66666
     c38:	66650513          	addi	a0,a0,1638 # 66666666 <absimm+0x21374137>
     c3c:	00550593          	addi	a1,a0,5
     c40:	2ab1a223          	sw	a1,676(gp)

00000c44 <inst_192>:
     c44:	66666537          	lui	a0,0x66666
     c48:	66650513          	addi	a0,a0,1638 # 66666666 <absimm+0x21374137>
     c4c:	33350593          	addi	a1,a0,819
     c50:	2ab1a423          	sw	a1,680(gp)

00000c54 <inst_193>:
     c54:	66666537          	lui	a0,0x66666
     c58:	66650513          	addi	a0,a0,1638 # 66666666 <absimm+0x21374137>
     c5c:	66650593          	addi	a1,a0,1638
     c60:	2ab1a623          	sw	a1,684(gp)

00000c64 <inst_194>:
     c64:	66666537          	lui	a0,0x66666
     c68:	66650513          	addi	a0,a0,1638 # 66666666 <absimm+0x21374137>
     c6c:	fd350593          	addi	a1,a0,-45
     c70:	2ab1a823          	sw	a1,688(gp)

00000c74 <inst_195>:
     c74:	66666537          	lui	a0,0x66666
     c78:	66650513          	addi	a0,a0,1638 # 66666666 <absimm+0x21374137>
     c7c:	02d50593          	addi	a1,a0,45
     c80:	2ab1aa23          	sw	a1,692(gp)

00000c84 <inst_196>:
     c84:	66666537          	lui	a0,0x66666
     c88:	66650513          	addi	a0,a0,1638 # 66666666 <absimm+0x21374137>
     c8c:	00250593          	addi	a1,a0,2
     c90:	2ab1ac23          	sw	a1,696(gp)

00000c94 <inst_197>:
     c94:	66666537          	lui	a0,0x66666
     c98:	66650513          	addi	a0,a0,1638 # 66666666 <absimm+0x21374137>
     c9c:	55450593          	addi	a1,a0,1364
     ca0:	2ab1ae23          	sw	a1,700(gp)

00000ca4 <inst_198>:
     ca4:	66666537          	lui	a0,0x66666
     ca8:	66650513          	addi	a0,a0,1638 # 66666666 <absimm+0x21374137>
     cac:	00050593          	addi	a1,a0,0
     cb0:	2cb1a023          	sw	a1,704(gp)

00000cb4 <inst_199>:
     cb4:	66666537          	lui	a0,0x66666
     cb8:	66650513          	addi	a0,a0,1638 # 66666666 <absimm+0x21374137>
     cbc:	00450593          	addi	a1,a0,4
     cc0:	2cb1a223          	sw	a1,708(gp)

00000cc4 <inst_200>:
     cc4:	66666537          	lui	a0,0x66666
     cc8:	66650513          	addi	a0,a0,1638 # 66666666 <absimm+0x21374137>
     ccc:	33250593          	addi	a1,a0,818
     cd0:	2cb1a423          	sw	a1,712(gp)

00000cd4 <inst_201>:
     cd4:	66666537          	lui	a0,0x66666
     cd8:	66650513          	addi	a0,a0,1638 # 66666666 <absimm+0x21374137>
     cdc:	66550593          	addi	a1,a0,1637
     ce0:	2cb1a623          	sw	a1,716(gp)

00000ce4 <inst_202>:
     ce4:	66666537          	lui	a0,0x66666
     ce8:	66650513          	addi	a0,a0,1638 # 66666666 <absimm+0x21374137>
     cec:	02c50593          	addi	a1,a0,44
     cf0:	2cb1a823          	sw	a1,720(gp)

00000cf4 <inst_203>:
     cf4:	66666537          	lui	a0,0x66666
     cf8:	66650513          	addi	a0,a0,1638 # 66666666 <absimm+0x21374137>
     cfc:	55650593          	addi	a1,a0,1366
     d00:	2cb1aa23          	sw	a1,724(gp)

00000d04 <inst_204>:
     d04:	66666537          	lui	a0,0x66666
     d08:	66650513          	addi	a0,a0,1638 # 66666666 <absimm+0x21374137>
     d0c:	aab50593          	addi	a1,a0,-1365
     d10:	2cb1ac23          	sw	a1,728(gp)

00000d14 <inst_205>:
     d14:	66666537          	lui	a0,0x66666
     d18:	66650513          	addi	a0,a0,1638 # 66666666 <absimm+0x21374137>
     d1c:	00650593          	addi	a1,a0,6
     d20:	2cb1ae23          	sw	a1,732(gp)

00000d24 <inst_206>:
     d24:	66666537          	lui	a0,0x66666
     d28:	66650513          	addi	a0,a0,1638 # 66666666 <absimm+0x21374137>
     d2c:	33450593          	addi	a1,a0,820
     d30:	2eb1a023          	sw	a1,736(gp)

00000d34 <inst_207>:
     d34:	66666537          	lui	a0,0x66666
     d38:	66650513          	addi	a0,a0,1638 # 66666666 <absimm+0x21374137>
     d3c:	66750593          	addi	a1,a0,1639
     d40:	2eb1a223          	sw	a1,740(gp)

00000d44 <inst_208>:
     d44:	66666537          	lui	a0,0x66666
     d48:	66650513          	addi	a0,a0,1638 # 66666666 <absimm+0x21374137>
     d4c:	fd450593          	addi	a1,a0,-44
     d50:	2eb1a423          	sw	a1,744(gp)

00000d54 <inst_209>:
     d54:	66666537          	lui	a0,0x66666
     d58:	66650513          	addi	a0,a0,1638 # 66666666 <absimm+0x21374137>
     d5c:	02e50593          	addi	a1,a0,46
     d60:	2eb1a623          	sw	a1,748(gp)

00000d64 <inst_210>:
     d64:	ffff5537          	lui	a0,0xffff5
     d68:	afc50513          	addi	a0,a0,-1284 # ffff4afc <immx+0x452e702c>
     d6c:	00350593          	addi	a1,a0,3
     d70:	2eb1a823          	sw	a1,752(gp)

00000d74 <inst_211>:
     d74:	ffff5537          	lui	a0,0xffff5
     d78:	afc50513          	addi	a0,a0,-1284 # ffff4afc <immx+0x452e702c>
     d7c:	55550593          	addi	a1,a0,1365
     d80:	2eb1aa23          	sw	a1,756(gp)

00000d84 <inst_212>:
     d84:	ffff5537          	lui	a0,0xffff5
     d88:	afc50513          	addi	a0,a0,-1284 # ffff4afc <immx+0x452e702c>
     d8c:	aaa50593          	addi	a1,a0,-1366
     d90:	2eb1ac23          	sw	a1,760(gp)

00000d94 <inst_213>:
     d94:	ffff5537          	lui	a0,0xffff5
     d98:	afc50513          	addi	a0,a0,-1284 # ffff4afc <immx+0x452e702c>
     d9c:	00550593          	addi	a1,a0,5
     da0:	2eb1ae23          	sw	a1,764(gp)

00000da4 <inst_214>:
     da4:	ffff5537          	lui	a0,0xffff5
     da8:	afc50513          	addi	a0,a0,-1284 # ffff4afc <immx+0x452e702c>
     dac:	33350593          	addi	a1,a0,819
     db0:	30b1a023          	sw	a1,768(gp)

00000db4 <inst_215>:
     db4:	ffff5537          	lui	a0,0xffff5
     db8:	afc50513          	addi	a0,a0,-1284 # ffff4afc <immx+0x452e702c>
     dbc:	66650593          	addi	a1,a0,1638
     dc0:	30b1a223          	sw	a1,772(gp)

00000dc4 <inst_216>:
     dc4:	ffff5537          	lui	a0,0xffff5
     dc8:	afc50513          	addi	a0,a0,-1284 # ffff4afc <immx+0x452e702c>
     dcc:	fd350593          	addi	a1,a0,-45
     dd0:	30b1a423          	sw	a1,776(gp)

00000dd4 <inst_217>:
     dd4:	ffff5537          	lui	a0,0xffff5
     dd8:	afc50513          	addi	a0,a0,-1284 # ffff4afc <immx+0x452e702c>
     ddc:	02d50593          	addi	a1,a0,45
     de0:	30b1a623          	sw	a1,780(gp)

00000de4 <inst_218>:
     de4:	ffff5537          	lui	a0,0xffff5
     de8:	afc50513          	addi	a0,a0,-1284 # ffff4afc <immx+0x452e702c>
     dec:	00250593          	addi	a1,a0,2
     df0:	30b1a823          	sw	a1,784(gp)

00000df4 <inst_219>:
     df4:	ffff5537          	lui	a0,0xffff5
     df8:	afc50513          	addi	a0,a0,-1284 # ffff4afc <immx+0x452e702c>
     dfc:	55450593          	addi	a1,a0,1364
     e00:	30b1aa23          	sw	a1,788(gp)

00000e04 <inst_220>:
     e04:	ffff5537          	lui	a0,0xffff5
     e08:	afc50513          	addi	a0,a0,-1284 # ffff4afc <immx+0x452e702c>
     e0c:	00050593          	addi	a1,a0,0
     e10:	30b1ac23          	sw	a1,792(gp)

00000e14 <inst_221>:
     e14:	ffff5537          	lui	a0,0xffff5
     e18:	afc50513          	addi	a0,a0,-1284 # ffff4afc <immx+0x452e702c>
     e1c:	00450593          	addi	a1,a0,4
     e20:	30b1ae23          	sw	a1,796(gp)

00000e24 <inst_222>:
     e24:	ffff5537          	lui	a0,0xffff5
     e28:	afc50513          	addi	a0,a0,-1284 # ffff4afc <immx+0x452e702c>
     e2c:	33250593          	addi	a1,a0,818
     e30:	32b1a023          	sw	a1,800(gp)

00000e34 <inst_223>:
     e34:	ffff5537          	lui	a0,0xffff5
     e38:	afc50513          	addi	a0,a0,-1284 # ffff4afc <immx+0x452e702c>
     e3c:	66550593          	addi	a1,a0,1637
     e40:	32b1a223          	sw	a1,804(gp)

00000e44 <inst_224>:
     e44:	ffff5537          	lui	a0,0xffff5
     e48:	afc50513          	addi	a0,a0,-1284 # ffff4afc <immx+0x452e702c>
     e4c:	02c50593          	addi	a1,a0,44
     e50:	32b1a423          	sw	a1,808(gp)

00000e54 <inst_225>:
     e54:	ffff5537          	lui	a0,0xffff5
     e58:	afc50513          	addi	a0,a0,-1284 # ffff4afc <immx+0x452e702c>
     e5c:	55650593          	addi	a1,a0,1366
     e60:	32b1a623          	sw	a1,812(gp)

00000e64 <inst_226>:
     e64:	ffff5537          	lui	a0,0xffff5
     e68:	afc50513          	addi	a0,a0,-1284 # ffff4afc <immx+0x452e702c>
     e6c:	aab50593          	addi	a1,a0,-1365
     e70:	32b1a823          	sw	a1,816(gp)

00000e74 <inst_227>:
     e74:	ffff5537          	lui	a0,0xffff5
     e78:	afc50513          	addi	a0,a0,-1284 # ffff4afc <immx+0x452e702c>
     e7c:	00650593          	addi	a1,a0,6
     e80:	32b1aa23          	sw	a1,820(gp)

00000e84 <inst_228>:
     e84:	ffff5537          	lui	a0,0xffff5
     e88:	afc50513          	addi	a0,a0,-1284 # ffff4afc <immx+0x452e702c>
     e8c:	33450593          	addi	a1,a0,820
     e90:	32b1ac23          	sw	a1,824(gp)

00000e94 <inst_229>:
     e94:	ffff5537          	lui	a0,0xffff5
     e98:	afc50513          	addi	a0,a0,-1284 # ffff4afc <immx+0x452e702c>
     e9c:	66750593          	addi	a1,a0,1639
     ea0:	32b1ae23          	sw	a1,828(gp)

00000ea4 <inst_230>:
     ea4:	ffff5537          	lui	a0,0xffff5
     ea8:	afc50513          	addi	a0,a0,-1284 # ffff4afc <immx+0x452e702c>
     eac:	fd450593          	addi	a1,a0,-44
     eb0:	34b1a023          	sw	a1,832(gp)

00000eb4 <inst_231>:
     eb4:	ffff5537          	lui	a0,0xffff5
     eb8:	afc50513          	addi	a0,a0,-1284 # ffff4afc <immx+0x452e702c>
     ebc:	02e50593          	addi	a1,a0,46
     ec0:	34b1a223          	sw	a1,836(gp)

00000ec4 <inst_232>:
     ec4:	0000b537          	lui	a0,0xb
     ec8:	50450513          	addi	a0,a0,1284 # b504 <_end+0x19fc>
     ecc:	00350593          	addi	a1,a0,3
     ed0:	34b1a423          	sw	a1,840(gp)

00000ed4 <inst_233>:
     ed4:	0000b537          	lui	a0,0xb
     ed8:	50450513          	addi	a0,a0,1284 # b504 <_end+0x19fc>
     edc:	55550593          	addi	a1,a0,1365
     ee0:	34b1a623          	sw	a1,844(gp)

00000ee4 <inst_234>:
     ee4:	0000b537          	lui	a0,0xb
     ee8:	50450513          	addi	a0,a0,1284 # b504 <_end+0x19fc>
     eec:	aaa50593          	addi	a1,a0,-1366
     ef0:	34b1a823          	sw	a1,848(gp)

00000ef4 <inst_235>:
     ef4:	0000b537          	lui	a0,0xb
     ef8:	50450513          	addi	a0,a0,1284 # b504 <_end+0x19fc>
     efc:	00550593          	addi	a1,a0,5
     f00:	34b1aa23          	sw	a1,852(gp)

00000f04 <inst_236>:
     f04:	0000b537          	lui	a0,0xb
     f08:	50450513          	addi	a0,a0,1284 # b504 <_end+0x19fc>
     f0c:	33350593          	addi	a1,a0,819
     f10:	34b1ac23          	sw	a1,856(gp)

00000f14 <inst_237>:
     f14:	0000b537          	lui	a0,0xb
     f18:	50450513          	addi	a0,a0,1284 # b504 <_end+0x19fc>
     f1c:	66650593          	addi	a1,a0,1638
     f20:	34b1ae23          	sw	a1,860(gp)

00000f24 <inst_238>:
     f24:	0000b537          	lui	a0,0xb
     f28:	50450513          	addi	a0,a0,1284 # b504 <_end+0x19fc>
     f2c:	fd350593          	addi	a1,a0,-45
     f30:	36b1a023          	sw	a1,864(gp)

00000f34 <inst_239>:
     f34:	0000b537          	lui	a0,0xb
     f38:	50450513          	addi	a0,a0,1284 # b504 <_end+0x19fc>
     f3c:	02d50593          	addi	a1,a0,45
     f40:	36b1a223          	sw	a1,868(gp)

00000f44 <inst_240>:
     f44:	0000b537          	lui	a0,0xb
     f48:	50450513          	addi	a0,a0,1284 # b504 <_end+0x19fc>
     f4c:	00250593          	addi	a1,a0,2
     f50:	36b1a423          	sw	a1,872(gp)

00000f54 <inst_241>:
     f54:	0000b537          	lui	a0,0xb
     f58:	50450513          	addi	a0,a0,1284 # b504 <_end+0x19fc>
     f5c:	55450593          	addi	a1,a0,1364
     f60:	36b1a623          	sw	a1,876(gp)

00000f64 <inst_242>:
     f64:	0000b537          	lui	a0,0xb
     f68:	50450513          	addi	a0,a0,1284 # b504 <_end+0x19fc>
     f6c:	00050593          	addi	a1,a0,0
     f70:	36b1a823          	sw	a1,880(gp)

00000f74 <inst_243>:
     f74:	0000b537          	lui	a0,0xb
     f78:	50450513          	addi	a0,a0,1284 # b504 <_end+0x19fc>
     f7c:	00450593          	addi	a1,a0,4
     f80:	36b1aa23          	sw	a1,884(gp)

00000f84 <inst_244>:
     f84:	0000b537          	lui	a0,0xb
     f88:	50450513          	addi	a0,a0,1284 # b504 <_end+0x19fc>
     f8c:	33250593          	addi	a1,a0,818
     f90:	36b1ac23          	sw	a1,888(gp)

00000f94 <inst_245>:
     f94:	0000b537          	lui	a0,0xb
     f98:	50450513          	addi	a0,a0,1284 # b504 <_end+0x19fc>
     f9c:	66550593          	addi	a1,a0,1637
     fa0:	36b1ae23          	sw	a1,892(gp)

00000fa4 <inst_246>:
     fa4:	0000b537          	lui	a0,0xb
     fa8:	50450513          	addi	a0,a0,1284 # b504 <_end+0x19fc>
     fac:	02c50593          	addi	a1,a0,44
     fb0:	38b1a023          	sw	a1,896(gp)

00000fb4 <inst_247>:
     fb4:	0000b537          	lui	a0,0xb
     fb8:	50450513          	addi	a0,a0,1284 # b504 <_end+0x19fc>
     fbc:	55650593          	addi	a1,a0,1366
     fc0:	38b1a223          	sw	a1,900(gp)

00000fc4 <inst_248>:
     fc4:	0000b537          	lui	a0,0xb
     fc8:	50450513          	addi	a0,a0,1284 # b504 <_end+0x19fc>
     fcc:	aab50593          	addi	a1,a0,-1365
     fd0:	38b1a423          	sw	a1,904(gp)

00000fd4 <inst_249>:
     fd4:	0000b537          	lui	a0,0xb
     fd8:	50450513          	addi	a0,a0,1284 # b504 <_end+0x19fc>
     fdc:	00650593          	addi	a1,a0,6
     fe0:	38b1a623          	sw	a1,908(gp)

00000fe4 <inst_250>:
     fe4:	0000b537          	lui	a0,0xb
     fe8:	50450513          	addi	a0,a0,1284 # b504 <_end+0x19fc>
     fec:	33450593          	addi	a1,a0,820
     ff0:	38b1a823          	sw	a1,912(gp)

00000ff4 <inst_251>:
     ff4:	0000b537          	lui	a0,0xb
     ff8:	50450513          	addi	a0,a0,1284 # b504 <_end+0x19fc>
     ffc:	66750593          	addi	a1,a0,1639
    1000:	38b1aa23          	sw	a1,916(gp)

00001004 <inst_252>:
    1004:	0000b537          	lui	a0,0xb
    1008:	50450513          	addi	a0,a0,1284 # b504 <_end+0x19fc>
    100c:	fd450593          	addi	a1,a0,-44
    1010:	38b1ac23          	sw	a1,920(gp)

00001014 <inst_253>:
    1014:	0000b537          	lui	a0,0xb
    1018:	50450513          	addi	a0,a0,1284 # b504 <_end+0x19fc>
    101c:	02e50593          	addi	a1,a0,46
    1020:	38b1ae23          	sw	a1,924(gp)

00001024 <inst_254>:
    1024:	00200513          	addi	a0,zero,2
    1028:	00350593          	addi	a1,a0,3
    102c:	3ab1a023          	sw	a1,928(gp)

00001030 <inst_255>:
    1030:	00200513          	addi	a0,zero,2
    1034:	55550593          	addi	a1,a0,1365
    1038:	3ab1a223          	sw	a1,932(gp)

0000103c <inst_256>:
    103c:	00200513          	addi	a0,zero,2
    1040:	aaa50593          	addi	a1,a0,-1366
    1044:	3ab1a423          	sw	a1,936(gp)

00001048 <inst_257>:
    1048:	00200513          	addi	a0,zero,2
    104c:	00550593          	addi	a1,a0,5
    1050:	3ab1a623          	sw	a1,940(gp)

00001054 <inst_258>:
    1054:	00200513          	addi	a0,zero,2
    1058:	33350593          	addi	a1,a0,819
    105c:	3ab1a823          	sw	a1,944(gp)

00001060 <inst_259>:
    1060:	00200513          	addi	a0,zero,2
    1064:	66650593          	addi	a1,a0,1638
    1068:	3ab1aa23          	sw	a1,948(gp)

0000106c <inst_260>:
    106c:	00200513          	addi	a0,zero,2
    1070:	fd350593          	addi	a1,a0,-45
    1074:	3ab1ac23          	sw	a1,952(gp)

00001078 <inst_261>:
    1078:	00200513          	addi	a0,zero,2
    107c:	02d50593          	addi	a1,a0,45
    1080:	3ab1ae23          	sw	a1,956(gp)

00001084 <inst_262>:
    1084:	00200513          	addi	a0,zero,2
    1088:	00250593          	addi	a1,a0,2
    108c:	3cb1a023          	sw	a1,960(gp)

00001090 <inst_263>:
    1090:	00200513          	addi	a0,zero,2
    1094:	55450593          	addi	a1,a0,1364
    1098:	3cb1a223          	sw	a1,964(gp)

0000109c <inst_264>:
    109c:	00200513          	addi	a0,zero,2
    10a0:	00050593          	addi	a1,a0,0
    10a4:	3cb1a423          	sw	a1,968(gp)

000010a8 <inst_265>:
    10a8:	00200513          	addi	a0,zero,2
    10ac:	00450593          	addi	a1,a0,4
    10b0:	3cb1a623          	sw	a1,972(gp)

000010b4 <inst_266>:
    10b4:	00200513          	addi	a0,zero,2
    10b8:	33250593          	addi	a1,a0,818
    10bc:	3cb1a823          	sw	a1,976(gp)

000010c0 <inst_267>:
    10c0:	00200513          	addi	a0,zero,2
    10c4:	66550593          	addi	a1,a0,1637
    10c8:	3cb1aa23          	sw	a1,980(gp)

000010cc <inst_268>:
    10cc:	00200513          	addi	a0,zero,2
    10d0:	02c50593          	addi	a1,a0,44
    10d4:	3cb1ac23          	sw	a1,984(gp)

000010d8 <inst_269>:
    10d8:	00200513          	addi	a0,zero,2
    10dc:	55650593          	addi	a1,a0,1366
    10e0:	3cb1ae23          	sw	a1,988(gp)

000010e4 <inst_270>:
    10e4:	00200513          	addi	a0,zero,2
    10e8:	aab50593          	addi	a1,a0,-1365
    10ec:	3eb1a023          	sw	a1,992(gp)

000010f0 <inst_271>:
    10f0:	00200513          	addi	a0,zero,2
    10f4:	00650593          	addi	a1,a0,6
    10f8:	3eb1a223          	sw	a1,996(gp)

000010fc <inst_272>:
    10fc:	00200513          	addi	a0,zero,2
    1100:	33450593          	addi	a1,a0,820
    1104:	3eb1a423          	sw	a1,1000(gp)

00001108 <inst_273>:
    1108:	00200513          	addi	a0,zero,2
    110c:	66750593          	addi	a1,a0,1639
    1110:	3eb1a623          	sw	a1,1004(gp)

00001114 <inst_274>:
    1114:	00200513          	addi	a0,zero,2
    1118:	fd450593          	addi	a1,a0,-44
    111c:	3eb1a823          	sw	a1,1008(gp)

00001120 <inst_275>:
    1120:	00200513          	addi	a0,zero,2
    1124:	02e50593          	addi	a1,a0,46
    1128:	3eb1aa23          	sw	a1,1012(gp)

0000112c <inst_276>:
    112c:	55555537          	lui	a0,0x55555
    1130:	55450513          	addi	a0,a0,1364 # 55555554 <absimm+0x10263025>
    1134:	00350593          	addi	a1,a0,3
    1138:	3eb1ac23          	sw	a1,1016(gp)

0000113c <inst_277>:
    113c:	55555537          	lui	a0,0x55555
    1140:	55450513          	addi	a0,a0,1364 # 55555554 <absimm+0x10263025>
    1144:	55550593          	addi	a1,a0,1365
    1148:	3eb1ae23          	sw	a1,1020(gp)

0000114c <inst_278>:
    114c:	55555537          	lui	a0,0x55555
    1150:	55450513          	addi	a0,a0,1364 # 55555554 <absimm+0x10263025>
    1154:	aaa50593          	addi	a1,a0,-1366
    1158:	40b1a023          	sw	a1,1024(gp)

0000115c <inst_279>:
    115c:	55555537          	lui	a0,0x55555
    1160:	55450513          	addi	a0,a0,1364 # 55555554 <absimm+0x10263025>
    1164:	00550593          	addi	a1,a0,5
    1168:	40b1a223          	sw	a1,1028(gp)

0000116c <inst_280>:
    116c:	55555537          	lui	a0,0x55555
    1170:	55450513          	addi	a0,a0,1364 # 55555554 <absimm+0x10263025>
    1174:	33350593          	addi	a1,a0,819
    1178:	40b1a423          	sw	a1,1032(gp)

0000117c <inst_281>:
    117c:	55555537          	lui	a0,0x55555
    1180:	55450513          	addi	a0,a0,1364 # 55555554 <absimm+0x10263025>
    1184:	66650593          	addi	a1,a0,1638
    1188:	40b1a623          	sw	a1,1036(gp)

0000118c <inst_282>:
    118c:	55555537          	lui	a0,0x55555
    1190:	55450513          	addi	a0,a0,1364 # 55555554 <absimm+0x10263025>
    1194:	fd350593          	addi	a1,a0,-45
    1198:	40b1a823          	sw	a1,1040(gp)

0000119c <inst_283>:
    119c:	55555537          	lui	a0,0x55555
    11a0:	55450513          	addi	a0,a0,1364 # 55555554 <absimm+0x10263025>
    11a4:	02d50593          	addi	a1,a0,45
    11a8:	40b1aa23          	sw	a1,1044(gp)

000011ac <inst_284>:
    11ac:	55555537          	lui	a0,0x55555
    11b0:	55450513          	addi	a0,a0,1364 # 55555554 <absimm+0x10263025>
    11b4:	00250593          	addi	a1,a0,2
    11b8:	40b1ac23          	sw	a1,1048(gp)

000011bc <inst_285>:
    11bc:	55555537          	lui	a0,0x55555
    11c0:	55450513          	addi	a0,a0,1364 # 55555554 <absimm+0x10263025>
    11c4:	55450593          	addi	a1,a0,1364
    11c8:	40b1ae23          	sw	a1,1052(gp)

000011cc <inst_286>:
    11cc:	55555537          	lui	a0,0x55555
    11d0:	55450513          	addi	a0,a0,1364 # 55555554 <absimm+0x10263025>
    11d4:	00050593          	addi	a1,a0,0
    11d8:	42b1a023          	sw	a1,1056(gp)

000011dc <inst_287>:
    11dc:	55555537          	lui	a0,0x55555
    11e0:	55450513          	addi	a0,a0,1364 # 55555554 <absimm+0x10263025>
    11e4:	00450593          	addi	a1,a0,4
    11e8:	42b1a223          	sw	a1,1060(gp)

000011ec <inst_288>:
    11ec:	55555537          	lui	a0,0x55555
    11f0:	55450513          	addi	a0,a0,1364 # 55555554 <absimm+0x10263025>
    11f4:	33250593          	addi	a1,a0,818
    11f8:	42b1a423          	sw	a1,1064(gp)

000011fc <inst_289>:
    11fc:	55555537          	lui	a0,0x55555
    1200:	55450513          	addi	a0,a0,1364 # 55555554 <absimm+0x10263025>
    1204:	66550593          	addi	a1,a0,1637
    1208:	42b1a623          	sw	a1,1068(gp)

0000120c <inst_290>:
    120c:	55555537          	lui	a0,0x55555
    1210:	55450513          	addi	a0,a0,1364 # 55555554 <absimm+0x10263025>
    1214:	02c50593          	addi	a1,a0,44
    1218:	42b1a823          	sw	a1,1072(gp)

0000121c <inst_291>:
    121c:	55555537          	lui	a0,0x55555
    1220:	55450513          	addi	a0,a0,1364 # 55555554 <absimm+0x10263025>
    1224:	55650593          	addi	a1,a0,1366
    1228:	42b1aa23          	sw	a1,1076(gp)

0000122c <inst_292>:
    122c:	55555537          	lui	a0,0x55555
    1230:	55450513          	addi	a0,a0,1364 # 55555554 <absimm+0x10263025>
    1234:	aab50593          	addi	a1,a0,-1365
    1238:	42b1ac23          	sw	a1,1080(gp)

0000123c <inst_293>:
    123c:	55555537          	lui	a0,0x55555
    1240:	55450513          	addi	a0,a0,1364 # 55555554 <absimm+0x10263025>
    1244:	00650593          	addi	a1,a0,6
    1248:	42b1ae23          	sw	a1,1084(gp)

0000124c <inst_294>:
    124c:	55555537          	lui	a0,0x55555
    1250:	55450513          	addi	a0,a0,1364 # 55555554 <absimm+0x10263025>
    1254:	33450593          	addi	a1,a0,820
    1258:	44b1a023          	sw	a1,1088(gp)

0000125c <inst_295>:
    125c:	55555537          	lui	a0,0x55555
    1260:	55450513          	addi	a0,a0,1364 # 55555554 <absimm+0x10263025>
    1264:	66750593          	addi	a1,a0,1639
    1268:	44b1a223          	sw	a1,1092(gp)

0000126c <inst_296>:
    126c:	55555537          	lui	a0,0x55555
    1270:	55450513          	addi	a0,a0,1364 # 55555554 <absimm+0x10263025>
    1274:	fd450593          	addi	a1,a0,-44
    1278:	44b1a423          	sw	a1,1096(gp)

0000127c <inst_297>:
    127c:	55555537          	lui	a0,0x55555
    1280:	55450513          	addi	a0,a0,1364 # 55555554 <absimm+0x10263025>
    1284:	02e50593          	addi	a1,a0,46
    1288:	44b1a623          	sw	a1,1100(gp)

0000128c <inst_298>:
    128c:	00000513          	addi	a0,zero,0
    1290:	00350593          	addi	a1,a0,3
    1294:	44b1a823          	sw	a1,1104(gp)

00001298 <inst_299>:
    1298:	00000513          	addi	a0,zero,0
    129c:	55550593          	addi	a1,a0,1365
    12a0:	44b1aa23          	sw	a1,1108(gp)

000012a4 <inst_300>:
    12a4:	00000513          	addi	a0,zero,0
    12a8:	00550593          	addi	a1,a0,5
    12ac:	44b1ac23          	sw	a1,1112(gp)

000012b0 <inst_301>:
    12b0:	00000513          	addi	a0,zero,0
    12b4:	33350593          	addi	a1,a0,819
    12b8:	44b1ae23          	sw	a1,1116(gp)

000012bc <inst_302>:
    12bc:	00000513          	addi	a0,zero,0
    12c0:	66650593          	addi	a1,a0,1638
    12c4:	46b1a023          	sw	a1,1120(gp)

000012c8 <inst_303>:
    12c8:	00000513          	addi	a0,zero,0
    12cc:	fd350593          	addi	a1,a0,-45
    12d0:	46b1a223          	sw	a1,1124(gp)

000012d4 <inst_304>:
    12d4:	00000513          	addi	a0,zero,0
    12d8:	02d50593          	addi	a1,a0,45
    12dc:	46b1a423          	sw	a1,1128(gp)

000012e0 <inst_305>:
    12e0:	33333537          	lui	a0,0x33333
    12e4:	33450513          	addi	a0,a0,820 # 33333334 <_end+0x3332982c>
    12e8:	33250593          	addi	a1,a0,818
    12ec:	46b1a623          	sw	a1,1132(gp)

000012f0 <inst_306>:
    12f0:	33333537          	lui	a0,0x33333
    12f4:	33450513          	addi	a0,a0,820 # 33333334 <_end+0x3332982c>
    12f8:	66550593          	addi	a1,a0,1637
    12fc:	46b1a823          	sw	a1,1136(gp)

00001300 <inst_307>:
    1300:	33333537          	lui	a0,0x33333
    1304:	33450513          	addi	a0,a0,820 # 33333334 <_end+0x3332982c>
    1308:	02c50593          	addi	a1,a0,44
    130c:	46b1aa23          	sw	a1,1140(gp)

00001310 <inst_308>:
    1310:	33333537          	lui	a0,0x33333
    1314:	33450513          	addi	a0,a0,820 # 33333334 <_end+0x3332982c>
    1318:	55650593          	addi	a1,a0,1366
    131c:	46b1ac23          	sw	a1,1144(gp)

00001320 <inst_309>:
    1320:	33333537          	lui	a0,0x33333
    1324:	33450513          	addi	a0,a0,820 # 33333334 <_end+0x3332982c>
    1328:	aab50593          	addi	a1,a0,-1365
    132c:	46b1ae23          	sw	a1,1148(gp)

00001330 <inst_310>:
    1330:	33333537          	lui	a0,0x33333
    1334:	33450513          	addi	a0,a0,820 # 33333334 <_end+0x3332982c>
    1338:	00650593          	addi	a1,a0,6
    133c:	48b1a023          	sw	a1,1152(gp)

00001340 <inst_311>:
    1340:	33333537          	lui	a0,0x33333
    1344:	33450513          	addi	a0,a0,820 # 33333334 <_end+0x3332982c>
    1348:	33450593          	addi	a1,a0,820
    134c:	48b1a223          	sw	a1,1156(gp)

00001350 <inst_312>:
    1350:	33333537          	lui	a0,0x33333
    1354:	33450513          	addi	a0,a0,820 # 33333334 <_end+0x3332982c>
    1358:	66750593          	addi	a1,a0,1639
    135c:	48b1a423          	sw	a1,1160(gp)

00001360 <inst_313>:
    1360:	33333537          	lui	a0,0x33333
    1364:	33450513          	addi	a0,a0,820 # 33333334 <_end+0x3332982c>
    1368:	fd450593          	addi	a1,a0,-44
    136c:	48b1a623          	sw	a1,1164(gp)

00001370 <inst_314>:
    1370:	33333537          	lui	a0,0x33333
    1374:	33450513          	addi	a0,a0,820 # 33333334 <_end+0x3332982c>
    1378:	02e50593          	addi	a1,a0,46
    137c:	48b1a823          	sw	a1,1168(gp)

00001380 <inst_315>:
    1380:	66666537          	lui	a0,0x66666
    1384:	66750513          	addi	a0,a0,1639 # 66666667 <absimm+0x21374138>
    1388:	00350593          	addi	a1,a0,3
    138c:	48b1aa23          	sw	a1,1172(gp)

00001390 <inst_316>:
    1390:	66666537          	lui	a0,0x66666
    1394:	66750513          	addi	a0,a0,1639 # 66666667 <absimm+0x21374138>
    1398:	55550593          	addi	a1,a0,1365
    139c:	48b1ac23          	sw	a1,1176(gp)

000013a0 <inst_317>:
    13a0:	66666537          	lui	a0,0x66666
    13a4:	66750513          	addi	a0,a0,1639 # 66666667 <absimm+0x21374138>
    13a8:	aaa50593          	addi	a1,a0,-1366
    13ac:	48b1ae23          	sw	a1,1180(gp)

000013b0 <inst_318>:
    13b0:	66666537          	lui	a0,0x66666
    13b4:	66750513          	addi	a0,a0,1639 # 66666667 <absimm+0x21374138>
    13b8:	00550593          	addi	a1,a0,5
    13bc:	4ab1a023          	sw	a1,1184(gp)

000013c0 <inst_319>:
    13c0:	66666537          	lui	a0,0x66666
    13c4:	66750513          	addi	a0,a0,1639 # 66666667 <absimm+0x21374138>
    13c8:	33350593          	addi	a1,a0,819
    13cc:	4ab1a223          	sw	a1,1188(gp)

000013d0 <inst_320>:
    13d0:	66666537          	lui	a0,0x66666
    13d4:	66750513          	addi	a0,a0,1639 # 66666667 <absimm+0x21374138>
    13d8:	66650593          	addi	a1,a0,1638
    13dc:	4ab1a423          	sw	a1,1192(gp)

000013e0 <inst_321>:
    13e0:	66666537          	lui	a0,0x66666
    13e4:	66750513          	addi	a0,a0,1639 # 66666667 <absimm+0x21374138>
    13e8:	fd350593          	addi	a1,a0,-45
    13ec:	4ab1a623          	sw	a1,1196(gp)

000013f0 <inst_322>:
    13f0:	66666537          	lui	a0,0x66666
    13f4:	66750513          	addi	a0,a0,1639 # 66666667 <absimm+0x21374138>
    13f8:	02d50593          	addi	a1,a0,45
    13fc:	4ab1a823          	sw	a1,1200(gp)

00001400 <inst_323>:
    1400:	66666537          	lui	a0,0x66666
    1404:	66750513          	addi	a0,a0,1639 # 66666667 <absimm+0x21374138>
    1408:	00250593          	addi	a1,a0,2
    140c:	4ab1aa23          	sw	a1,1204(gp)

00001410 <inst_324>:
    1410:	66666537          	lui	a0,0x66666
    1414:	66750513          	addi	a0,a0,1639 # 66666667 <absimm+0x21374138>
    1418:	55450593          	addi	a1,a0,1364
    141c:	4ab1ac23          	sw	a1,1208(gp)

00001420 <inst_325>:
    1420:	66666537          	lui	a0,0x66666
    1424:	66750513          	addi	a0,a0,1639 # 66666667 <absimm+0x21374138>
    1428:	00050593          	addi	a1,a0,0
    142c:	4ab1ae23          	sw	a1,1212(gp)

00001430 <inst_326>:
    1430:	66666537          	lui	a0,0x66666
    1434:	66750513          	addi	a0,a0,1639 # 66666667 <absimm+0x21374138>
    1438:	00450593          	addi	a1,a0,4
    143c:	4cb1a023          	sw	a1,1216(gp)

00001440 <inst_327>:
    1440:	66666537          	lui	a0,0x66666
    1444:	66750513          	addi	a0,a0,1639 # 66666667 <absimm+0x21374138>
    1448:	33250593          	addi	a1,a0,818
    144c:	4cb1a223          	sw	a1,1220(gp)

00001450 <inst_328>:
    1450:	66666537          	lui	a0,0x66666
    1454:	66750513          	addi	a0,a0,1639 # 66666667 <absimm+0x21374138>
    1458:	66550593          	addi	a1,a0,1637
    145c:	4cb1a423          	sw	a1,1224(gp)

00001460 <inst_329>:
    1460:	66666537          	lui	a0,0x66666
    1464:	66750513          	addi	a0,a0,1639 # 66666667 <absimm+0x21374138>
    1468:	02c50593          	addi	a1,a0,44
    146c:	4cb1a623          	sw	a1,1228(gp)

00001470 <inst_330>:
    1470:	66666537          	lui	a0,0x66666
    1474:	66750513          	addi	a0,a0,1639 # 66666667 <absimm+0x21374138>
    1478:	55650593          	addi	a1,a0,1366
    147c:	4cb1a823          	sw	a1,1232(gp)

00001480 <inst_331>:
    1480:	66666537          	lui	a0,0x66666
    1484:	66750513          	addi	a0,a0,1639 # 66666667 <absimm+0x21374138>
    1488:	aab50593          	addi	a1,a0,-1365
    148c:	4cb1aa23          	sw	a1,1236(gp)

00001490 <inst_332>:
    1490:	66666537          	lui	a0,0x66666
    1494:	66750513          	addi	a0,a0,1639 # 66666667 <absimm+0x21374138>
    1498:	00650593          	addi	a1,a0,6
    149c:	4cb1ac23          	sw	a1,1240(gp)

000014a0 <inst_333>:
    14a0:	66666537          	lui	a0,0x66666
    14a4:	66750513          	addi	a0,a0,1639 # 66666667 <absimm+0x21374138>
    14a8:	33450593          	addi	a1,a0,820
    14ac:	4cb1ae23          	sw	a1,1244(gp)

000014b0 <inst_334>:
    14b0:	66666537          	lui	a0,0x66666
    14b4:	66750513          	addi	a0,a0,1639 # 66666667 <absimm+0x21374138>
    14b8:	66750593          	addi	a1,a0,1639
    14bc:	4eb1a023          	sw	a1,1248(gp)

000014c0 <inst_335>:
    14c0:	66666537          	lui	a0,0x66666
    14c4:	66750513          	addi	a0,a0,1639 # 66666667 <absimm+0x21374138>
    14c8:	fd450593          	addi	a1,a0,-44
    14cc:	4eb1a223          	sw	a1,1252(gp)

000014d0 <inst_336>:
    14d0:	66666537          	lui	a0,0x66666
    14d4:	66750513          	addi	a0,a0,1639 # 66666667 <absimm+0x21374138>
    14d8:	02e50593          	addi	a1,a0,46
    14dc:	4eb1a423          	sw	a1,1256(gp)

000014e0 <inst_337>:
    14e0:	ffff5537          	lui	a0,0xffff5
    14e4:	afd50513          	addi	a0,a0,-1283 # ffff4afd <immx+0x452e702d>
    14e8:	00350593          	addi	a1,a0,3
    14ec:	4eb1a623          	sw	a1,1260(gp)

000014f0 <inst_338>:
    14f0:	ffff5537          	lui	a0,0xffff5
    14f4:	afd50513          	addi	a0,a0,-1283 # ffff4afd <immx+0x452e702d>
    14f8:	55550593          	addi	a1,a0,1365
    14fc:	4eb1a823          	sw	a1,1264(gp)

00001500 <inst_339>:
    1500:	ffff5537          	lui	a0,0xffff5
    1504:	afd50513          	addi	a0,a0,-1283 # ffff4afd <immx+0x452e702d>
    1508:	aaa50593          	addi	a1,a0,-1366
    150c:	4eb1aa23          	sw	a1,1268(gp)

00001510 <inst_340>:
    1510:	ffff5537          	lui	a0,0xffff5
    1514:	afd50513          	addi	a0,a0,-1283 # ffff4afd <immx+0x452e702d>
    1518:	00550593          	addi	a1,a0,5
    151c:	4eb1ac23          	sw	a1,1272(gp)

00001520 <inst_341>:
    1520:	ffff5537          	lui	a0,0xffff5
    1524:	afd50513          	addi	a0,a0,-1283 # ffff4afd <immx+0x452e702d>
    1528:	33350593          	addi	a1,a0,819
    152c:	4eb1ae23          	sw	a1,1276(gp)

00001530 <inst_342>:
    1530:	ffff5537          	lui	a0,0xffff5
    1534:	afd50513          	addi	a0,a0,-1283 # ffff4afd <immx+0x452e702d>
    1538:	66650593          	addi	a1,a0,1638
    153c:	50b1a023          	sw	a1,1280(gp)

00001540 <inst_343>:
    1540:	ffff5537          	lui	a0,0xffff5
    1544:	afd50513          	addi	a0,a0,-1283 # ffff4afd <immx+0x452e702d>
    1548:	fd350593          	addi	a1,a0,-45
    154c:	50b1a223          	sw	a1,1284(gp)

00001550 <inst_344>:
    1550:	ffff5537          	lui	a0,0xffff5
    1554:	afd50513          	addi	a0,a0,-1283 # ffff4afd <immx+0x452e702d>
    1558:	02d50593          	addi	a1,a0,45
    155c:	50b1a423          	sw	a1,1288(gp)

00001560 <inst_345>:
    1560:	ffff5537          	lui	a0,0xffff5
    1564:	afd50513          	addi	a0,a0,-1283 # ffff4afd <immx+0x452e702d>
    1568:	00250593          	addi	a1,a0,2
    156c:	50b1a623          	sw	a1,1292(gp)

00001570 <inst_346>:
    1570:	ffff5537          	lui	a0,0xffff5
    1574:	afd50513          	addi	a0,a0,-1283 # ffff4afd <immx+0x452e702d>
    1578:	55450593          	addi	a1,a0,1364
    157c:	50b1a823          	sw	a1,1296(gp)

00001580 <inst_347>:
    1580:	ffff5537          	lui	a0,0xffff5
    1584:	afd50513          	addi	a0,a0,-1283 # ffff4afd <immx+0x452e702d>
    1588:	00050593          	addi	a1,a0,0
    158c:	50b1aa23          	sw	a1,1300(gp)

00001590 <inst_348>:
    1590:	ffff5537          	lui	a0,0xffff5
    1594:	afd50513          	addi	a0,a0,-1283 # ffff4afd <immx+0x452e702d>
    1598:	00450593          	addi	a1,a0,4
    159c:	50b1ac23          	sw	a1,1304(gp)

000015a0 <inst_349>:
    15a0:	ffff5537          	lui	a0,0xffff5
    15a4:	afd50513          	addi	a0,a0,-1283 # ffff4afd <immx+0x452e702d>
    15a8:	33250593          	addi	a1,a0,818
    15ac:	50b1ae23          	sw	a1,1308(gp)

000015b0 <inst_350>:
    15b0:	ffff5537          	lui	a0,0xffff5
    15b4:	afd50513          	addi	a0,a0,-1283 # ffff4afd <immx+0x452e702d>
    15b8:	66550593          	addi	a1,a0,1637
    15bc:	52b1a023          	sw	a1,1312(gp)

000015c0 <inst_351>:
    15c0:	ffff5537          	lui	a0,0xffff5
    15c4:	afd50513          	addi	a0,a0,-1283 # ffff4afd <immx+0x452e702d>
    15c8:	02c50593          	addi	a1,a0,44
    15cc:	52b1a223          	sw	a1,1316(gp)

000015d0 <inst_352>:
    15d0:	ffff5537          	lui	a0,0xffff5
    15d4:	afd50513          	addi	a0,a0,-1283 # ffff4afd <immx+0x452e702d>
    15d8:	55650593          	addi	a1,a0,1366
    15dc:	52b1a423          	sw	a1,1320(gp)

000015e0 <inst_353>:
    15e0:	ffff5537          	lui	a0,0xffff5
    15e4:	afd50513          	addi	a0,a0,-1283 # ffff4afd <immx+0x452e702d>
    15e8:	aab50593          	addi	a1,a0,-1365
    15ec:	52b1a623          	sw	a1,1324(gp)

000015f0 <inst_354>:
    15f0:	ffff5537          	lui	a0,0xffff5
    15f4:	afd50513          	addi	a0,a0,-1283 # ffff4afd <immx+0x452e702d>
    15f8:	00650593          	addi	a1,a0,6
    15fc:	52b1a823          	sw	a1,1328(gp)

00001600 <inst_355>:
    1600:	ffff5537          	lui	a0,0xffff5
    1604:	afd50513          	addi	a0,a0,-1283 # ffff4afd <immx+0x452e702d>
    1608:	33450593          	addi	a1,a0,820
    160c:	52b1aa23          	sw	a1,1332(gp)

00001610 <inst_356>:
    1610:	ffff5537          	lui	a0,0xffff5
    1614:	afd50513          	addi	a0,a0,-1283 # ffff4afd <immx+0x452e702d>
    1618:	66750593          	addi	a1,a0,1639
    161c:	52b1ac23          	sw	a1,1336(gp)

00001620 <inst_357>:
    1620:	ffff5537          	lui	a0,0xffff5
    1624:	afd50513          	addi	a0,a0,-1283 # ffff4afd <immx+0x452e702d>
    1628:	fd450593          	addi	a1,a0,-44
    162c:	52b1ae23          	sw	a1,1340(gp)

00001630 <inst_358>:
    1630:	ffff5537          	lui	a0,0xffff5
    1634:	afd50513          	addi	a0,a0,-1283 # ffff4afd <immx+0x452e702d>
    1638:	02e50593          	addi	a1,a0,46
    163c:	54b1a023          	sw	a1,1344(gp)

00001640 <inst_359>:
    1640:	0000b537          	lui	a0,0xb
    1644:	50550513          	addi	a0,a0,1285 # b505 <_end+0x19fd>
    1648:	00350593          	addi	a1,a0,3
    164c:	54b1a223          	sw	a1,1348(gp)

00001650 <inst_360>:
    1650:	0000b537          	lui	a0,0xb
    1654:	50550513          	addi	a0,a0,1285 # b505 <_end+0x19fd>
    1658:	55550593          	addi	a1,a0,1365
    165c:	54b1a423          	sw	a1,1352(gp)

00001660 <inst_361>:
    1660:	0000b537          	lui	a0,0xb
    1664:	50550513          	addi	a0,a0,1285 # b505 <_end+0x19fd>
    1668:	aaa50593          	addi	a1,a0,-1366
    166c:	54b1a623          	sw	a1,1356(gp)

00001670 <inst_362>:
    1670:	0000b537          	lui	a0,0xb
    1674:	50550513          	addi	a0,a0,1285 # b505 <_end+0x19fd>
    1678:	00550593          	addi	a1,a0,5
    167c:	54b1a823          	sw	a1,1360(gp)

00001680 <inst_363>:
    1680:	0000b537          	lui	a0,0xb
    1684:	50550513          	addi	a0,a0,1285 # b505 <_end+0x19fd>
    1688:	33350593          	addi	a1,a0,819
    168c:	54b1aa23          	sw	a1,1364(gp)

00001690 <inst_364>:
    1690:	0000b537          	lui	a0,0xb
    1694:	50550513          	addi	a0,a0,1285 # b505 <_end+0x19fd>
    1698:	66650593          	addi	a1,a0,1638
    169c:	54b1ac23          	sw	a1,1368(gp)

000016a0 <inst_365>:
    16a0:	0000b537          	lui	a0,0xb
    16a4:	50550513          	addi	a0,a0,1285 # b505 <_end+0x19fd>
    16a8:	fd350593          	addi	a1,a0,-45
    16ac:	54b1ae23          	sw	a1,1372(gp)

000016b0 <inst_366>:
    16b0:	0000b537          	lui	a0,0xb
    16b4:	50550513          	addi	a0,a0,1285 # b505 <_end+0x19fd>
    16b8:	02d50593          	addi	a1,a0,45
    16bc:	56b1a023          	sw	a1,1376(gp)

000016c0 <inst_367>:
    16c0:	0000b537          	lui	a0,0xb
    16c4:	50550513          	addi	a0,a0,1285 # b505 <_end+0x19fd>
    16c8:	00250593          	addi	a1,a0,2
    16cc:	56b1a223          	sw	a1,1380(gp)

000016d0 <inst_368>:
    16d0:	0000b537          	lui	a0,0xb
    16d4:	50550513          	addi	a0,a0,1285 # b505 <_end+0x19fd>
    16d8:	55450593          	addi	a1,a0,1364
    16dc:	56b1a423          	sw	a1,1384(gp)

000016e0 <inst_369>:
    16e0:	0000b537          	lui	a0,0xb
    16e4:	50550513          	addi	a0,a0,1285 # b505 <_end+0x19fd>
    16e8:	00050593          	addi	a1,a0,0
    16ec:	56b1a623          	sw	a1,1388(gp)

000016f0 <inst_370>:
    16f0:	0000b537          	lui	a0,0xb
    16f4:	50550513          	addi	a0,a0,1285 # b505 <_end+0x19fd>
    16f8:	00450593          	addi	a1,a0,4
    16fc:	56b1a823          	sw	a1,1392(gp)

00001700 <inst_371>:
    1700:	0000b537          	lui	a0,0xb
    1704:	50550513          	addi	a0,a0,1285 # b505 <_end+0x19fd>
    1708:	33250593          	addi	a1,a0,818
    170c:	56b1aa23          	sw	a1,1396(gp)

00001710 <inst_372>:
    1710:	0000b537          	lui	a0,0xb
    1714:	50550513          	addi	a0,a0,1285 # b505 <_end+0x19fd>
    1718:	66550593          	addi	a1,a0,1637
    171c:	56b1ac23          	sw	a1,1400(gp)

00001720 <inst_373>:
    1720:	0000b537          	lui	a0,0xb
    1724:	50550513          	addi	a0,a0,1285 # b505 <_end+0x19fd>
    1728:	02c50593          	addi	a1,a0,44
    172c:	56b1ae23          	sw	a1,1404(gp)

00001730 <inst_374>:
    1730:	0000b537          	lui	a0,0xb
    1734:	50550513          	addi	a0,a0,1285 # b505 <_end+0x19fd>
    1738:	55650593          	addi	a1,a0,1366
    173c:	58b1a023          	sw	a1,1408(gp)

00001740 <inst_375>:
    1740:	0000b537          	lui	a0,0xb
    1744:	50550513          	addi	a0,a0,1285 # b505 <_end+0x19fd>
    1748:	aab50593          	addi	a1,a0,-1365
    174c:	58b1a223          	sw	a1,1412(gp)

00001750 <inst_376>:
    1750:	0000b537          	lui	a0,0xb
    1754:	50550513          	addi	a0,a0,1285 # b505 <_end+0x19fd>
    1758:	00650593          	addi	a1,a0,6
    175c:	58b1a423          	sw	a1,1416(gp)

00001760 <inst_377>:
    1760:	0000b537          	lui	a0,0xb
    1764:	50550513          	addi	a0,a0,1285 # b505 <_end+0x19fd>
    1768:	33450593          	addi	a1,a0,820
    176c:	58b1a623          	sw	a1,1420(gp)

00001770 <inst_378>:
    1770:	0000b537          	lui	a0,0xb
    1774:	50550513          	addi	a0,a0,1285 # b505 <_end+0x19fd>
    1778:	66750593          	addi	a1,a0,1639
    177c:	58b1a823          	sw	a1,1424(gp)

00001780 <inst_379>:
    1780:	0000b537          	lui	a0,0xb
    1784:	50550513          	addi	a0,a0,1285 # b505 <_end+0x19fd>
    1788:	fd450593          	addi	a1,a0,-44
    178c:	58b1aa23          	sw	a1,1428(gp)

00001790 <inst_380>:
    1790:	0000b537          	lui	a0,0xb
    1794:	50550513          	addi	a0,a0,1285 # b505 <_end+0x19fd>
    1798:	02e50593          	addi	a1,a0,46
    179c:	58b1ac23          	sw	a1,1432(gp)

000017a0 <inst_381>:
    17a0:	00000513          	addi	a0,zero,0
    17a4:	00250593          	addi	a1,a0,2
    17a8:	58b1ae23          	sw	a1,1436(gp)

000017ac <inst_382>:
    17ac:	00000513          	addi	a0,zero,0
    17b0:	55450593          	addi	a1,a0,1364
    17b4:	5ab1a023          	sw	a1,1440(gp)

000017b8 <inst_383>:
    17b8:	00000513          	addi	a0,zero,0
    17bc:	00050593          	addi	a1,a0,0
    17c0:	5ab1a223          	sw	a1,1444(gp)

000017c4 <inst_384>:
    17c4:	00000513          	addi	a0,zero,0
    17c8:	00450593          	addi	a1,a0,4
    17cc:	5ab1a423          	sw	a1,1448(gp)

000017d0 <inst_385>:
    17d0:	00000513          	addi	a0,zero,0
    17d4:	33250593          	addi	a1,a0,818
    17d8:	5ab1a623          	sw	a1,1452(gp)

000017dc <inst_386>:
    17dc:	00000513          	addi	a0,zero,0
    17e0:	66550593          	addi	a1,a0,1637
    17e4:	5ab1a823          	sw	a1,1456(gp)

000017e8 <inst_387>:
    17e8:	00000513          	addi	a0,zero,0
    17ec:	02c50593          	addi	a1,a0,44
    17f0:	5ab1aa23          	sw	a1,1460(gp)

000017f4 <inst_388>:
    17f4:	00000513          	addi	a0,zero,0
    17f8:	55650593          	addi	a1,a0,1366
    17fc:	5ab1ac23          	sw	a1,1464(gp)

00001800 <inst_389>:
    1800:	00000513          	addi	a0,zero,0
    1804:	aab50593          	addi	a1,a0,-1365
    1808:	5ab1ae23          	sw	a1,1468(gp)

0000180c <inst_390>:
    180c:	00000513          	addi	a0,zero,0
    1810:	00650593          	addi	a1,a0,6
    1814:	5cb1a023          	sw	a1,1472(gp)

00001818 <inst_391>:
    1818:	00000513          	addi	a0,zero,0
    181c:	33450593          	addi	a1,a0,820
    1820:	5cb1a223          	sw	a1,1476(gp)

00001824 <inst_392>:
    1824:	00000513          	addi	a0,zero,0
    1828:	66750593          	addi	a1,a0,1639
    182c:	5cb1a423          	sw	a1,1480(gp)

00001830 <inst_393>:
    1830:	00000513          	addi	a0,zero,0
    1834:	fd450593          	addi	a1,a0,-44
    1838:	5cb1a623          	sw	a1,1484(gp)

0000183c <inst_394>:
    183c:	00000513          	addi	a0,zero,0
    1840:	02e50593          	addi	a1,a0,46
    1844:	5cb1a823          	sw	a1,1488(gp)

00001848 <inst_395>:
    1848:	00400513          	addi	a0,zero,4
    184c:	00350593          	addi	a1,a0,3
    1850:	5cb1aa23          	sw	a1,1492(gp)

00001854 <inst_396>:
    1854:	00400513          	addi	a0,zero,4
    1858:	55550593          	addi	a1,a0,1365
    185c:	5cb1ac23          	sw	a1,1496(gp)

00001860 <inst_397>:
    1860:	00400513          	addi	a0,zero,4
    1864:	aaa50593          	addi	a1,a0,-1366
    1868:	5cb1ae23          	sw	a1,1500(gp)

0000186c <inst_398>:
    186c:	00400513          	addi	a0,zero,4
    1870:	00550593          	addi	a1,a0,5
    1874:	5eb1a023          	sw	a1,1504(gp)

00001878 <inst_399>:
    1878:	00400513          	addi	a0,zero,4
    187c:	33350593          	addi	a1,a0,819
    1880:	5eb1a223          	sw	a1,1508(gp)

00001884 <inst_400>:
    1884:	00400513          	addi	a0,zero,4
    1888:	66650593          	addi	a1,a0,1638
    188c:	5eb1a423          	sw	a1,1512(gp)

00001890 <inst_401>:
    1890:	00400513          	addi	a0,zero,4
    1894:	fd350593          	addi	a1,a0,-45
    1898:	5eb1a623          	sw	a1,1516(gp)

0000189c <inst_402>:
    189c:	00400513          	addi	a0,zero,4
    18a0:	02d50593          	addi	a1,a0,45
    18a4:	5eb1a823          	sw	a1,1520(gp)

000018a8 <inst_403>:
    18a8:	00400513          	addi	a0,zero,4
    18ac:	00250593          	addi	a1,a0,2
    18b0:	5eb1aa23          	sw	a1,1524(gp)

000018b4 <inst_404>:
    18b4:	00400513          	addi	a0,zero,4
    18b8:	55450593          	addi	a1,a0,1364
    18bc:	5eb1ac23          	sw	a1,1528(gp)

000018c0 <inst_405>:
    18c0:	00400513          	addi	a0,zero,4
    18c4:	00050593          	addi	a1,a0,0
    18c8:	5eb1ae23          	sw	a1,1532(gp)

000018cc <inst_406>:
    18cc:	00400513          	addi	a0,zero,4
    18d0:	33250593          	addi	a1,a0,818
    18d4:	60b1a023          	sw	a1,1536(gp)

000018d8 <inst_407>:
    18d8:	00400513          	addi	a0,zero,4
    18dc:	66550593          	addi	a1,a0,1637
    18e0:	60b1a223          	sw	a1,1540(gp)

000018e4 <inst_408>:
    18e4:	00400513          	addi	a0,zero,4
    18e8:	02c50593          	addi	a1,a0,44
    18ec:	60b1a423          	sw	a1,1544(gp)

000018f0 <inst_409>:
    18f0:	00400513          	addi	a0,zero,4
    18f4:	55650593          	addi	a1,a0,1366
    18f8:	60b1a623          	sw	a1,1548(gp)

000018fc <inst_410>:
    18fc:	00400513          	addi	a0,zero,4
    1900:	aab50593          	addi	a1,a0,-1365
    1904:	60b1a823          	sw	a1,1552(gp)

00001908 <inst_411>:
    1908:	00400513          	addi	a0,zero,4
    190c:	00650593          	addi	a1,a0,6
    1910:	60b1aa23          	sw	a1,1556(gp)

00001914 <inst_412>:
    1914:	00400513          	addi	a0,zero,4
    1918:	33450593          	addi	a1,a0,820
    191c:	60b1ac23          	sw	a1,1560(gp)

00001920 <inst_413>:
    1920:	00400513          	addi	a0,zero,4
    1924:	66750593          	addi	a1,a0,1639
    1928:	60b1ae23          	sw	a1,1564(gp)

0000192c <inst_414>:
    192c:	00400513          	addi	a0,zero,4
    1930:	fd450593          	addi	a1,a0,-44
    1934:	62b1a023          	sw	a1,1568(gp)

00001938 <inst_415>:
    1938:	00400513          	addi	a0,zero,4
    193c:	02e50593          	addi	a1,a0,46
    1940:	62b1a223          	sw	a1,1572(gp)

00001944 <inst_416>:
    1944:	33333537          	lui	a0,0x33333
    1948:	33250513          	addi	a0,a0,818 # 33333332 <_end+0x3332982a>
    194c:	00350593          	addi	a1,a0,3
    1950:	62b1a423          	sw	a1,1576(gp)

00001954 <inst_417>:
    1954:	33333537          	lui	a0,0x33333
    1958:	33250513          	addi	a0,a0,818 # 33333332 <_end+0x3332982a>
    195c:	55550593          	addi	a1,a0,1365
    1960:	62b1a623          	sw	a1,1580(gp)

00001964 <inst_418>:
    1964:	33333537          	lui	a0,0x33333
    1968:	33250513          	addi	a0,a0,818 # 33333332 <_end+0x3332982a>
    196c:	aaa50593          	addi	a1,a0,-1366
    1970:	62b1a823          	sw	a1,1584(gp)

00001974 <inst_419>:
    1974:	33333537          	lui	a0,0x33333
    1978:	33250513          	addi	a0,a0,818 # 33333332 <_end+0x3332982a>
    197c:	00550593          	addi	a1,a0,5
    1980:	62b1aa23          	sw	a1,1588(gp)

00001984 <inst_420>:
    1984:	33333537          	lui	a0,0x33333
    1988:	33250513          	addi	a0,a0,818 # 33333332 <_end+0x3332982a>
    198c:	33350593          	addi	a1,a0,819
    1990:	62b1ac23          	sw	a1,1592(gp)

00001994 <inst_421>:
    1994:	33333537          	lui	a0,0x33333
    1998:	33250513          	addi	a0,a0,818 # 33333332 <_end+0x3332982a>
    199c:	66650593          	addi	a1,a0,1638
    19a0:	62b1ae23          	sw	a1,1596(gp)

000019a4 <inst_422>:
    19a4:	33333537          	lui	a0,0x33333
    19a8:	33250513          	addi	a0,a0,818 # 33333332 <_end+0x3332982a>
    19ac:	fd350593          	addi	a1,a0,-45
    19b0:	64b1a023          	sw	a1,1600(gp)

000019b4 <inst_423>:
    19b4:	33333537          	lui	a0,0x33333
    19b8:	33250513          	addi	a0,a0,818 # 33333332 <_end+0x3332982a>
    19bc:	02d50593          	addi	a1,a0,45
    19c0:	64b1a223          	sw	a1,1604(gp)

000019c4 <inst_424>:
    19c4:	33333537          	lui	a0,0x33333
    19c8:	33250513          	addi	a0,a0,818 # 33333332 <_end+0x3332982a>
    19cc:	00250593          	addi	a1,a0,2
    19d0:	64b1a423          	sw	a1,1608(gp)

000019d4 <inst_425>:
    19d4:	33333537          	lui	a0,0x33333
    19d8:	33250513          	addi	a0,a0,818 # 33333332 <_end+0x3332982a>
    19dc:	55450593          	addi	a1,a0,1364
    19e0:	64b1a623          	sw	a1,1612(gp)

000019e4 <inst_426>:
    19e4:	33333537          	lui	a0,0x33333
    19e8:	33250513          	addi	a0,a0,818 # 33333332 <_end+0x3332982a>
    19ec:	00050593          	addi	a1,a0,0
    19f0:	64b1a823          	sw	a1,1616(gp)

000019f4 <inst_427>:
    19f4:	33333537          	lui	a0,0x33333
    19f8:	33250513          	addi	a0,a0,818 # 33333332 <_end+0x3332982a>
    19fc:	00450593          	addi	a1,a0,4
    1a00:	64b1aa23          	sw	a1,1620(gp)

00001a04 <inst_428>:
    1a04:	33333537          	lui	a0,0x33333
    1a08:	33250513          	addi	a0,a0,818 # 33333332 <_end+0x3332982a>
    1a0c:	33250593          	addi	a1,a0,818
    1a10:	64b1ac23          	sw	a1,1624(gp)

00001a14 <inst_429>:
    1a14:	33333537          	lui	a0,0x33333
    1a18:	33250513          	addi	a0,a0,818 # 33333332 <_end+0x3332982a>
    1a1c:	66550593          	addi	a1,a0,1637
    1a20:	64b1ae23          	sw	a1,1628(gp)

00001a24 <inst_430>:
    1a24:	33333537          	lui	a0,0x33333
    1a28:	33250513          	addi	a0,a0,818 # 33333332 <_end+0x3332982a>
    1a2c:	02c50593          	addi	a1,a0,44
    1a30:	66b1a023          	sw	a1,1632(gp)

00001a34 <inst_431>:
    1a34:	33333537          	lui	a0,0x33333
    1a38:	33250513          	addi	a0,a0,818 # 33333332 <_end+0x3332982a>
    1a3c:	55650593          	addi	a1,a0,1366
    1a40:	66b1a223          	sw	a1,1636(gp)

00001a44 <inst_432>:
    1a44:	33333537          	lui	a0,0x33333
    1a48:	33250513          	addi	a0,a0,818 # 33333332 <_end+0x3332982a>
    1a4c:	aab50593          	addi	a1,a0,-1365
    1a50:	66b1a423          	sw	a1,1640(gp)

00001a54 <inst_433>:
    1a54:	33333537          	lui	a0,0x33333
    1a58:	33250513          	addi	a0,a0,818 # 33333332 <_end+0x3332982a>
    1a5c:	00650593          	addi	a1,a0,6
    1a60:	66b1a623          	sw	a1,1644(gp)

00001a64 <inst_434>:
    1a64:	33333537          	lui	a0,0x33333
    1a68:	33250513          	addi	a0,a0,818 # 33333332 <_end+0x3332982a>
    1a6c:	33450593          	addi	a1,a0,820
    1a70:	66b1a823          	sw	a1,1648(gp)

00001a74 <inst_435>:
    1a74:	33333537          	lui	a0,0x33333
    1a78:	33250513          	addi	a0,a0,818 # 33333332 <_end+0x3332982a>
    1a7c:	66750593          	addi	a1,a0,1639
    1a80:	66b1aa23          	sw	a1,1652(gp)

00001a84 <inst_436>:
    1a84:	33333537          	lui	a0,0x33333
    1a88:	33250513          	addi	a0,a0,818 # 33333332 <_end+0x3332982a>
    1a8c:	fd450593          	addi	a1,a0,-44
    1a90:	66b1ac23          	sw	a1,1656(gp)

00001a94 <inst_437>:
    1a94:	33333537          	lui	a0,0x33333
    1a98:	33250513          	addi	a0,a0,818 # 33333332 <_end+0x3332982a>
    1a9c:	02e50593          	addi	a1,a0,46
    1aa0:	66b1ae23          	sw	a1,1660(gp)

00001aa4 <inst_438>:
    1aa4:	66666537          	lui	a0,0x66666
    1aa8:	66550513          	addi	a0,a0,1637 # 66666665 <absimm+0x21374136>
    1aac:	00350593          	addi	a1,a0,3
    1ab0:	68b1a023          	sw	a1,1664(gp)

00001ab4 <inst_439>:
    1ab4:	66666537          	lui	a0,0x66666
    1ab8:	66550513          	addi	a0,a0,1637 # 66666665 <absimm+0x21374136>
    1abc:	55550593          	addi	a1,a0,1365
    1ac0:	68b1a223          	sw	a1,1668(gp)

00001ac4 <inst_440>:
    1ac4:	66666537          	lui	a0,0x66666
    1ac8:	66550513          	addi	a0,a0,1637 # 66666665 <absimm+0x21374136>
    1acc:	aaa50593          	addi	a1,a0,-1366
    1ad0:	68b1a423          	sw	a1,1672(gp)

00001ad4 <inst_441>:
    1ad4:	66666537          	lui	a0,0x66666
    1ad8:	66550513          	addi	a0,a0,1637 # 66666665 <absimm+0x21374136>
    1adc:	00550593          	addi	a1,a0,5
    1ae0:	68b1a623          	sw	a1,1676(gp)

00001ae4 <inst_442>:
    1ae4:	66666537          	lui	a0,0x66666
    1ae8:	66550513          	addi	a0,a0,1637 # 66666665 <absimm+0x21374136>
    1aec:	33350593          	addi	a1,a0,819
    1af0:	68b1a823          	sw	a1,1680(gp)

00001af4 <inst_443>:
    1af4:	66666537          	lui	a0,0x66666
    1af8:	66550513          	addi	a0,a0,1637 # 66666665 <absimm+0x21374136>
    1afc:	66650593          	addi	a1,a0,1638
    1b00:	68b1aa23          	sw	a1,1684(gp)

00001b04 <inst_444>:
    1b04:	66666537          	lui	a0,0x66666
    1b08:	66550513          	addi	a0,a0,1637 # 66666665 <absimm+0x21374136>
    1b0c:	fd350593          	addi	a1,a0,-45
    1b10:	68b1ac23          	sw	a1,1688(gp)

00001b14 <inst_445>:
    1b14:	66666537          	lui	a0,0x66666
    1b18:	66550513          	addi	a0,a0,1637 # 66666665 <absimm+0x21374136>
    1b1c:	02d50593          	addi	a1,a0,45
    1b20:	68b1ae23          	sw	a1,1692(gp)

00001b24 <inst_446>:
    1b24:	66666537          	lui	a0,0x66666
    1b28:	66550513          	addi	a0,a0,1637 # 66666665 <absimm+0x21374136>
    1b2c:	00250593          	addi	a1,a0,2
    1b30:	6ab1a023          	sw	a1,1696(gp)

00001b34 <inst_447>:
    1b34:	66666537          	lui	a0,0x66666
    1b38:	66550513          	addi	a0,a0,1637 # 66666665 <absimm+0x21374136>
    1b3c:	55450593          	addi	a1,a0,1364
    1b40:	6ab1a223          	sw	a1,1700(gp)

00001b44 <inst_448>:
    1b44:	66666537          	lui	a0,0x66666
    1b48:	66550513          	addi	a0,a0,1637 # 66666665 <absimm+0x21374136>
    1b4c:	00050593          	addi	a1,a0,0
    1b50:	6ab1a423          	sw	a1,1704(gp)

00001b54 <inst_449>:
    1b54:	66666537          	lui	a0,0x66666
    1b58:	66550513          	addi	a0,a0,1637 # 66666665 <absimm+0x21374136>
    1b5c:	00450593          	addi	a1,a0,4
    1b60:	6ab1a623          	sw	a1,1708(gp)

00001b64 <inst_450>:
    1b64:	66666537          	lui	a0,0x66666
    1b68:	66550513          	addi	a0,a0,1637 # 66666665 <absimm+0x21374136>
    1b6c:	33250593          	addi	a1,a0,818
    1b70:	6ab1a823          	sw	a1,1712(gp)

00001b74 <inst_451>:
    1b74:	66666537          	lui	a0,0x66666
    1b78:	66550513          	addi	a0,a0,1637 # 66666665 <absimm+0x21374136>
    1b7c:	66550593          	addi	a1,a0,1637
    1b80:	6ab1aa23          	sw	a1,1716(gp)

00001b84 <inst_452>:
    1b84:	66666537          	lui	a0,0x66666
    1b88:	66550513          	addi	a0,a0,1637 # 66666665 <absimm+0x21374136>
    1b8c:	02c50593          	addi	a1,a0,44
    1b90:	6ab1ac23          	sw	a1,1720(gp)

00001b94 <inst_453>:
    1b94:	66666537          	lui	a0,0x66666
    1b98:	66550513          	addi	a0,a0,1637 # 66666665 <absimm+0x21374136>
    1b9c:	55650593          	addi	a1,a0,1366
    1ba0:	6ab1ae23          	sw	a1,1724(gp)

00001ba4 <inst_454>:
    1ba4:	66666537          	lui	a0,0x66666
    1ba8:	66550513          	addi	a0,a0,1637 # 66666665 <absimm+0x21374136>
    1bac:	aab50593          	addi	a1,a0,-1365
    1bb0:	6cb1a023          	sw	a1,1728(gp)

00001bb4 <inst_455>:
    1bb4:	66666537          	lui	a0,0x66666
    1bb8:	66550513          	addi	a0,a0,1637 # 66666665 <absimm+0x21374136>
    1bbc:	00650593          	addi	a1,a0,6
    1bc0:	6cb1a223          	sw	a1,1732(gp)

00001bc4 <inst_456>:
    1bc4:	66666537          	lui	a0,0x66666
    1bc8:	66550513          	addi	a0,a0,1637 # 66666665 <absimm+0x21374136>
    1bcc:	33450593          	addi	a1,a0,820
    1bd0:	6cb1a423          	sw	a1,1736(gp)

00001bd4 <inst_457>:
    1bd4:	66666537          	lui	a0,0x66666
    1bd8:	66550513          	addi	a0,a0,1637 # 66666665 <absimm+0x21374136>
    1bdc:	66750593          	addi	a1,a0,1639
    1be0:	6cb1a623          	sw	a1,1740(gp)

00001be4 <inst_458>:
    1be4:	66666537          	lui	a0,0x66666
    1be8:	66550513          	addi	a0,a0,1637 # 66666665 <absimm+0x21374136>
    1bec:	fd450593          	addi	a1,a0,-44
    1bf0:	6cb1a823          	sw	a1,1744(gp)

00001bf4 <inst_459>:
    1bf4:	66666537          	lui	a0,0x66666
    1bf8:	66550513          	addi	a0,a0,1637 # 66666665 <absimm+0x21374136>
    1bfc:	02e50593          	addi	a1,a0,46
    1c00:	6cb1aa23          	sw	a1,1748(gp)

00001c04 <inst_460>:
    1c04:	0000b537          	lui	a0,0xb
    1c08:	50350513          	addi	a0,a0,1283 # b503 <_end+0x19fb>
    1c0c:	00350593          	addi	a1,a0,3
    1c10:	6cb1ac23          	sw	a1,1752(gp)

00001c14 <inst_461>:
    1c14:	0000b537          	lui	a0,0xb
    1c18:	50350513          	addi	a0,a0,1283 # b503 <_end+0x19fb>
    1c1c:	55550593          	addi	a1,a0,1365
    1c20:	6cb1ae23          	sw	a1,1756(gp)

00001c24 <inst_462>:
    1c24:	0000b537          	lui	a0,0xb
    1c28:	50350513          	addi	a0,a0,1283 # b503 <_end+0x19fb>
    1c2c:	aaa50593          	addi	a1,a0,-1366
    1c30:	6eb1a023          	sw	a1,1760(gp)

00001c34 <inst_463>:
    1c34:	0000b537          	lui	a0,0xb
    1c38:	50350513          	addi	a0,a0,1283 # b503 <_end+0x19fb>
    1c3c:	00550593          	addi	a1,a0,5
    1c40:	6eb1a223          	sw	a1,1764(gp)

00001c44 <inst_464>:
    1c44:	0000b537          	lui	a0,0xb
    1c48:	50350513          	addi	a0,a0,1283 # b503 <_end+0x19fb>
    1c4c:	33350593          	addi	a1,a0,819
    1c50:	6eb1a423          	sw	a1,1768(gp)

00001c54 <inst_465>:
    1c54:	0000b537          	lui	a0,0xb
    1c58:	50350513          	addi	a0,a0,1283 # b503 <_end+0x19fb>
    1c5c:	66650593          	addi	a1,a0,1638
    1c60:	6eb1a623          	sw	a1,1772(gp)

00001c64 <inst_466>:
    1c64:	0000b537          	lui	a0,0xb
    1c68:	50350513          	addi	a0,a0,1283 # b503 <_end+0x19fb>
    1c6c:	fd350593          	addi	a1,a0,-45
    1c70:	6eb1a823          	sw	a1,1776(gp)

00001c74 <inst_467>:
    1c74:	0000b537          	lui	a0,0xb
    1c78:	50350513          	addi	a0,a0,1283 # b503 <_end+0x19fb>
    1c7c:	02d50593          	addi	a1,a0,45
    1c80:	6eb1aa23          	sw	a1,1780(gp)

00001c84 <inst_468>:
    1c84:	0000b537          	lui	a0,0xb
    1c88:	50350513          	addi	a0,a0,1283 # b503 <_end+0x19fb>
    1c8c:	00250593          	addi	a1,a0,2
    1c90:	6eb1ac23          	sw	a1,1784(gp)

00001c94 <inst_469>:
    1c94:	0000b537          	lui	a0,0xb
    1c98:	50350513          	addi	a0,a0,1283 # b503 <_end+0x19fb>
    1c9c:	55450593          	addi	a1,a0,1364
    1ca0:	6eb1ae23          	sw	a1,1788(gp)

00001ca4 <inst_470>:
    1ca4:	0000b537          	lui	a0,0xb
    1ca8:	50350513          	addi	a0,a0,1283 # b503 <_end+0x19fb>
    1cac:	00050593          	addi	a1,a0,0
    1cb0:	70b1a023          	sw	a1,1792(gp)

00001cb4 <inst_471>:
    1cb4:	0000b537          	lui	a0,0xb
    1cb8:	50350513          	addi	a0,a0,1283 # b503 <_end+0x19fb>
    1cbc:	00450593          	addi	a1,a0,4
    1cc0:	70b1a223          	sw	a1,1796(gp)

00001cc4 <inst_472>:
    1cc4:	0000b537          	lui	a0,0xb
    1cc8:	50350513          	addi	a0,a0,1283 # b503 <_end+0x19fb>
    1ccc:	33250593          	addi	a1,a0,818
    1cd0:	70b1a423          	sw	a1,1800(gp)

00001cd4 <inst_473>:
    1cd4:	0000b537          	lui	a0,0xb
    1cd8:	50350513          	addi	a0,a0,1283 # b503 <_end+0x19fb>
    1cdc:	66550593          	addi	a1,a0,1637
    1ce0:	70b1a623          	sw	a1,1804(gp)

00001ce4 <inst_474>:
    1ce4:	0000b537          	lui	a0,0xb
    1ce8:	50350513          	addi	a0,a0,1283 # b503 <_end+0x19fb>
    1cec:	02c50593          	addi	a1,a0,44
    1cf0:	70b1a823          	sw	a1,1808(gp)

00001cf4 <inst_475>:
    1cf4:	0000b537          	lui	a0,0xb
    1cf8:	50350513          	addi	a0,a0,1283 # b503 <_end+0x19fb>
    1cfc:	55650593          	addi	a1,a0,1366
    1d00:	70b1aa23          	sw	a1,1812(gp)

00001d04 <inst_476>:
    1d04:	0000b537          	lui	a0,0xb
    1d08:	50350513          	addi	a0,a0,1283 # b503 <_end+0x19fb>
    1d0c:	aab50593          	addi	a1,a0,-1365
    1d10:	70b1ac23          	sw	a1,1816(gp)

00001d14 <inst_477>:
    1d14:	0000b537          	lui	a0,0xb
    1d18:	50350513          	addi	a0,a0,1283 # b503 <_end+0x19fb>
    1d1c:	00650593          	addi	a1,a0,6
    1d20:	70b1ae23          	sw	a1,1820(gp)

00001d24 <inst_478>:
    1d24:	0000b537          	lui	a0,0xb
    1d28:	50350513          	addi	a0,a0,1283 # b503 <_end+0x19fb>
    1d2c:	33450593          	addi	a1,a0,820
    1d30:	72b1a023          	sw	a1,1824(gp)

00001d34 <inst_479>:
    1d34:	0000b537          	lui	a0,0xb
    1d38:	50350513          	addi	a0,a0,1283 # b503 <_end+0x19fb>
    1d3c:	66750593          	addi	a1,a0,1639
    1d40:	72b1a223          	sw	a1,1828(gp)

00001d44 <inst_480>:
    1d44:	0000b537          	lui	a0,0xb
    1d48:	50350513          	addi	a0,a0,1283 # b503 <_end+0x19fb>
    1d4c:	fd450593          	addi	a1,a0,-44
    1d50:	72b1a423          	sw	a1,1832(gp)

00001d54 <inst_481>:
    1d54:	0000b537          	lui	a0,0xb
    1d58:	50350513          	addi	a0,a0,1283 # b503 <_end+0x19fb>
    1d5c:	02e50593          	addi	a1,a0,46
    1d60:	72b1a623          	sw	a1,1836(gp)

00001d64 <inst_482>:
    1d64:	55555537          	lui	a0,0x55555
    1d68:	55650513          	addi	a0,a0,1366 # 55555556 <absimm+0x10263027>
    1d6c:	00350593          	addi	a1,a0,3
    1d70:	72b1a823          	sw	a1,1840(gp)

00001d74 <inst_483>:
    1d74:	55555537          	lui	a0,0x55555
    1d78:	55650513          	addi	a0,a0,1366 # 55555556 <absimm+0x10263027>
    1d7c:	55550593          	addi	a1,a0,1365
    1d80:	72b1aa23          	sw	a1,1844(gp)

00001d84 <inst_484>:
    1d84:	55555537          	lui	a0,0x55555
    1d88:	55650513          	addi	a0,a0,1366 # 55555556 <absimm+0x10263027>
    1d8c:	aaa50593          	addi	a1,a0,-1366
    1d90:	72b1ac23          	sw	a1,1848(gp)

00001d94 <inst_485>:
    1d94:	55555537          	lui	a0,0x55555
    1d98:	55650513          	addi	a0,a0,1366 # 55555556 <absimm+0x10263027>
    1d9c:	00550593          	addi	a1,a0,5
    1da0:	72b1ae23          	sw	a1,1852(gp)

00001da4 <inst_486>:
    1da4:	55555537          	lui	a0,0x55555
    1da8:	55650513          	addi	a0,a0,1366 # 55555556 <absimm+0x10263027>
    1dac:	33350593          	addi	a1,a0,819
    1db0:	74b1a023          	sw	a1,1856(gp)

00001db4 <inst_487>:
    1db4:	55555537          	lui	a0,0x55555
    1db8:	55650513          	addi	a0,a0,1366 # 55555556 <absimm+0x10263027>
    1dbc:	66650593          	addi	a1,a0,1638
    1dc0:	74b1a223          	sw	a1,1860(gp)

00001dc4 <inst_488>:
    1dc4:	55555537          	lui	a0,0x55555
    1dc8:	55650513          	addi	a0,a0,1366 # 55555556 <absimm+0x10263027>
    1dcc:	fd350593          	addi	a1,a0,-45
    1dd0:	74b1a423          	sw	a1,1864(gp)

00001dd4 <inst_489>:
    1dd4:	55555537          	lui	a0,0x55555
    1dd8:	55650513          	addi	a0,a0,1366 # 55555556 <absimm+0x10263027>
    1ddc:	02d50593          	addi	a1,a0,45
    1de0:	74b1a623          	sw	a1,1868(gp)

00001de4 <inst_490>:
    1de4:	55555537          	lui	a0,0x55555
    1de8:	55650513          	addi	a0,a0,1366 # 55555556 <absimm+0x10263027>
    1dec:	00250593          	addi	a1,a0,2
    1df0:	74b1a823          	sw	a1,1872(gp)

00001df4 <inst_491>:
    1df4:	55555537          	lui	a0,0x55555
    1df8:	55650513          	addi	a0,a0,1366 # 55555556 <absimm+0x10263027>
    1dfc:	55450593          	addi	a1,a0,1364
    1e00:	74b1aa23          	sw	a1,1876(gp)

00001e04 <inst_492>:
    1e04:	55555537          	lui	a0,0x55555
    1e08:	55650513          	addi	a0,a0,1366 # 55555556 <absimm+0x10263027>
    1e0c:	00050593          	addi	a1,a0,0
    1e10:	74b1ac23          	sw	a1,1880(gp)

00001e14 <inst_493>:
    1e14:	55555537          	lui	a0,0x55555
    1e18:	55650513          	addi	a0,a0,1366 # 55555556 <absimm+0x10263027>
    1e1c:	00450593          	addi	a1,a0,4
    1e20:	74b1ae23          	sw	a1,1884(gp)

00001e24 <inst_494>:
    1e24:	55555537          	lui	a0,0x55555
    1e28:	55650513          	addi	a0,a0,1366 # 55555556 <absimm+0x10263027>
    1e2c:	33250593          	addi	a1,a0,818
    1e30:	76b1a023          	sw	a1,1888(gp)

00001e34 <inst_495>:
    1e34:	55555537          	lui	a0,0x55555
    1e38:	55650513          	addi	a0,a0,1366 # 55555556 <absimm+0x10263027>
    1e3c:	66550593          	addi	a1,a0,1637
    1e40:	76b1a223          	sw	a1,1892(gp)

00001e44 <inst_496>:
    1e44:	55555537          	lui	a0,0x55555
    1e48:	55650513          	addi	a0,a0,1366 # 55555556 <absimm+0x10263027>
    1e4c:	02c50593          	addi	a1,a0,44
    1e50:	76b1a423          	sw	a1,1896(gp)

00001e54 <inst_497>:
    1e54:	55555537          	lui	a0,0x55555
    1e58:	55650513          	addi	a0,a0,1366 # 55555556 <absimm+0x10263027>
    1e5c:	55650593          	addi	a1,a0,1366
    1e60:	76b1a623          	sw	a1,1900(gp)

00001e64 <inst_498>:
    1e64:	55555537          	lui	a0,0x55555
    1e68:	55650513          	addi	a0,a0,1366 # 55555556 <absimm+0x10263027>
    1e6c:	aab50593          	addi	a1,a0,-1365
    1e70:	76b1a823          	sw	a1,1904(gp)

00001e74 <inst_499>:
    1e74:	55555537          	lui	a0,0x55555
    1e78:	55650513          	addi	a0,a0,1366 # 55555556 <absimm+0x10263027>
    1e7c:	00650593          	addi	a1,a0,6
    1e80:	76b1aa23          	sw	a1,1908(gp)

00001e84 <inst_500>:
    1e84:	55555537          	lui	a0,0x55555
    1e88:	55650513          	addi	a0,a0,1366 # 55555556 <absimm+0x10263027>
    1e8c:	33450593          	addi	a1,a0,820
    1e90:	76b1ac23          	sw	a1,1912(gp)

00001e94 <inst_501>:
    1e94:	55555537          	lui	a0,0x55555
    1e98:	55650513          	addi	a0,a0,1366 # 55555556 <absimm+0x10263027>
    1e9c:	66750593          	addi	a1,a0,1639
    1ea0:	76b1ae23          	sw	a1,1916(gp)

00001ea4 <inst_502>:
    1ea4:	55555537          	lui	a0,0x55555
    1ea8:	55650513          	addi	a0,a0,1366 # 55555556 <absimm+0x10263027>
    1eac:	fd450593          	addi	a1,a0,-44
    1eb0:	78b1a023          	sw	a1,1920(gp)

00001eb4 <inst_503>:
    1eb4:	55555537          	lui	a0,0x55555
    1eb8:	55650513          	addi	a0,a0,1366 # 55555556 <absimm+0x10263027>
    1ebc:	02e50593          	addi	a1,a0,46
    1ec0:	78b1a223          	sw	a1,1924(gp)

00001ec4 <inst_504>:
    1ec4:	aaaab537          	lui	a0,0xaaaab
    1ec8:	aab50513          	addi	a0,a0,-1365 # aaaaaaab <absimm+0x657b857c>
    1ecc:	00350593          	addi	a1,a0,3
    1ed0:	78b1a423          	sw	a1,1928(gp)

00001ed4 <inst_505>:
    1ed4:	aaaab537          	lui	a0,0xaaaab
    1ed8:	aab50513          	addi	a0,a0,-1365 # aaaaaaab <absimm+0x657b857c>
    1edc:	55550593          	addi	a1,a0,1365
    1ee0:	78b1a623          	sw	a1,1932(gp)

00001ee4 <inst_506>:
    1ee4:	aaaab537          	lui	a0,0xaaaab
    1ee8:	aab50513          	addi	a0,a0,-1365 # aaaaaaab <absimm+0x657b857c>
    1eec:	aaa50593          	addi	a1,a0,-1366
    1ef0:	78b1a823          	sw	a1,1936(gp)

00001ef4 <inst_507>:
    1ef4:	aaaab537          	lui	a0,0xaaaab
    1ef8:	aab50513          	addi	a0,a0,-1365 # aaaaaaab <absimm+0x657b857c>
    1efc:	00550593          	addi	a1,a0,5
    1f00:	78b1aa23          	sw	a1,1940(gp)

00001f04 <inst_508>:
    1f04:	aaaab537          	lui	a0,0xaaaab
    1f08:	aab50513          	addi	a0,a0,-1365 # aaaaaaab <absimm+0x657b857c>
    1f0c:	33350593          	addi	a1,a0,819
    1f10:	78b1ac23          	sw	a1,1944(gp)

00001f14 <inst_509>:
    1f14:	aaaab537          	lui	a0,0xaaaab
    1f18:	aab50513          	addi	a0,a0,-1365 # aaaaaaab <absimm+0x657b857c>
    1f1c:	66650593          	addi	a1,a0,1638
    1f20:	78b1ae23          	sw	a1,1948(gp)

00001f24 <inst_510>:
    1f24:	aaaab537          	lui	a0,0xaaaab
    1f28:	aab50513          	addi	a0,a0,-1365 # aaaaaaab <absimm+0x657b857c>
    1f2c:	fd350593          	addi	a1,a0,-45
    1f30:	7ab1a023          	sw	a1,1952(gp)

00001f34 <inst_511>:
    1f34:	aaaab537          	lui	a0,0xaaaab
    1f38:	aab50513          	addi	a0,a0,-1365 # aaaaaaab <absimm+0x657b857c>
    1f3c:	02d50593          	addi	a1,a0,45
    1f40:	7ab1a223          	sw	a1,1956(gp)

00001f44 <inst_512>:
    1f44:	aaaab537          	lui	a0,0xaaaab
    1f48:	aab50513          	addi	a0,a0,-1365 # aaaaaaab <absimm+0x657b857c>
    1f4c:	00250593          	addi	a1,a0,2
    1f50:	7ab1a423          	sw	a1,1960(gp)

00001f54 <inst_513>:
    1f54:	aaaab537          	lui	a0,0xaaaab
    1f58:	aab50513          	addi	a0,a0,-1365 # aaaaaaab <absimm+0x657b857c>
    1f5c:	55450593          	addi	a1,a0,1364
    1f60:	7ab1a623          	sw	a1,1964(gp)

00001f64 <inst_514>:
    1f64:	aaaab537          	lui	a0,0xaaaab
    1f68:	aab50513          	addi	a0,a0,-1365 # aaaaaaab <absimm+0x657b857c>
    1f6c:	00050593          	addi	a1,a0,0
    1f70:	7ab1a823          	sw	a1,1968(gp)

00001f74 <inst_515>:
    1f74:	aaaab537          	lui	a0,0xaaaab
    1f78:	aab50513          	addi	a0,a0,-1365 # aaaaaaab <absimm+0x657b857c>
    1f7c:	00450593          	addi	a1,a0,4
    1f80:	7ab1aa23          	sw	a1,1972(gp)

00001f84 <inst_516>:
    1f84:	aaaab537          	lui	a0,0xaaaab
    1f88:	aab50513          	addi	a0,a0,-1365 # aaaaaaab <absimm+0x657b857c>
    1f8c:	33250593          	addi	a1,a0,818
    1f90:	7ab1ac23          	sw	a1,1976(gp)

00001f94 <inst_517>:
    1f94:	aaaab537          	lui	a0,0xaaaab
    1f98:	aab50513          	addi	a0,a0,-1365 # aaaaaaab <absimm+0x657b857c>
    1f9c:	66550593          	addi	a1,a0,1637
    1fa0:	7ab1ae23          	sw	a1,1980(gp)

00001fa4 <inst_518>:
    1fa4:	aaaab537          	lui	a0,0xaaaab
    1fa8:	aab50513          	addi	a0,a0,-1365 # aaaaaaab <absimm+0x657b857c>
    1fac:	02c50593          	addi	a1,a0,44
    1fb0:	7cb1a023          	sw	a1,1984(gp)

00001fb4 <inst_519>:
    1fb4:	aaaab537          	lui	a0,0xaaaab
    1fb8:	aab50513          	addi	a0,a0,-1365 # aaaaaaab <absimm+0x657b857c>
    1fbc:	55650593          	addi	a1,a0,1366
    1fc0:	7cb1a223          	sw	a1,1988(gp)

00001fc4 <inst_520>:
    1fc4:	aaaab537          	lui	a0,0xaaaab
    1fc8:	aab50513          	addi	a0,a0,-1365 # aaaaaaab <absimm+0x657b857c>
    1fcc:	aab50593          	addi	a1,a0,-1365
    1fd0:	7cb1a423          	sw	a1,1992(gp)

00001fd4 <inst_521>:
    1fd4:	aaaab537          	lui	a0,0xaaaab
    1fd8:	aab50513          	addi	a0,a0,-1365 # aaaaaaab <absimm+0x657b857c>
    1fdc:	00650593          	addi	a1,a0,6
    1fe0:	7cb1a623          	sw	a1,1996(gp)

00001fe4 <inst_522>:
    1fe4:	aaaab537          	lui	a0,0xaaaab
    1fe8:	aab50513          	addi	a0,a0,-1365 # aaaaaaab <absimm+0x657b857c>
    1fec:	33450593          	addi	a1,a0,820
    1ff0:	7cb1a823          	sw	a1,2000(gp)

00001ff4 <inst_523>:
    1ff4:	aaaab537          	lui	a0,0xaaaab
    1ff8:	aab50513          	addi	a0,a0,-1365 # aaaaaaab <absimm+0x657b857c>
    1ffc:	66750593          	addi	a1,a0,1639
    2000:	7cb1aa23          	sw	a1,2004(gp)

00002004 <inst_524>:
    2004:	aaaab537          	lui	a0,0xaaaab
    2008:	aab50513          	addi	a0,a0,-1365 # aaaaaaab <absimm+0x657b857c>
    200c:	fd450593          	addi	a1,a0,-44
    2010:	7cb1ac23          	sw	a1,2008(gp)

00002014 <inst_525>:
    2014:	aaaab537          	lui	a0,0xaaaab
    2018:	aab50513          	addi	a0,a0,-1365 # aaaaaaab <absimm+0x657b857c>
    201c:	02e50593          	addi	a1,a0,46
    2020:	7cb1ae23          	sw	a1,2012(gp)

00002024 <inst_526>:
    2024:	00600513          	addi	a0,zero,6
    2028:	00350593          	addi	a1,a0,3
    202c:	7eb1a023          	sw	a1,2016(gp)

00002030 <inst_527>:
    2030:	00600513          	addi	a0,zero,6
    2034:	55550593          	addi	a1,a0,1365
    2038:	7eb1a223          	sw	a1,2020(gp)

0000203c <inst_528>:
    203c:	00600513          	addi	a0,zero,6
    2040:	aaa50593          	addi	a1,a0,-1366
    2044:	7eb1a423          	sw	a1,2024(gp)

00002048 <inst_529>:
    2048:	00600513          	addi	a0,zero,6
    204c:	00550593          	addi	a1,a0,5
    2050:	7eb1a623          	sw	a1,2028(gp)

00002054 <inst_530>:
    2054:	00600513          	addi	a0,zero,6
    2058:	33350593          	addi	a1,a0,819
    205c:	7eb1a823          	sw	a1,2032(gp)

00002060 <inst_531>:
    2060:	00600513          	addi	a0,zero,6
    2064:	66650593          	addi	a1,a0,1638
    2068:	7eb1aa23          	sw	a1,2036(gp)

0000206c <inst_532>:
    206c:	00600513          	addi	a0,zero,6
    2070:	fd350593          	addi	a1,a0,-45
    2074:	7eb1ac23          	sw	a1,2040(gp)

00002078 <inst_533>:
    2078:	00600513          	addi	a0,zero,6
    207c:	02d50593          	addi	a1,a0,45
    2080:	7eb1ae23          	sw	a1,2044(gp)
    2084:	00000013          	addi	zero,zero,0
    2088:	00000013          	addi	zero,zero,0
    208c:	00000013          	addi	zero,zero,0
    2090:	00000013          	addi	zero,zero,0
    2094:	00000013          	addi	zero,zero,0
    2098:	00000013          	addi	zero,zero,0
    209c:	00000013          	addi	zero,zero,0
    20a0:	00008197          	auipc	gp,0x8
    20a4:	8cc18193          	addi	gp,gp,-1844 # 996c <signature_x3_1>
    20a8:	00000013          	addi	zero,zero,0
    20ac:	00000013          	addi	zero,zero,0
    20b0:	00000013          	addi	zero,zero,0
    20b4:	00000013          	addi	zero,zero,0
    20b8:	00000013          	addi	zero,zero,0
    20bc:	00000013          	addi	zero,zero,0

000020c0 <inst_534>:
    20c0:	00600513          	addi	a0,zero,6
    20c4:	00250593          	addi	a1,a0,2
    20c8:	00b1a023          	sw	a1,0(gp)

000020cc <inst_535>:
    20cc:	00600513          	addi	a0,zero,6
    20d0:	55450593          	addi	a1,a0,1364
    20d4:	00b1a223          	sw	a1,4(gp)

000020d8 <inst_536>:
    20d8:	00600513          	addi	a0,zero,6
    20dc:	00050593          	addi	a1,a0,0
    20e0:	00b1a423          	sw	a1,8(gp)

000020e4 <inst_537>:
    20e4:	00600513          	addi	a0,zero,6
    20e8:	00450593          	addi	a1,a0,4
    20ec:	00b1a623          	sw	a1,12(gp)

000020f0 <inst_538>:
    20f0:	00600513          	addi	a0,zero,6
    20f4:	33250593          	addi	a1,a0,818
    20f8:	00b1a823          	sw	a1,16(gp)

000020fc <inst_539>:
    20fc:	00600513          	addi	a0,zero,6
    2100:	66550593          	addi	a1,a0,1637
    2104:	00b1aa23          	sw	a1,20(gp)

00002108 <inst_540>:
    2108:	00600513          	addi	a0,zero,6
    210c:	02c50593          	addi	a1,a0,44
    2110:	00b1ac23          	sw	a1,24(gp)

00002114 <inst_541>:
    2114:	00600513          	addi	a0,zero,6
    2118:	55650593          	addi	a1,a0,1366
    211c:	00b1ae23          	sw	a1,28(gp)

00002120 <inst_542>:
    2120:	00600513          	addi	a0,zero,6
    2124:	aab50593          	addi	a1,a0,-1365
    2128:	02b1a023          	sw	a1,32(gp)

0000212c <inst_543>:
    212c:	00600513          	addi	a0,zero,6
    2130:	00650593          	addi	a1,a0,6
    2134:	02b1a223          	sw	a1,36(gp)

00002138 <inst_544>:
    2138:	00600513          	addi	a0,zero,6
    213c:	33450593          	addi	a1,a0,820
    2140:	02b1a423          	sw	a1,40(gp)

00002144 <inst_545>:
    2144:	00600513          	addi	a0,zero,6
    2148:	66750593          	addi	a1,a0,1639
    214c:	02b1a623          	sw	a1,44(gp)

00002150 <inst_546>:
    2150:	00600513          	addi	a0,zero,6
    2154:	fd450593          	addi	a1,a0,-44
    2158:	02b1a823          	sw	a1,48(gp)

0000215c <inst_547>:
    215c:	00600513          	addi	a0,zero,6
    2160:	02e50593          	addi	a1,a0,46
    2164:	02b1aa23          	sw	a1,52(gp)

00002168 <inst_548>:
    2168:	33333537          	lui	a0,0x33333
    216c:	33450513          	addi	a0,a0,820 # 33333334 <_end+0x3332982c>
    2170:	00350593          	addi	a1,a0,3
    2174:	02b1ac23          	sw	a1,56(gp)

00002178 <inst_549>:
    2178:	33333537          	lui	a0,0x33333
    217c:	33450513          	addi	a0,a0,820 # 33333334 <_end+0x3332982c>
    2180:	55550593          	addi	a1,a0,1365
    2184:	02b1ae23          	sw	a1,60(gp)

00002188 <inst_550>:
    2188:	33333537          	lui	a0,0x33333
    218c:	33450513          	addi	a0,a0,820 # 33333334 <_end+0x3332982c>
    2190:	aaa50593          	addi	a1,a0,-1366
    2194:	04b1a023          	sw	a1,64(gp)

00002198 <inst_551>:
    2198:	33333537          	lui	a0,0x33333
    219c:	33450513          	addi	a0,a0,820 # 33333334 <_end+0x3332982c>
    21a0:	00550593          	addi	a1,a0,5
    21a4:	04b1a223          	sw	a1,68(gp)

000021a8 <inst_552>:
    21a8:	33333537          	lui	a0,0x33333
    21ac:	33450513          	addi	a0,a0,820 # 33333334 <_end+0x3332982c>
    21b0:	33350593          	addi	a1,a0,819
    21b4:	04b1a423          	sw	a1,72(gp)

000021b8 <inst_553>:
    21b8:	33333537          	lui	a0,0x33333
    21bc:	33450513          	addi	a0,a0,820 # 33333334 <_end+0x3332982c>
    21c0:	66650593          	addi	a1,a0,1638
    21c4:	04b1a623          	sw	a1,76(gp)

000021c8 <inst_554>:
    21c8:	33333537          	lui	a0,0x33333
    21cc:	33450513          	addi	a0,a0,820 # 33333334 <_end+0x3332982c>
    21d0:	fd350593          	addi	a1,a0,-45
    21d4:	04b1a823          	sw	a1,80(gp)

000021d8 <inst_555>:
    21d8:	33333537          	lui	a0,0x33333
    21dc:	33450513          	addi	a0,a0,820 # 33333334 <_end+0x3332982c>
    21e0:	02d50593          	addi	a1,a0,45
    21e4:	04b1aa23          	sw	a1,84(gp)

000021e8 <inst_556>:
    21e8:	33333537          	lui	a0,0x33333
    21ec:	33450513          	addi	a0,a0,820 # 33333334 <_end+0x3332982c>
    21f0:	00250593          	addi	a1,a0,2
    21f4:	04b1ac23          	sw	a1,88(gp)

000021f8 <inst_557>:
    21f8:	33333537          	lui	a0,0x33333
    21fc:	33450513          	addi	a0,a0,820 # 33333334 <_end+0x3332982c>
    2200:	55450593          	addi	a1,a0,1364
    2204:	04b1ae23          	sw	a1,92(gp)

00002208 <inst_558>:
    2208:	33333537          	lui	a0,0x33333
    220c:	33450513          	addi	a0,a0,820 # 33333334 <_end+0x3332982c>
    2210:	00050593          	addi	a1,a0,0
    2214:	06b1a023          	sw	a1,96(gp)

00002218 <inst_559>:
    2218:	33333537          	lui	a0,0x33333
    221c:	33450513          	addi	a0,a0,820 # 33333334 <_end+0x3332982c>
    2220:	00450593          	addi	a1,a0,4
    2224:	06b1a223          	sw	a1,100(gp)

00002228 <inst_560>:
    2228:	ffe00537          	lui	a0,0xffe00
    222c:	fff50513          	addi	a0,a0,-1 # ffdfffff <immx+0x450f252f>
    2230:	04050593          	addi	a1,a0,64
    2234:	06b1a423          	sw	a1,104(gp)

00002238 <cleanup_epilogs>:
    2238:	0200006f          	jal	zero,2258 <exit_cleanup>

0000223c <abort_tests>:
    223c:	17812483          	lw	s1,376(sp)
    2240:	18012303          	lw	t1,384(sp)
    2244:	00930333          	add	t1,t1,s1
    2248:	bad0e337          	lui	t1,0xbad0e
    224c:	ad030313          	addi	t1,t1,-1328 # bad0dad0 <immx>
    2250:	fe64ae23          	sw	t1,-4(s1)
    2254:	0040006f          	jal	zero,2258 <exit_cleanup>

00002258 <exit_cleanup>:
    2258:	00007517          	auipc	a0,0x7
    225c:	eb850513          	addi	a0,a0,-328 # 9110 <begin_signature>
    2260:	00007597          	auipc	a1,0x7
    2264:	78058593          	addi	a1,a1,1920 # 99e0 <end_signature>
    2268:	00008637          	lui	a2,0x8
    226c:	00460613          	addi	a2,a2,4 # 8004 <rvtest_data_begin+0x4>

00002270 <sig_dump_loop>:
    2270:	00052283          	lw	t0,0(a0)
    2274:	00562023          	sw	t0,0(a2)
    2278:	00450513          	addi	a0,a0,4
    227c:	00b55463          	bge	a0,a1,2284 <end_sim>
    2280:	ff1ff06f          	jal	zero,2270 <sig_dump_loop>

00002284 <end_sim>:
    2284:	00008537          	lui	a0,0x8
    2288:	00850513          	addi	a0,a0,8 # 8008 <rvtest_data_begin+0x8>
    228c:	cafed5b7          	lui	a1,0xcafed
    2290:	afe58593          	addi	a1,a1,-1282 # cafecafe <immx+0x102df02e>
    2294:	00b52023          	sw	a1,0(a0)
    2298:	fedff06f          	jal	zero,2284 <end_sim>
	...
