
my.elf:     file format elf32-littleriscv


Disassembly of section .text.init:

00000000 <rvtest_entry_point>:
       0:	7d5c0837          	lui	a6,0x7d5c0
       4:	ddb80813          	addi	a6,a6,-549 # 7d5bfddb <absimm+0x382cd8ac>
       8:	00785893          	srli	a7,a6,0x7
       c:	01985793          	srli	a5,a6,0x19
      10:	00f8e8b3          	or	a7,a7,a5
      14:	0078d913          	srli	s2,a7,0x7
      18:	0198d793          	srli	a5,a7,0x19
      1c:	00f96933          	or	s2,s2,a5
      20:	00795993          	srli	s3,s2,0x7
      24:	01995793          	srli	a5,s2,0x19
      28:	00f9e9b3          	or	s3,s3,a5
      2c:	0079da13          	srli	s4,s3,0x7
      30:	0199d793          	srli	a5,s3,0x19
      34:	00fa6a33          	or	s4,s4,a5
      38:	007a5a93          	srli	s5,s4,0x7
      3c:	019a5793          	srli	a5,s4,0x19
      40:	00faeab3          	or	s5,s5,a5
      44:	007adb13          	srli	s6,s5,0x7
      48:	019ad793          	srli	a5,s5,0x19
      4c:	00fb6b33          	or	s6,s6,a5
      50:	007b5b93          	srli	s7,s6,0x7
      54:	019b5793          	srli	a5,s6,0x19
      58:	00fbebb3          	or	s7,s7,a5
      5c:	007bdc13          	srli	s8,s7,0x7
      60:	019bd793          	srli	a5,s7,0x19
      64:	00fc6c33          	or	s8,s8,a5
      68:	007c5c93          	srli	s9,s8,0x7
      6c:	019c5793          	srli	a5,s8,0x19
      70:	00fcecb3          	or	s9,s9,a5
      74:	007cdd13          	srli	s10,s9,0x7
      78:	019cd793          	srli	a5,s9,0x19
      7c:	00fd6d33          	or	s10,s10,a5
      80:	007d5d93          	srli	s11,s10,0x7
      84:	019d5793          	srli	a5,s10,0x19
      88:	00fdedb3          	or	s11,s11,a5
      8c:	007dde13          	srli	t3,s11,0x7
      90:	019dd793          	srli	a5,s11,0x19
      94:	00fe6e33          	or	t3,t3,a5
      98:	007e5e93          	srli	t4,t3,0x7
      9c:	019e5793          	srli	a5,t3,0x19
      a0:	00feeeb3          	or	t4,t4,a5
      a4:	007edf13          	srli	t5,t4,0x7
      a8:	019ed793          	srli	a5,t4,0x19
      ac:	00ff6f33          	or	t5,t5,a5
      b0:	feedc0b7          	lui	ra,0xfeedc
      b4:	ead08093          	addi	ra,ra,-339 # feedbead <immx+0x441ce3dd>
      b8:	0070d113          	srli	sp,ra,0x7
      bc:	0190d793          	srli	a5,ra,0x19
      c0:	00f16133          	or	sp,sp,a5
      c4:	00715193          	srli	gp,sp,0x7
      c8:	01915793          	srli	a5,sp,0x19
      cc:	00f1e1b3          	or	gp,gp,a5
      d0:	0071d213          	srli	tp,gp,0x7
      d4:	0191d793          	srli	a5,gp,0x19
      d8:	00f26233          	or	tp,tp,a5
      dc:	00725293          	srli	t0,tp,0x7
      e0:	01925793          	srli	a5,tp,0x19
      e4:	00f2e2b3          	or	t0,t0,a5
      e8:	0072d313          	srli	t1,t0,0x7
      ec:	0192d793          	srli	a5,t0,0x19
      f0:	00f36333          	or	t1,t1,a5
      f4:	00735393          	srli	t2,t1,0x7
      f8:	01935793          	srli	a5,t1,0x19
      fc:	00f3e3b3          	or	t2,t2,a5
     100:	0073d413          	srli	s0,t2,0x7
     104:	0193d793          	srli	a5,t2,0x19
     108:	00f46433          	or	s0,s0,a5
     10c:	00745493          	srli	s1,s0,0x7
     110:	01945793          	srli	a5,s0,0x19
     114:	00f4e4b3          	or	s1,s1,a5
     118:	0074d513          	srli	a0,s1,0x7
     11c:	0194d793          	srli	a5,s1,0x19
     120:	00f56533          	or	a0,a0,a5
     124:	00755593          	srli	a1,a0,0x7
     128:	01955793          	srli	a5,a0,0x19
     12c:	00f5e5b3          	or	a1,a1,a5
     130:	0075d613          	srli	a2,a1,0x7
     134:	0195d793          	srli	a5,a1,0x19
     138:	00f66633          	or	a2,a2,a5
     13c:	00765693          	srli	a3,a2,0x7
     140:	01965793          	srli	a5,a2,0x19
     144:	00f6e6b3          	or	a3,a3,a5

00000148 <rvtest_code_begin>:
     148:	00000013          	addi	zero,zero,0
     14c:	00000013          	addi	zero,zero,0
     150:	00000013          	addi	zero,zero,0
     154:	00000013          	addi	zero,zero,0
     158:	00000013          	addi	zero,zero,0
     15c:	00000013          	addi	zero,zero,0
     160:	00009497          	auipc	s1,0x9
     164:	fb448493          	addi	s1,s1,-76 # 9114 <signature_x9_0>
     168:	00000013          	addi	zero,zero,0
     16c:	00000013          	addi	zero,zero,0
     170:	00000013          	addi	zero,zero,0
     174:	00000013          	addi	zero,zero,0
     178:	00000013          	addi	zero,zero,0
     17c:	00000013          	addi	zero,zero,0

00000180 <inst_0>:
     180:	00000013          	addi	zero,zero,0
     184:	ffe00f93          	addi	t6,zero,-2
     188:	01f03fb3          	sltu	t6,zero,t6
     18c:	01f4a023          	sw	t6,0(s1)

00000190 <inst_1>:
     190:	001009b7          	lui	s3,0x100
     194:	001009b7          	lui	s3,0x100
     198:	0139b2b3          	sltu	t0,s3,s3
     19c:	0054a223          	sw	t0,4(s1)

000001a0 <inst_2>:
     1a0:	40000cb7          	lui	s9,0x40000
     1a4:	40000cb7          	lui	s9,0x40000
     1a8:	019cbcb3          	sltu	s9,s9,s9
     1ac:	0194a423          	sw	s9,8(s1)

000001b0 <inst_3>:
     1b0:	ffe00713          	addi	a4,zero,-2
     1b4:	fff00c13          	addi	s8,zero,-1
     1b8:	01873733          	sltu	a4,a4,s8
     1bc:	00e4a623          	sw	a4,12(s1)

000001c0 <inst_4>:
     1c0:	00100893          	addi	a7,zero,1
     1c4:	00100693          	addi	a3,zero,1
     1c8:	00d8b633          	sltu	a2,a7,a3
     1cc:	00c4a823          	sw	a2,16(s1)

000001d0 <inst_5>:
     1d0:	00000d13          	addi	s10,zero,0
     1d4:	00b00913          	addi	s2,zero,11
     1d8:	012d3c33          	sltu	s8,s10,s2
     1dc:	0184aa23          	sw	s8,20(s1)

000001e0 <inst_6>:
     1e0:	fff00293          	addi	t0,zero,-1
     1e4:	00000713          	addi	a4,zero,0
     1e8:	00e2b9b3          	sltu	s3,t0,a4
     1ec:	0134ac23          	sw	s3,24(s1)

000001f0 <inst_7>:
     1f0:	00400193          	addi	gp,zero,4
     1f4:	00200b13          	addi	s6,zero,2
     1f8:	0161b033          	sltu	zero,gp,s6
     1fc:	0004ae23          	sw	zero,28(s1)

00000200 <inst_8>:
     200:	f8000bb7          	lui	s7,0xf8000
     204:	fffb8b93          	addi	s7,s7,-1 # f7ffffff <immx+0x3d2f252f>
     208:	00400e93          	addi	t4,zero,4
     20c:	01dbba33          	sltu	s4,s7,t4
     210:	0344a023          	sw	s4,32(s1)

00000214 <inst_9>:
     214:	01100213          	addi	tp,zero,17
     218:	00800313          	addi	t1,zero,8
     21c:	00623533          	sltu	a0,tp,t1
     220:	02a4a223          	sw	a0,36(s1)

00000224 <inst_10>:
     224:	80000637          	lui	a2,0x80000
     228:	fff60613          	addi	a2,a2,-1 # 7fffffff <absimm+0x3ad0dad0>
     22c:	01000893          	addi	a7,zero,16
     230:	011630b3          	sltu	ra,a2,a7
     234:	0214a423          	sw	ra,40(s1)

00000238 <inst_11>:
     238:	02000f37          	lui	t5,0x2000
     23c:	02000413          	addi	s0,zero,32
     240:	008f3333          	sltu	t1,t5,s0
     244:	0264a623          	sw	t1,44(s1)

00000248 <inst_12>:
     248:	fffffab7          	lui	s5,0xfffff
     24c:	7ffa8a93          	addi	s5,s5,2047 # fffff7ff <immx+0x452f1d2f>
     250:	04000813          	addi	a6,zero,64
     254:	010ab1b3          	sltu	gp,s5,a6
     258:	0234a823          	sw	gp,48(s1)

0000025c <inst_13>:
     25c:	40000e93          	addi	t4,zero,1024
     260:	08000d13          	addi	s10,zero,128
     264:	01aeb8b3          	sltu	a7,t4,s10
     268:	0314aa23          	sw	a7,52(s1)

0000026c <inst_14>:
     26c:	00d00913          	addi	s2,zero,13
     270:	10000513          	addi	a0,zero,256
     274:	00a93e33          	sltu	t3,s2,a0
     278:	03c4ac23          	sw	t3,56(s1)

0000027c <inst_15>:
     27c:	00400113          	addi	sp,zero,4
     280:	20000e13          	addi	t3,zero,512
     284:	01c135b3          	sltu	a1,sp,t3
     288:	02b4ae23          	sw	a1,60(s1)

0000028c <inst_16>:
     28c:	fbf00413          	addi	s0,zero,-65
     290:	40000f13          	addi	t5,zero,1024
     294:	01e43eb3          	sltu	t4,s0,t5
     298:	05d4a023          	sw	t4,64(s1)

0000029c <inst_17>:
     29c:	08000b13          	addi	s6,zero,128
     2a0:	000015b7          	lui	a1,0x1
     2a4:	80058593          	addi	a1,a1,-2048 # 800 <inst_87+0x8>
     2a8:	00bb33b3          	sltu	t2,s6,a1
     2ac:	0474a223          	sw	t2,68(s1)
     2b0:	00000013          	addi	zero,zero,0
     2b4:	00000013          	addi	zero,zero,0
     2b8:	00000013          	addi	zero,zero,0
     2bc:	00000013          	addi	zero,zero,0
     2c0:	00009717          	auipc	a4,0x9
     2c4:	e9c70713          	addi	a4,a4,-356 # 915c <signature_x14_0>
     2c8:	00000013          	addi	zero,zero,0
     2cc:	00000013          	addi	zero,zero,0
     2d0:	00000013          	addi	zero,zero,0
     2d4:	00000013          	addi	zero,zero,0
     2d8:	00000013          	addi	zero,zero,0
     2dc:	00000013          	addi	zero,zero,0

000002e0 <inst_18>:
     2e0:	002007b7          	lui	a5,0x200
     2e4:	00001237          	lui	tp,0x1
     2e8:	0047b4b3          	sltu	s1,a5,tp
     2ec:	00972023          	sw	s1,0(a4)

000002f0 <inst_19>:
     2f0:	08000e13          	addi	t3,zero,128
     2f4:	00002637          	lui	a2,0x2
     2f8:	00ce36b3          	sltu	a3,t3,a2
     2fc:	00d72223          	sw	a3,4(a4)

00000300 <inst_20>:
     300:	00800fb7          	lui	t6,0x800
     304:	00004a37          	lui	s4,0x4
     308:	014fbd33          	sltu	s10,t6,s4
     30c:	01a72423          	sw	s10,8(a4)

00000310 <inst_21>:
     310:	00008db7          	lui	s11,0x8
     314:	000082b7          	lui	t0,0x8
     318:	005db833          	sltu	a6,s11,t0
     31c:	01072623          	sw	a6,12(a4)

00000320 <inst_22>:
     320:	e0000837          	lui	a6,0xe0000
     324:	fff80813          	addi	a6,a6,-1 # dfffffff <immx+0x252f252f>
     328:	00000013          	addi	zero,zero,0
     32c:	00083133          	sltu	sp,a6,zero
     330:	00272823          	sw	sp,16(a4)

00000334 <inst_23>:
     334:	00300593          	addi	a1,zero,3
     338:	000204b7          	lui	s1,0x20
     33c:	0095bbb3          	sltu	s7,a1,s1
     340:	01772a23          	sw	s7,20(a4)

00000344 <inst_24>:
     344:	80000a37          	lui	s4,0x80000
     348:	00040ab7          	lui	s5,0x40
     34c:	015a3233          	sltu	tp,s4,s5
     350:	00472c23          	sw	tp,24(a4)

00000354 <inst_25>:
     354:	200006b7          	lui	a3,0x20000
     358:	000803b7          	lui	t2,0x80
     35c:	0076bdb3          	sltu	s11,a3,t2
     360:	01b72e23          	sw	s11,28(a4)

00000364 <inst_26>:
     364:	00800393          	addi	t2,zero,8
     368:	002000b7          	lui	ra,0x200
     36c:	0013b933          	sltu	s2,t2,ra
     370:	03272023          	sw	s2,32(a4)

00000374 <inst_27>:
     374:	fff000b7          	lui	ra,0xfff00
     378:	fff08093          	addi	ra,ra,-1 # ffefffff <immx+0x451f252f>
     37c:	00400db7          	lui	s11,0x400
     380:	01b0bb33          	sltu	s6,ra,s11
     384:	03672223          	sw	s6,36(a4)

00000388 <inst_28>:
     388:	aaaab4b7          	lui	s1,0xaaaab
     38c:	aaa48493          	addi	s1,s1,-1366 # aaaaaaaa <absimm+0x657b857b>
     390:	00800bb7          	lui	s7,0x800
     394:	0174bab3          	sltu	s5,s1,s7
     398:	03572423          	sw	s5,40(a4)

0000039c <inst_29>:
     39c:	66666337          	lui	t1,0x66666
     3a0:	66730313          	addi	t1,t1,1639 # 66666667 <absimm+0x21374138>
     3a4:	01000137          	lui	sp,0x1000
     3a8:	00233f33          	sltu	t5,t1,sp
     3ac:	03e72623          	sw	t5,44(a4)

000003b0 <inst_30>:
     3b0:	fc000537          	lui	a0,0xfc000
     3b4:	fff50513          	addi	a0,a0,-1 # fbffffff <immx+0x412f252f>
     3b8:	020001b7          	lui	gp,0x2000
     3bc:	003537b3          	sltu	a5,a0,gp
     3c0:	02f72823          	sw	a5,48(a4)

000003c4 <inst_31>:
     3c4:	10000c13          	addi	s8,zero,256
     3c8:	040007b7          	lui	a5,0x4000
     3cc:	00fc3433          	sltu	s0,s8,a5
     3d0:	02872a23          	sw	s0,52(a4)

000003d4 <inst_32>:
     3d4:	ffffe537          	lui	a0,0xffffe
     3d8:	fff50513          	addi	a0,a0,-1 # ffffdfff <immx+0x452f052f>
     3dc:	080005b7          	lui	a1,0x8000
     3e0:	00b53633          	sltu	a2,a0,a1
     3e4:	02c72c23          	sw	a2,56(a4)

000003e8 <inst_33>:
     3e8:	40000537          	lui	a0,0x40000
     3ec:	100005b7          	lui	a1,0x10000
     3f0:	00b53633          	sltu	a2,a0,a1
     3f4:	02c72e23          	sw	a2,60(a4)

000003f8 <inst_34>:
     3f8:	ff000537          	lui	a0,0xff000
     3fc:	fff50513          	addi	a0,a0,-1 # feffffff <immx+0x442f252f>
     400:	200005b7          	lui	a1,0x20000
     404:	00b53633          	sltu	a2,a0,a1
     408:	04c72023          	sw	a2,64(a4)

0000040c <inst_35>:
     40c:	10000537          	lui	a0,0x10000
     410:	400005b7          	lui	a1,0x40000
     414:	00b53633          	sltu	a2,a0,a1
     418:	04c72223          	sw	a2,68(a4)

0000041c <inst_36>:
     41c:	40000537          	lui	a0,0x40000
     420:	800005b7          	lui	a1,0x80000
     424:	00b53633          	sltu	a2,a0,a1
     428:	04c72423          	sw	a2,72(a4)

0000042c <inst_37>:
     42c:	33333537          	lui	a0,0x33333
     430:	33350513          	addi	a0,a0,819 # 33333333 <_end+0x3332952b>
     434:	ffd00593          	addi	a1,zero,-3
     438:	00b53633          	sltu	a2,a0,a1
     43c:	04c72623          	sw	a2,76(a4)

00000440 <inst_38>:
     440:	00040537          	lui	a0,0x40
     444:	ffb00593          	addi	a1,zero,-5
     448:	00b53633          	sltu	a2,a0,a1
     44c:	04c72823          	sw	a2,80(a4)

00000450 <inst_39>:
     450:	66666537          	lui	a0,0x66666
     454:	66650513          	addi	a0,a0,1638 # 66666666 <absimm+0x21374137>
     458:	ff700593          	addi	a1,zero,-9
     45c:	00b53633          	sltu	a2,a0,a1
     460:	04c72a23          	sw	a2,84(a4)

00000464 <inst_40>:
     464:	00300513          	addi	a0,zero,3
     468:	fef00593          	addi	a1,zero,-17
     46c:	00b53633          	sltu	a2,a0,a1
     470:	04c72c23          	sw	a2,88(a4)

00000474 <inst_41>:
     474:	00b00513          	addi	a0,zero,11
     478:	fdf00593          	addi	a1,zero,-33
     47c:	00b53633          	sltu	a2,a0,a1
     480:	04c72e23          	sw	a2,92(a4)

00000484 <inst_42>:
     484:	00a00513          	addi	a0,zero,10
     488:	fbf00593          	addi	a1,zero,-65
     48c:	00b53633          	sltu	a2,a0,a1
     490:	06c72023          	sw	a2,96(a4)

00000494 <inst_43>:
     494:	08000513          	addi	a0,zero,128
     498:	f7f00593          	addi	a1,zero,-129
     49c:	00b53633          	sltu	a2,a0,a1
     4a0:	06c72223          	sw	a2,100(a4)

000004a4 <inst_44>:
     4a4:	ff700513          	addi	a0,zero,-9
     4a8:	eff00593          	addi	a1,zero,-257
     4ac:	00b53633          	sltu	a2,a0,a1
     4b0:	06c72423          	sw	a2,104(a4)

000004b4 <inst_45>:
     4b4:	01000537          	lui	a0,0x1000
     4b8:	dff00593          	addi	a1,zero,-513
     4bc:	00b53633          	sltu	a2,a0,a1
     4c0:	06c72623          	sw	a2,108(a4)

000004c4 <inst_46>:
     4c4:	ff700513          	addi	a0,zero,-9
     4c8:	bff00593          	addi	a1,zero,-1025
     4cc:	00b53633          	sltu	a2,a0,a1
     4d0:	06c72823          	sw	a2,112(a4)

000004d4 <inst_47>:
     4d4:	00002537          	lui	a0,0x2
     4d8:	fffff5b7          	lui	a1,0xfffff
     4dc:	7ff58593          	addi	a1,a1,2047 # fffff7ff <immx+0x452f1d2f>
     4e0:	00b53633          	sltu	a2,a0,a1
     4e4:	06c72a23          	sw	a2,116(a4)

000004e8 <inst_48>:
     4e8:	fff80537          	lui	a0,0xfff80
     4ec:	fff50513          	addi	a0,a0,-1 # fff7ffff <immx+0x4527252f>
     4f0:	fffff5b7          	lui	a1,0xfffff
     4f4:	fff58593          	addi	a1,a1,-1 # ffffefff <immx+0x452f152f>
     4f8:	00b53633          	sltu	a2,a0,a1
     4fc:	06c72c23          	sw	a2,120(a4)

00000500 <inst_49>:
     500:	00500513          	addi	a0,zero,5
     504:	ffffe5b7          	lui	a1,0xffffe
     508:	fff58593          	addi	a1,a1,-1 # ffffdfff <immx+0x452f052f>
     50c:	00b53633          	sltu	a2,a0,a1
     510:	06c72e23          	sw	a2,124(a4)

00000514 <inst_50>:
     514:	00010537          	lui	a0,0x10
     518:	ffe50513          	addi	a0,a0,-2 # fffe <_end+0x61f6>
     51c:	ffffc5b7          	lui	a1,0xffffc
     520:	fff58593          	addi	a1,a1,-1 # ffffbfff <immx+0x452ee52f>
     524:	00b53633          	sltu	a2,a0,a1
     528:	08c72023          	sw	a2,128(a4)

0000052c <inst_51>:
     52c:	fffe0537          	lui	a0,0xfffe0
     530:	fff50513          	addi	a0,a0,-1 # fffdffff <immx+0x452d252f>
     534:	ffff85b7          	lui	a1,0xffff8
     538:	fff58593          	addi	a1,a1,-1 # ffff7fff <immx+0x452ea52f>
     53c:	00b53633          	sltu	a2,a0,a1
     540:	08c72223          	sw	a2,132(a4)

00000544 <inst_52>:
     544:	00a00513          	addi	a0,zero,10
     548:	ffff05b7          	lui	a1,0xffff0
     54c:	fff58593          	addi	a1,a1,-1 # fffeffff <immx+0x452e252f>
     550:	00b53633          	sltu	a2,a0,a1
     554:	08c72423          	sw	a2,136(a4)

00000558 <inst_53>:
     558:	fff80537          	lui	a0,0xfff80
     55c:	fff50513          	addi	a0,a0,-1 # fff7ffff <immx+0x4527252f>
     560:	fffe05b7          	lui	a1,0xfffe0
     564:	fff58593          	addi	a1,a1,-1 # fffdffff <immx+0x452d252f>
     568:	00b53633          	sltu	a2,a0,a1
     56c:	08c72623          	sw	a2,140(a4)

00000570 <inst_54>:
     570:	00008537          	lui	a0,0x8
     574:	fffc05b7          	lui	a1,0xfffc0
     578:	fff58593          	addi	a1,a1,-1 # fffbffff <immx+0x452b252f>
     57c:	00b53633          	sltu	a2,a0,a1
     580:	08c72823          	sw	a2,144(a4)

00000584 <inst_55>:
     584:	04000513          	addi	a0,zero,64
     588:	fff805b7          	lui	a1,0xfff80
     58c:	fff58593          	addi	a1,a1,-1 # fff7ffff <immx+0x4527252f>
     590:	00b53633          	sltu	a2,a0,a1
     594:	08c72a23          	sw	a2,148(a4)

00000598 <inst_56>:
     598:	01000513          	addi	a0,zero,16
     59c:	fff005b7          	lui	a1,0xfff00
     5a0:	fff58593          	addi	a1,a1,-1 # ffefffff <immx+0x451f252f>
     5a4:	00b53633          	sltu	a2,a0,a1
     5a8:	08c72c23          	sw	a2,152(a4)

000005ac <inst_57>:
     5ac:	00000513          	addi	a0,zero,0
     5b0:	ffe005b7          	lui	a1,0xffe00
     5b4:	fff58593          	addi	a1,a1,-1 # ffdfffff <immx+0x450f252f>
     5b8:	00b53633          	sltu	a2,a0,a1
     5bc:	08c72e23          	sw	a2,156(a4)

000005c0 <inst_58>:
     5c0:	00400513          	addi	a0,zero,4
     5c4:	ffc005b7          	lui	a1,0xffc00
     5c8:	fff58593          	addi	a1,a1,-1 # ffbfffff <immx+0x44ef252f>
     5cc:	00b53633          	sltu	a2,a0,a1
     5d0:	0ac72023          	sw	a2,160(a4)

000005d4 <inst_59>:
     5d4:	00010537          	lui	a0,0x10
     5d8:	ffe50513          	addi	a0,a0,-2 # fffe <_end+0x61f6>
     5dc:	ff8005b7          	lui	a1,0xff800
     5e0:	fff58593          	addi	a1,a1,-1 # ff7fffff <immx+0x44af252f>
     5e4:	00b53633          	sltu	a2,a0,a1
     5e8:	0ac72223          	sw	a2,164(a4)

000005ec <inst_60>:
     5ec:	00500513          	addi	a0,zero,5
     5f0:	ff0005b7          	lui	a1,0xff000
     5f4:	fff58593          	addi	a1,a1,-1 # feffffff <immx+0x442f252f>
     5f8:	00b53633          	sltu	a2,a0,a1
     5fc:	0ac72423          	sw	a2,168(a4)

00000600 <inst_61>:
     600:	00800537          	lui	a0,0x800
     604:	fe0005b7          	lui	a1,0xfe000
     608:	fff58593          	addi	a1,a1,-1 # fdffffff <immx+0x432f252f>
     60c:	00b53633          	sltu	a2,a0,a1
     610:	0ac72623          	sw	a2,172(a4)

00000614 <inst_62>:
     614:	0000b537          	lui	a0,0xb
     618:	50350513          	addi	a0,a0,1283 # b503 <_end+0x16fb>
     61c:	fc0005b7          	lui	a1,0xfc000
     620:	fff58593          	addi	a1,a1,-1 # fbffffff <immx+0x412f252f>
     624:	00b53633          	sltu	a2,a0,a1
     628:	0ac72823          	sw	a2,176(a4)

0000062c <inst_63>:
     62c:	55555537          	lui	a0,0x55555
     630:	55550513          	addi	a0,a0,1365 # 55555555 <absimm+0x10263026>
     634:	f80005b7          	lui	a1,0xf8000
     638:	fff58593          	addi	a1,a1,-1 # f7ffffff <immx+0x3d2f252f>
     63c:	00b53633          	sltu	a2,a0,a1
     640:	0ac72a23          	sw	a2,180(a4)

00000644 <inst_64>:
     644:	ffe00537          	lui	a0,0xffe00
     648:	fff50513          	addi	a0,a0,-1 # ffdfffff <immx+0x450f252f>
     64c:	f00005b7          	lui	a1,0xf0000
     650:	fff58593          	addi	a1,a1,-1 # efffffff <immx+0x352f252f>
     654:	00b53633          	sltu	a2,a0,a1
     658:	0ac72c23          	sw	a2,184(a4)

0000065c <inst_65>:
     65c:	00300513          	addi	a0,zero,3
     660:	e00005b7          	lui	a1,0xe0000
     664:	fff58593          	addi	a1,a1,-1 # dfffffff <immx+0x252f252f>
     668:	00b53633          	sltu	a2,a0,a1
     66c:	0ac72e23          	sw	a2,188(a4)

00000670 <inst_66>:
     670:	00001537          	lui	a0,0x1
     674:	80050513          	addi	a0,a0,-2048 # 800 <inst_87+0x8>
     678:	c00005b7          	lui	a1,0xc0000
     67c:	fff58593          	addi	a1,a1,-1 # bfffffff <immx+0x52f252f>
     680:	00b53633          	sltu	a2,a0,a1
     684:	0cc72023          	sw	a2,192(a4)

00000688 <inst_67>:
     688:	00800537          	lui	a0,0x800
     68c:	800005b7          	lui	a1,0x80000
     690:	fff58593          	addi	a1,a1,-1 # 7fffffff <absimm+0x3ad0dad0>
     694:	00b53633          	sltu	a2,a0,a1
     698:	0cc72223          	sw	a2,196(a4)

0000069c <inst_68>:
     69c:	ffc00537          	lui	a0,0xffc00
     6a0:	fff50513          	addi	a0,a0,-1 # ffbfffff <immx+0x44ef252f>
     6a4:	555555b7          	lui	a1,0x55555
     6a8:	55558593          	addi	a1,a1,1365 # 55555555 <absimm+0x10263026>
     6ac:	00b53633          	sltu	a2,a0,a1
     6b0:	0cc72423          	sw	a2,200(a4)

000006b4 <inst_69>:
     6b4:	55555537          	lui	a0,0x55555
     6b8:	55450513          	addi	a0,a0,1364 # 55555554 <absimm+0x10263025>
     6bc:	aaaab5b7          	lui	a1,0xaaaab
     6c0:	aaa58593          	addi	a1,a1,-1366 # aaaaaaaa <absimm+0x657b857b>
     6c4:	00b53633          	sltu	a2,a0,a1
     6c8:	0cc72623          	sw	a2,204(a4)

000006cc <inst_70>:
     6cc:	00200513          	addi	a0,zero,2
     6d0:	666665b7          	lui	a1,0x66666
     6d4:	66558593          	addi	a1,a1,1637 # 66666665 <absimm+0x21374136>
     6d8:	00b53633          	sltu	a2,a0,a1
     6dc:	0cc72823          	sw	a2,208(a4)

000006e0 <inst_71>:
     6e0:	02000513          	addi	a0,zero,32
     6e4:	0000b5b7          	lui	a1,0xb
     6e8:	50458593          	addi	a1,a1,1284 # b504 <_end+0x16fc>
     6ec:	00b53633          	sltu	a2,a0,a1
     6f0:	0cc72a23          	sw	a2,212(a4)

000006f4 <inst_72>:
     6f4:	20000513          	addi	a0,zero,512
     6f8:	00300593          	addi	a1,zero,3
     6fc:	00b53633          	sltu	a2,a0,a1
     700:	0cc72c23          	sw	a2,216(a4)

00000704 <inst_73>:
     704:	00001537          	lui	a0,0x1
     708:	00300593          	addi	a1,zero,3
     70c:	00b53633          	sltu	a2,a0,a1
     710:	0cc72e23          	sw	a2,220(a4)

00000714 <inst_74>:
     714:	00004537          	lui	a0,0x4
     718:	00000593          	addi	a1,zero,0
     71c:	00b53633          	sltu	a2,a0,a1
     720:	0ec72023          	sw	a2,224(a4)

00000724 <inst_75>:
     724:	00010537          	lui	a0,0x10
     728:	00500593          	addi	a1,zero,5
     72c:	00b53633          	sltu	a2,a0,a1
     730:	0ec72223          	sw	a2,228(a4)

00000734 <inst_76>:
     734:	00020537          	lui	a0,0x20
     738:	000205b7          	lui	a1,0x20
     73c:	00b53633          	sltu	a2,a0,a1
     740:	0ec72423          	sw	a2,232(a4)

00000744 <inst_77>:
     744:	00080537          	lui	a0,0x80
     748:	555555b7          	lui	a1,0x55555
     74c:	55458593          	addi	a1,a1,1364 # 55555554 <absimm+0x10263025>
     750:	00b53633          	sltu	a2,a0,a1
     754:	0ec72623          	sw	a2,236(a4)

00000758 <inst_78>:
     758:	00400537          	lui	a0,0x400
     75c:	002005b7          	lui	a1,0x200
     760:	00b53633          	sltu	a2,a0,a1
     764:	0ec72823          	sw	a2,240(a4)

00000768 <inst_79>:
     768:	04000537          	lui	a0,0x4000
     76c:	555555b7          	lui	a1,0x55555
     770:	55558593          	addi	a1,a1,1365 # 55555555 <absimm+0x10263026>
     774:	00b53633          	sltu	a2,a0,a1
     778:	0ec72a23          	sw	a2,244(a4)

0000077c <inst_80>:
     77c:	08000537          	lui	a0,0x8000
     780:	fffe05b7          	lui	a1,0xfffe0
     784:	fff58593          	addi	a1,a1,-1 # fffdffff <immx+0x452d252f>
     788:	00b53633          	sltu	a2,a0,a1
     78c:	0ec72c23          	sw	a2,248(a4)

00000790 <inst_81>:
     790:	ffd00513          	addi	a0,zero,-3
     794:	01100593          	addi	a1,zero,17
     798:	00b53633          	sltu	a2,a0,a1
     79c:	0ec72e23          	sw	a2,252(a4)

000007a0 <inst_82>:
     7a0:	ffb00513          	addi	a0,zero,-5
     7a4:	f7f00593          	addi	a1,zero,-129
     7a8:	00b53633          	sltu	a2,a0,a1
     7ac:	10c72023          	sw	a2,256(a4)

000007b0 <inst_83>:
     7b0:	fef00513          	addi	a0,zero,-17
     7b4:	333335b7          	lui	a1,0x33333
     7b8:	33458593          	addi	a1,a1,820 # 33333334 <_end+0x3332952c>
     7bc:	00b53633          	sltu	a2,a0,a1
     7c0:	10c72223          	sw	a2,260(a4)

000007c4 <inst_84>:
     7c4:	fdf00513          	addi	a0,zero,-33
     7c8:	fffc05b7          	lui	a1,0xfffc0
     7cc:	fff58593          	addi	a1,a1,-1 # fffbffff <immx+0x452b252f>
     7d0:	00b53633          	sltu	a2,a0,a1
     7d4:	10c72423          	sw	a2,264(a4)

000007d8 <inst_85>:
     7d8:	f7f00513          	addi	a0,zero,-129
     7dc:	00100593          	addi	a1,zero,1
     7e0:	00b53633          	sltu	a2,a0,a1
     7e4:	10c72623          	sw	a2,268(a4)

000007e8 <inst_86>:
     7e8:	eff00513          	addi	a0,zero,-257
     7ec:	400005b7          	lui	a1,0x40000
     7f0:	00b53633          	sltu	a2,a0,a1
     7f4:	10c72823          	sw	a2,272(a4)

000007f8 <inst_87>:
     7f8:	dff00513          	addi	a0,zero,-513
     7fc:	00a00593          	addi	a1,zero,10
     800:	00b53633          	sltu	a2,a0,a1
     804:	10c72a23          	sw	a2,276(a4)

00000808 <inst_88>:
     808:	bff00513          	addi	a0,zero,-1025
     80c:	f80005b7          	lui	a1,0xf8000
     810:	fff58593          	addi	a1,a1,-1 # f7ffffff <immx+0x3d2f252f>
     814:	00b53633          	sltu	a2,a0,a1
     818:	10c72c23          	sw	a2,280(a4)

0000081c <inst_89>:
     81c:	fffff537          	lui	a0,0xfffff
     820:	fff50513          	addi	a0,a0,-1 # ffffefff <immx+0x452f152f>
     824:	001005b7          	lui	a1,0x100
     828:	00b53633          	sltu	a2,a0,a1
     82c:	10c72e23          	sw	a2,284(a4)

00000830 <inst_90>:
     830:	ffffc537          	lui	a0,0xffffc
     834:	fff50513          	addi	a0,a0,-1 # ffffbfff <immx+0x452ee52f>
     838:	000085b7          	lui	a1,0x8
     83c:	00b53633          	sltu	a2,a0,a1
     840:	12c72023          	sw	a2,288(a4)

00000844 <inst_91>:
     844:	ffff8537          	lui	a0,0xffff8
     848:	fff50513          	addi	a0,a0,-1 # ffff7fff <immx+0x452ea52f>
     84c:	ffff05b7          	lui	a1,0xffff0
     850:	fff58593          	addi	a1,a1,-1 # fffeffff <immx+0x452e252f>
     854:	00b53633          	sltu	a2,a0,a1
     858:	12c72223          	sw	a2,292(a4)

0000085c <inst_92>:
     85c:	ffff0537          	lui	a0,0xffff0
     860:	fff50513          	addi	a0,a0,-1 # fffeffff <immx+0x452e252f>
     864:	fffff5b7          	lui	a1,0xfffff
     868:	7ff58593          	addi	a1,a1,2047 # fffff7ff <immx+0x452f1d2f>
     86c:	00b53633          	sltu	a2,a0,a1
     870:	12c72423          	sw	a2,296(a4)

00000874 <inst_93>:
     874:	fffc0537          	lui	a0,0xfffc0
     878:	fff50513          	addi	a0,a0,-1 # fffbffff <immx+0x452b252f>
     87c:	fff805b7          	lui	a1,0xfff80
     880:	fff58593          	addi	a1,a1,-1 # fff7ffff <immx+0x4527252f>
     884:	00b53633          	sltu	a2,a0,a1
     888:	12c72623          	sw	a2,300(a4)

0000088c <inst_94>:
     88c:	ff800537          	lui	a0,0xff800
     890:	fff50513          	addi	a0,a0,-1 # ff7fffff <immx+0x44af252f>
     894:	00200593          	addi	a1,zero,2
     898:	00b53633          	sltu	a2,a0,a1
     89c:	12c72823          	sw	a2,304(a4)

000008a0 <inst_95>:
     8a0:	fe000537          	lui	a0,0xfe000
     8a4:	fff50513          	addi	a0,a0,-1 # fdffffff <immx+0x432f252f>
     8a8:	c00005b7          	lui	a1,0xc0000
     8ac:	fff58593          	addi	a1,a1,-1 # bfffffff <immx+0x52f252f>
     8b0:	00b53633          	sltu	a2,a0,a1
     8b4:	12c72a23          	sw	a2,308(a4)

000008b8 <inst_96>:
     8b8:	f0000537          	lui	a0,0xf0000
     8bc:	fff50513          	addi	a0,a0,-1 # efffffff <immx+0x352f252f>
     8c0:	000015b7          	lui	a1,0x1
     8c4:	80058593          	addi	a1,a1,-2048 # 800 <inst_87+0x8>
     8c8:	00b53633          	sltu	a2,a0,a1
     8cc:	12c72c23          	sw	a2,312(a4)

000008d0 <inst_97>:
     8d0:	c0000537          	lui	a0,0xc0000
     8d4:	fff50513          	addi	a0,a0,-1 # bfffffff <immx+0x52f252f>
     8d8:	00400593          	addi	a1,zero,4
     8dc:	00b53633          	sltu	a2,a0,a1
     8e0:	12c72e23          	sw	a2,316(a4)

000008e4 <inst_98>:
     8e4:	00300513          	addi	a0,zero,3
     8e8:	00300593          	addi	a1,zero,3
     8ec:	00b53633          	sltu	a2,a0,a1
     8f0:	14c72023          	sw	a2,320(a4)

000008f4 <inst_99>:
     8f4:	00300513          	addi	a0,zero,3
     8f8:	555555b7          	lui	a1,0x55555
     8fc:	55558593          	addi	a1,a1,1365 # 55555555 <absimm+0x10263026>
     900:	00b53633          	sltu	a2,a0,a1
     904:	14c72223          	sw	a2,324(a4)

00000908 <inst_100>:
     908:	00300513          	addi	a0,zero,3
     90c:	aaaab5b7          	lui	a1,0xaaaab
     910:	aaa58593          	addi	a1,a1,-1366 # aaaaaaaa <absimm+0x657b857b>
     914:	00b53633          	sltu	a2,a0,a1
     918:	14c72423          	sw	a2,328(a4)

0000091c <inst_101>:
     91c:	00300513          	addi	a0,zero,3
     920:	00500593          	addi	a1,zero,5
     924:	00b53633          	sltu	a2,a0,a1
     928:	14c72623          	sw	a2,332(a4)

0000092c <inst_102>:
     92c:	00300513          	addi	a0,zero,3
     930:	333335b7          	lui	a1,0x33333
     934:	33358593          	addi	a1,a1,819 # 33333333 <_end+0x3332952b>
     938:	00b53633          	sltu	a2,a0,a1
     93c:	14c72823          	sw	a2,336(a4)

00000940 <inst_103>:
     940:	00300513          	addi	a0,zero,3
     944:	666665b7          	lui	a1,0x66666
     948:	66658593          	addi	a1,a1,1638 # 66666666 <absimm+0x21374137>
     94c:	00b53633          	sltu	a2,a0,a1
     950:	14c72a23          	sw	a2,340(a4)

00000954 <inst_104>:
     954:	00300513          	addi	a0,zero,3
     958:	0000b5b7          	lui	a1,0xb
     95c:	50458593          	addi	a1,a1,1284 # b504 <_end+0x16fc>
     960:	00b53633          	sltu	a2,a0,a1
     964:	14c72c23          	sw	a2,344(a4)

00000968 <inst_105>:
     968:	00300513          	addi	a0,zero,3
     96c:	00000593          	addi	a1,zero,0
     970:	00b53633          	sltu	a2,a0,a1
     974:	14c72e23          	sw	a2,348(a4)

00000978 <inst_106>:
     978:	00300513          	addi	a0,zero,3
     97c:	000105b7          	lui	a1,0x10
     980:	fff58593          	addi	a1,a1,-1 # ffff <_end+0x61f7>
     984:	00b53633          	sltu	a2,a0,a1
     988:	16c72023          	sw	a2,352(a4)

0000098c <inst_107>:
     98c:	00300513          	addi	a0,zero,3
     990:	00200593          	addi	a1,zero,2
     994:	00b53633          	sltu	a2,a0,a1
     998:	16c72223          	sw	a2,356(a4)

0000099c <inst_108>:
     99c:	00300513          	addi	a0,zero,3
     9a0:	555555b7          	lui	a1,0x55555
     9a4:	55458593          	addi	a1,a1,1364 # 55555554 <absimm+0x10263025>
     9a8:	00b53633          	sltu	a2,a0,a1
     9ac:	16c72423          	sw	a2,360(a4)

000009b0 <inst_109>:
     9b0:	00300513          	addi	a0,zero,3
     9b4:	aaaab5b7          	lui	a1,0xaaaab
     9b8:	aa958593          	addi	a1,a1,-1367 # aaaaaaa9 <absimm+0x657b857a>
     9bc:	00b53633          	sltu	a2,a0,a1
     9c0:	16c72623          	sw	a2,364(a4)

000009c4 <inst_110>:
     9c4:	00300513          	addi	a0,zero,3
     9c8:	00400593          	addi	a1,zero,4
     9cc:	00b53633          	sltu	a2,a0,a1
     9d0:	16c72823          	sw	a2,368(a4)

000009d4 <inst_111>:
     9d4:	00300513          	addi	a0,zero,3
     9d8:	333335b7          	lui	a1,0x33333
     9dc:	33258593          	addi	a1,a1,818 # 33333332 <_end+0x3332952a>
     9e0:	00b53633          	sltu	a2,a0,a1
     9e4:	16c72a23          	sw	a2,372(a4)

000009e8 <inst_112>:
     9e8:	00300513          	addi	a0,zero,3
     9ec:	666665b7          	lui	a1,0x66666
     9f0:	66558593          	addi	a1,a1,1637 # 66666665 <absimm+0x21374136>
     9f4:	00b53633          	sltu	a2,a0,a1
     9f8:	16c72c23          	sw	a2,376(a4)

000009fc <inst_113>:
     9fc:	00300513          	addi	a0,zero,3
     a00:	0000b5b7          	lui	a1,0xb
     a04:	50358593          	addi	a1,a1,1283 # b503 <_end+0x16fb>
     a08:	00b53633          	sltu	a2,a0,a1
     a0c:	16c72e23          	sw	a2,380(a4)

00000a10 <inst_114>:
     a10:	00300513          	addi	a0,zero,3
     a14:	000105b7          	lui	a1,0x10
     a18:	ffe58593          	addi	a1,a1,-2 # fffe <_end+0x61f6>
     a1c:	00b53633          	sltu	a2,a0,a1
     a20:	18c72023          	sw	a2,384(a4)

00000a24 <inst_115>:
     a24:	00300513          	addi	a0,zero,3
     a28:	555555b7          	lui	a1,0x55555
     a2c:	55658593          	addi	a1,a1,1366 # 55555556 <absimm+0x10263027>
     a30:	00b53633          	sltu	a2,a0,a1
     a34:	18c72223          	sw	a2,388(a4)

00000a38 <inst_116>:
     a38:	00300513          	addi	a0,zero,3
     a3c:	aaaab5b7          	lui	a1,0xaaaab
     a40:	aab58593          	addi	a1,a1,-1365 # aaaaaaab <absimm+0x657b857c>
     a44:	00b53633          	sltu	a2,a0,a1
     a48:	18c72423          	sw	a2,392(a4)

00000a4c <inst_117>:
     a4c:	00300513          	addi	a0,zero,3
     a50:	00600593          	addi	a1,zero,6
     a54:	00b53633          	sltu	a2,a0,a1
     a58:	18c72623          	sw	a2,396(a4)

00000a5c <inst_118>:
     a5c:	00300513          	addi	a0,zero,3
     a60:	333335b7          	lui	a1,0x33333
     a64:	33458593          	addi	a1,a1,820 # 33333334 <_end+0x3332952c>
     a68:	00b53633          	sltu	a2,a0,a1
     a6c:	18c72823          	sw	a2,400(a4)

00000a70 <inst_119>:
     a70:	00300513          	addi	a0,zero,3
     a74:	666665b7          	lui	a1,0x66666
     a78:	66758593          	addi	a1,a1,1639 # 66666667 <absimm+0x21374138>
     a7c:	00b53633          	sltu	a2,a0,a1
     a80:	18c72a23          	sw	a2,404(a4)

00000a84 <inst_120>:
     a84:	00300513          	addi	a0,zero,3
     a88:	0000b5b7          	lui	a1,0xb
     a8c:	50558593          	addi	a1,a1,1285 # b505 <_end+0x16fd>
     a90:	00b53633          	sltu	a2,a0,a1
     a94:	18c72c23          	sw	a2,408(a4)

00000a98 <inst_121>:
     a98:	00300513          	addi	a0,zero,3
     a9c:	00100593          	addi	a1,zero,1
     aa0:	00b53633          	sltu	a2,a0,a1
     aa4:	18c72e23          	sw	a2,412(a4)

00000aa8 <inst_122>:
     aa8:	00300513          	addi	a0,zero,3
     aac:	000105b7          	lui	a1,0x10
     ab0:	00b53633          	sltu	a2,a0,a1
     ab4:	1ac72023          	sw	a2,416(a4)

00000ab8 <inst_123>:
     ab8:	55555537          	lui	a0,0x55555
     abc:	55550513          	addi	a0,a0,1365 # 55555555 <absimm+0x10263026>
     ac0:	00300593          	addi	a1,zero,3
     ac4:	00b53633          	sltu	a2,a0,a1
     ac8:	1ac72223          	sw	a2,420(a4)

00000acc <inst_124>:
     acc:	55555537          	lui	a0,0x55555
     ad0:	55550513          	addi	a0,a0,1365 # 55555555 <absimm+0x10263026>
     ad4:	555555b7          	lui	a1,0x55555
     ad8:	55558593          	addi	a1,a1,1365 # 55555555 <absimm+0x10263026>
     adc:	00b53633          	sltu	a2,a0,a1
     ae0:	1ac72423          	sw	a2,424(a4)

00000ae4 <inst_125>:
     ae4:	55555537          	lui	a0,0x55555
     ae8:	55550513          	addi	a0,a0,1365 # 55555555 <absimm+0x10263026>
     aec:	aaaab5b7          	lui	a1,0xaaaab
     af0:	aaa58593          	addi	a1,a1,-1366 # aaaaaaaa <absimm+0x657b857b>
     af4:	00b53633          	sltu	a2,a0,a1
     af8:	1ac72623          	sw	a2,428(a4)

00000afc <inst_126>:
     afc:	55555537          	lui	a0,0x55555
     b00:	55550513          	addi	a0,a0,1365 # 55555555 <absimm+0x10263026>
     b04:	00500593          	addi	a1,zero,5
     b08:	00b53633          	sltu	a2,a0,a1
     b0c:	1ac72823          	sw	a2,432(a4)

00000b10 <inst_127>:
     b10:	55555537          	lui	a0,0x55555
     b14:	55550513          	addi	a0,a0,1365 # 55555555 <absimm+0x10263026>
     b18:	333335b7          	lui	a1,0x33333
     b1c:	33358593          	addi	a1,a1,819 # 33333333 <_end+0x3332952b>
     b20:	00b53633          	sltu	a2,a0,a1
     b24:	1ac72a23          	sw	a2,436(a4)

00000b28 <inst_128>:
     b28:	55555537          	lui	a0,0x55555
     b2c:	55550513          	addi	a0,a0,1365 # 55555555 <absimm+0x10263026>
     b30:	666665b7          	lui	a1,0x66666
     b34:	66658593          	addi	a1,a1,1638 # 66666666 <absimm+0x21374137>
     b38:	00b53633          	sltu	a2,a0,a1
     b3c:	1ac72c23          	sw	a2,440(a4)

00000b40 <inst_129>:
     b40:	55555537          	lui	a0,0x55555
     b44:	55550513          	addi	a0,a0,1365 # 55555555 <absimm+0x10263026>
     b48:	0000b5b7          	lui	a1,0xb
     b4c:	50458593          	addi	a1,a1,1284 # b504 <_end+0x16fc>
     b50:	00b53633          	sltu	a2,a0,a1
     b54:	1ac72e23          	sw	a2,444(a4)

00000b58 <inst_130>:
     b58:	55555537          	lui	a0,0x55555
     b5c:	55550513          	addi	a0,a0,1365 # 55555555 <absimm+0x10263026>
     b60:	00000593          	addi	a1,zero,0
     b64:	00b53633          	sltu	a2,a0,a1
     b68:	1cc72023          	sw	a2,448(a4)

00000b6c <inst_131>:
     b6c:	55555537          	lui	a0,0x55555
     b70:	55550513          	addi	a0,a0,1365 # 55555555 <absimm+0x10263026>
     b74:	000105b7          	lui	a1,0x10
     b78:	fff58593          	addi	a1,a1,-1 # ffff <_end+0x61f7>
     b7c:	00b53633          	sltu	a2,a0,a1
     b80:	1cc72223          	sw	a2,452(a4)

00000b84 <inst_132>:
     b84:	55555537          	lui	a0,0x55555
     b88:	55550513          	addi	a0,a0,1365 # 55555555 <absimm+0x10263026>
     b8c:	00200593          	addi	a1,zero,2
     b90:	00b53633          	sltu	a2,a0,a1
     b94:	1cc72423          	sw	a2,456(a4)

00000b98 <inst_133>:
     b98:	55555537          	lui	a0,0x55555
     b9c:	55550513          	addi	a0,a0,1365 # 55555555 <absimm+0x10263026>
     ba0:	555555b7          	lui	a1,0x55555
     ba4:	55458593          	addi	a1,a1,1364 # 55555554 <absimm+0x10263025>
     ba8:	00b53633          	sltu	a2,a0,a1
     bac:	1cc72623          	sw	a2,460(a4)

00000bb0 <inst_134>:
     bb0:	55555537          	lui	a0,0x55555
     bb4:	55550513          	addi	a0,a0,1365 # 55555555 <absimm+0x10263026>
     bb8:	aaaab5b7          	lui	a1,0xaaaab
     bbc:	aa958593          	addi	a1,a1,-1367 # aaaaaaa9 <absimm+0x657b857a>
     bc0:	00b53633          	sltu	a2,a0,a1
     bc4:	1cc72823          	sw	a2,464(a4)

00000bc8 <inst_135>:
     bc8:	55555537          	lui	a0,0x55555
     bcc:	55550513          	addi	a0,a0,1365 # 55555555 <absimm+0x10263026>
     bd0:	00400593          	addi	a1,zero,4
     bd4:	00b53633          	sltu	a2,a0,a1
     bd8:	1cc72a23          	sw	a2,468(a4)

00000bdc <inst_136>:
     bdc:	55555537          	lui	a0,0x55555
     be0:	55550513          	addi	a0,a0,1365 # 55555555 <absimm+0x10263026>
     be4:	333335b7          	lui	a1,0x33333
     be8:	33258593          	addi	a1,a1,818 # 33333332 <_end+0x3332952a>
     bec:	00b53633          	sltu	a2,a0,a1
     bf0:	1cc72c23          	sw	a2,472(a4)

00000bf4 <inst_137>:
     bf4:	55555537          	lui	a0,0x55555
     bf8:	55550513          	addi	a0,a0,1365 # 55555555 <absimm+0x10263026>
     bfc:	666665b7          	lui	a1,0x66666
     c00:	66558593          	addi	a1,a1,1637 # 66666665 <absimm+0x21374136>
     c04:	00b53633          	sltu	a2,a0,a1
     c08:	1cc72e23          	sw	a2,476(a4)

00000c0c <inst_138>:
     c0c:	55555537          	lui	a0,0x55555
     c10:	55550513          	addi	a0,a0,1365 # 55555555 <absimm+0x10263026>
     c14:	0000b5b7          	lui	a1,0xb
     c18:	50358593          	addi	a1,a1,1283 # b503 <_end+0x16fb>
     c1c:	00b53633          	sltu	a2,a0,a1
     c20:	1ec72023          	sw	a2,480(a4)

00000c24 <inst_139>:
     c24:	55555537          	lui	a0,0x55555
     c28:	55550513          	addi	a0,a0,1365 # 55555555 <absimm+0x10263026>
     c2c:	000105b7          	lui	a1,0x10
     c30:	ffe58593          	addi	a1,a1,-2 # fffe <_end+0x61f6>
     c34:	00b53633          	sltu	a2,a0,a1
     c38:	1ec72223          	sw	a2,484(a4)

00000c3c <inst_140>:
     c3c:	55555537          	lui	a0,0x55555
     c40:	55550513          	addi	a0,a0,1365 # 55555555 <absimm+0x10263026>
     c44:	555555b7          	lui	a1,0x55555
     c48:	55658593          	addi	a1,a1,1366 # 55555556 <absimm+0x10263027>
     c4c:	00b53633          	sltu	a2,a0,a1
     c50:	1ec72423          	sw	a2,488(a4)

00000c54 <inst_141>:
     c54:	55555537          	lui	a0,0x55555
     c58:	55550513          	addi	a0,a0,1365 # 55555555 <absimm+0x10263026>
     c5c:	aaaab5b7          	lui	a1,0xaaaab
     c60:	aab58593          	addi	a1,a1,-1365 # aaaaaaab <absimm+0x657b857c>
     c64:	00b53633          	sltu	a2,a0,a1
     c68:	1ec72623          	sw	a2,492(a4)

00000c6c <inst_142>:
     c6c:	55555537          	lui	a0,0x55555
     c70:	55550513          	addi	a0,a0,1365 # 55555555 <absimm+0x10263026>
     c74:	00600593          	addi	a1,zero,6
     c78:	00b53633          	sltu	a2,a0,a1
     c7c:	1ec72823          	sw	a2,496(a4)

00000c80 <inst_143>:
     c80:	55555537          	lui	a0,0x55555
     c84:	55550513          	addi	a0,a0,1365 # 55555555 <absimm+0x10263026>
     c88:	333335b7          	lui	a1,0x33333
     c8c:	33458593          	addi	a1,a1,820 # 33333334 <_end+0x3332952c>
     c90:	00b53633          	sltu	a2,a0,a1
     c94:	1ec72a23          	sw	a2,500(a4)

00000c98 <inst_144>:
     c98:	55555537          	lui	a0,0x55555
     c9c:	55550513          	addi	a0,a0,1365 # 55555555 <absimm+0x10263026>
     ca0:	666665b7          	lui	a1,0x66666
     ca4:	66758593          	addi	a1,a1,1639 # 66666667 <absimm+0x21374138>
     ca8:	00b53633          	sltu	a2,a0,a1
     cac:	1ec72c23          	sw	a2,504(a4)

00000cb0 <inst_145>:
     cb0:	55555537          	lui	a0,0x55555
     cb4:	55550513          	addi	a0,a0,1365 # 55555555 <absimm+0x10263026>
     cb8:	0000b5b7          	lui	a1,0xb
     cbc:	50558593          	addi	a1,a1,1285 # b505 <_end+0x16fd>
     cc0:	00b53633          	sltu	a2,a0,a1
     cc4:	1ec72e23          	sw	a2,508(a4)

00000cc8 <inst_146>:
     cc8:	55555537          	lui	a0,0x55555
     ccc:	55550513          	addi	a0,a0,1365 # 55555555 <absimm+0x10263026>
     cd0:	00100593          	addi	a1,zero,1
     cd4:	00b53633          	sltu	a2,a0,a1
     cd8:	20c72023          	sw	a2,512(a4)

00000cdc <inst_147>:
     cdc:	55555537          	lui	a0,0x55555
     ce0:	55550513          	addi	a0,a0,1365 # 55555555 <absimm+0x10263026>
     ce4:	000105b7          	lui	a1,0x10
     ce8:	00b53633          	sltu	a2,a0,a1
     cec:	20c72223          	sw	a2,516(a4)

00000cf0 <inst_148>:
     cf0:	aaaab537          	lui	a0,0xaaaab
     cf4:	aaa50513          	addi	a0,a0,-1366 # aaaaaaaa <absimm+0x657b857b>
     cf8:	00300593          	addi	a1,zero,3
     cfc:	00b53633          	sltu	a2,a0,a1
     d00:	20c72423          	sw	a2,520(a4)

00000d04 <inst_149>:
     d04:	aaaab537          	lui	a0,0xaaaab
     d08:	aaa50513          	addi	a0,a0,-1366 # aaaaaaaa <absimm+0x657b857b>
     d0c:	555555b7          	lui	a1,0x55555
     d10:	55558593          	addi	a1,a1,1365 # 55555555 <absimm+0x10263026>
     d14:	00b53633          	sltu	a2,a0,a1
     d18:	20c72623          	sw	a2,524(a4)

00000d1c <inst_150>:
     d1c:	aaaab537          	lui	a0,0xaaaab
     d20:	aaa50513          	addi	a0,a0,-1366 # aaaaaaaa <absimm+0x657b857b>
     d24:	aaaab5b7          	lui	a1,0xaaaab
     d28:	aaa58593          	addi	a1,a1,-1366 # aaaaaaaa <absimm+0x657b857b>
     d2c:	00b53633          	sltu	a2,a0,a1
     d30:	20c72823          	sw	a2,528(a4)

00000d34 <inst_151>:
     d34:	aaaab537          	lui	a0,0xaaaab
     d38:	aaa50513          	addi	a0,a0,-1366 # aaaaaaaa <absimm+0x657b857b>
     d3c:	00500593          	addi	a1,zero,5
     d40:	00b53633          	sltu	a2,a0,a1
     d44:	20c72a23          	sw	a2,532(a4)

00000d48 <inst_152>:
     d48:	aaaab537          	lui	a0,0xaaaab
     d4c:	aaa50513          	addi	a0,a0,-1366 # aaaaaaaa <absimm+0x657b857b>
     d50:	333335b7          	lui	a1,0x33333
     d54:	33358593          	addi	a1,a1,819 # 33333333 <_end+0x3332952b>
     d58:	00b53633          	sltu	a2,a0,a1
     d5c:	20c72c23          	sw	a2,536(a4)

00000d60 <inst_153>:
     d60:	aaaab537          	lui	a0,0xaaaab
     d64:	aaa50513          	addi	a0,a0,-1366 # aaaaaaaa <absimm+0x657b857b>
     d68:	666665b7          	lui	a1,0x66666
     d6c:	66658593          	addi	a1,a1,1638 # 66666666 <absimm+0x21374137>
     d70:	00b53633          	sltu	a2,a0,a1
     d74:	20c72e23          	sw	a2,540(a4)

00000d78 <inst_154>:
     d78:	aaaab537          	lui	a0,0xaaaab
     d7c:	aaa50513          	addi	a0,a0,-1366 # aaaaaaaa <absimm+0x657b857b>
     d80:	0000b5b7          	lui	a1,0xb
     d84:	50458593          	addi	a1,a1,1284 # b504 <_end+0x16fc>
     d88:	00b53633          	sltu	a2,a0,a1
     d8c:	22c72023          	sw	a2,544(a4)

00000d90 <inst_155>:
     d90:	aaaab537          	lui	a0,0xaaaab
     d94:	aaa50513          	addi	a0,a0,-1366 # aaaaaaaa <absimm+0x657b857b>
     d98:	00000593          	addi	a1,zero,0
     d9c:	00b53633          	sltu	a2,a0,a1
     da0:	22c72223          	sw	a2,548(a4)

00000da4 <inst_156>:
     da4:	aaaab537          	lui	a0,0xaaaab
     da8:	aaa50513          	addi	a0,a0,-1366 # aaaaaaaa <absimm+0x657b857b>
     dac:	000105b7          	lui	a1,0x10
     db0:	fff58593          	addi	a1,a1,-1 # ffff <_end+0x61f7>
     db4:	00b53633          	sltu	a2,a0,a1
     db8:	22c72423          	sw	a2,552(a4)

00000dbc <inst_157>:
     dbc:	aaaab537          	lui	a0,0xaaaab
     dc0:	aaa50513          	addi	a0,a0,-1366 # aaaaaaaa <absimm+0x657b857b>
     dc4:	00200593          	addi	a1,zero,2
     dc8:	00b53633          	sltu	a2,a0,a1
     dcc:	22c72623          	sw	a2,556(a4)

00000dd0 <inst_158>:
     dd0:	aaaab537          	lui	a0,0xaaaab
     dd4:	aaa50513          	addi	a0,a0,-1366 # aaaaaaaa <absimm+0x657b857b>
     dd8:	555555b7          	lui	a1,0x55555
     ddc:	55458593          	addi	a1,a1,1364 # 55555554 <absimm+0x10263025>
     de0:	00b53633          	sltu	a2,a0,a1
     de4:	22c72823          	sw	a2,560(a4)

00000de8 <inst_159>:
     de8:	aaaab537          	lui	a0,0xaaaab
     dec:	aaa50513          	addi	a0,a0,-1366 # aaaaaaaa <absimm+0x657b857b>
     df0:	aaaab5b7          	lui	a1,0xaaaab
     df4:	aa958593          	addi	a1,a1,-1367 # aaaaaaa9 <absimm+0x657b857a>
     df8:	00b53633          	sltu	a2,a0,a1
     dfc:	22c72a23          	sw	a2,564(a4)

00000e00 <inst_160>:
     e00:	aaaab537          	lui	a0,0xaaaab
     e04:	aaa50513          	addi	a0,a0,-1366 # aaaaaaaa <absimm+0x657b857b>
     e08:	00400593          	addi	a1,zero,4
     e0c:	00b53633          	sltu	a2,a0,a1
     e10:	22c72c23          	sw	a2,568(a4)

00000e14 <inst_161>:
     e14:	aaaab537          	lui	a0,0xaaaab
     e18:	aaa50513          	addi	a0,a0,-1366 # aaaaaaaa <absimm+0x657b857b>
     e1c:	333335b7          	lui	a1,0x33333
     e20:	33258593          	addi	a1,a1,818 # 33333332 <_end+0x3332952a>
     e24:	00b53633          	sltu	a2,a0,a1
     e28:	22c72e23          	sw	a2,572(a4)

00000e2c <inst_162>:
     e2c:	aaaab537          	lui	a0,0xaaaab
     e30:	aaa50513          	addi	a0,a0,-1366 # aaaaaaaa <absimm+0x657b857b>
     e34:	666665b7          	lui	a1,0x66666
     e38:	66558593          	addi	a1,a1,1637 # 66666665 <absimm+0x21374136>
     e3c:	00b53633          	sltu	a2,a0,a1
     e40:	24c72023          	sw	a2,576(a4)

00000e44 <inst_163>:
     e44:	aaaab537          	lui	a0,0xaaaab
     e48:	aaa50513          	addi	a0,a0,-1366 # aaaaaaaa <absimm+0x657b857b>
     e4c:	0000b5b7          	lui	a1,0xb
     e50:	50358593          	addi	a1,a1,1283 # b503 <_end+0x16fb>
     e54:	00b53633          	sltu	a2,a0,a1
     e58:	24c72223          	sw	a2,580(a4)

00000e5c <inst_164>:
     e5c:	aaaab537          	lui	a0,0xaaaab
     e60:	aaa50513          	addi	a0,a0,-1366 # aaaaaaaa <absimm+0x657b857b>
     e64:	000105b7          	lui	a1,0x10
     e68:	ffe58593          	addi	a1,a1,-2 # fffe <_end+0x61f6>
     e6c:	00b53633          	sltu	a2,a0,a1
     e70:	24c72423          	sw	a2,584(a4)

00000e74 <inst_165>:
     e74:	aaaab537          	lui	a0,0xaaaab
     e78:	aaa50513          	addi	a0,a0,-1366 # aaaaaaaa <absimm+0x657b857b>
     e7c:	555555b7          	lui	a1,0x55555
     e80:	55658593          	addi	a1,a1,1366 # 55555556 <absimm+0x10263027>
     e84:	00b53633          	sltu	a2,a0,a1
     e88:	24c72623          	sw	a2,588(a4)

00000e8c <inst_166>:
     e8c:	aaaab537          	lui	a0,0xaaaab
     e90:	aaa50513          	addi	a0,a0,-1366 # aaaaaaaa <absimm+0x657b857b>
     e94:	aaaab5b7          	lui	a1,0xaaaab
     e98:	aab58593          	addi	a1,a1,-1365 # aaaaaaab <absimm+0x657b857c>
     e9c:	00b53633          	sltu	a2,a0,a1
     ea0:	24c72823          	sw	a2,592(a4)

00000ea4 <inst_167>:
     ea4:	aaaab537          	lui	a0,0xaaaab
     ea8:	aaa50513          	addi	a0,a0,-1366 # aaaaaaaa <absimm+0x657b857b>
     eac:	00600593          	addi	a1,zero,6
     eb0:	00b53633          	sltu	a2,a0,a1
     eb4:	24c72a23          	sw	a2,596(a4)

00000eb8 <inst_168>:
     eb8:	aaaab537          	lui	a0,0xaaaab
     ebc:	aaa50513          	addi	a0,a0,-1366 # aaaaaaaa <absimm+0x657b857b>
     ec0:	333335b7          	lui	a1,0x33333
     ec4:	33458593          	addi	a1,a1,820 # 33333334 <_end+0x3332952c>
     ec8:	00b53633          	sltu	a2,a0,a1
     ecc:	24c72c23          	sw	a2,600(a4)

00000ed0 <inst_169>:
     ed0:	aaaab537          	lui	a0,0xaaaab
     ed4:	aaa50513          	addi	a0,a0,-1366 # aaaaaaaa <absimm+0x657b857b>
     ed8:	666665b7          	lui	a1,0x66666
     edc:	66758593          	addi	a1,a1,1639 # 66666667 <absimm+0x21374138>
     ee0:	00b53633          	sltu	a2,a0,a1
     ee4:	24c72e23          	sw	a2,604(a4)

00000ee8 <inst_170>:
     ee8:	aaaab537          	lui	a0,0xaaaab
     eec:	aaa50513          	addi	a0,a0,-1366 # aaaaaaaa <absimm+0x657b857b>
     ef0:	0000b5b7          	lui	a1,0xb
     ef4:	50558593          	addi	a1,a1,1285 # b505 <_end+0x16fd>
     ef8:	00b53633          	sltu	a2,a0,a1
     efc:	26c72023          	sw	a2,608(a4)

00000f00 <inst_171>:
     f00:	aaaab537          	lui	a0,0xaaaab
     f04:	aaa50513          	addi	a0,a0,-1366 # aaaaaaaa <absimm+0x657b857b>
     f08:	00100593          	addi	a1,zero,1
     f0c:	00b53633          	sltu	a2,a0,a1
     f10:	26c72223          	sw	a2,612(a4)

00000f14 <inst_172>:
     f14:	aaaab537          	lui	a0,0xaaaab
     f18:	aaa50513          	addi	a0,a0,-1366 # aaaaaaaa <absimm+0x657b857b>
     f1c:	000105b7          	lui	a1,0x10
     f20:	00b53633          	sltu	a2,a0,a1
     f24:	26c72423          	sw	a2,616(a4)

00000f28 <inst_173>:
     f28:	00500513          	addi	a0,zero,5
     f2c:	00300593          	addi	a1,zero,3
     f30:	00b53633          	sltu	a2,a0,a1
     f34:	26c72623          	sw	a2,620(a4)

00000f38 <inst_174>:
     f38:	00500513          	addi	a0,zero,5
     f3c:	555555b7          	lui	a1,0x55555
     f40:	55558593          	addi	a1,a1,1365 # 55555555 <absimm+0x10263026>
     f44:	00b53633          	sltu	a2,a0,a1
     f48:	26c72823          	sw	a2,624(a4)

00000f4c <inst_175>:
     f4c:	00500513          	addi	a0,zero,5
     f50:	aaaab5b7          	lui	a1,0xaaaab
     f54:	aaa58593          	addi	a1,a1,-1366 # aaaaaaaa <absimm+0x657b857b>
     f58:	00b53633          	sltu	a2,a0,a1
     f5c:	26c72a23          	sw	a2,628(a4)

00000f60 <inst_176>:
     f60:	00500513          	addi	a0,zero,5
     f64:	00500593          	addi	a1,zero,5
     f68:	00b53633          	sltu	a2,a0,a1
     f6c:	26c72c23          	sw	a2,632(a4)

00000f70 <inst_177>:
     f70:	00500513          	addi	a0,zero,5
     f74:	333335b7          	lui	a1,0x33333
     f78:	33358593          	addi	a1,a1,819 # 33333333 <_end+0x3332952b>
     f7c:	00b53633          	sltu	a2,a0,a1
     f80:	26c72e23          	sw	a2,636(a4)

00000f84 <inst_178>:
     f84:	00500513          	addi	a0,zero,5
     f88:	666665b7          	lui	a1,0x66666
     f8c:	66658593          	addi	a1,a1,1638 # 66666666 <absimm+0x21374137>
     f90:	00b53633          	sltu	a2,a0,a1
     f94:	28c72023          	sw	a2,640(a4)

00000f98 <inst_179>:
     f98:	00500513          	addi	a0,zero,5
     f9c:	0000b5b7          	lui	a1,0xb
     fa0:	50458593          	addi	a1,a1,1284 # b504 <_end+0x16fc>
     fa4:	00b53633          	sltu	a2,a0,a1
     fa8:	28c72223          	sw	a2,644(a4)

00000fac <inst_180>:
     fac:	00500513          	addi	a0,zero,5
     fb0:	00000593          	addi	a1,zero,0
     fb4:	00b53633          	sltu	a2,a0,a1
     fb8:	28c72423          	sw	a2,648(a4)

00000fbc <inst_181>:
     fbc:	00500513          	addi	a0,zero,5
     fc0:	000105b7          	lui	a1,0x10
     fc4:	fff58593          	addi	a1,a1,-1 # ffff <_end+0x61f7>
     fc8:	00b53633          	sltu	a2,a0,a1
     fcc:	28c72623          	sw	a2,652(a4)

00000fd0 <inst_182>:
     fd0:	00500513          	addi	a0,zero,5
     fd4:	00200593          	addi	a1,zero,2
     fd8:	00b53633          	sltu	a2,a0,a1
     fdc:	28c72823          	sw	a2,656(a4)

00000fe0 <inst_183>:
     fe0:	00500513          	addi	a0,zero,5
     fe4:	555555b7          	lui	a1,0x55555
     fe8:	55458593          	addi	a1,a1,1364 # 55555554 <absimm+0x10263025>
     fec:	00b53633          	sltu	a2,a0,a1
     ff0:	28c72a23          	sw	a2,660(a4)

00000ff4 <inst_184>:
     ff4:	00500513          	addi	a0,zero,5
     ff8:	aaaab5b7          	lui	a1,0xaaaab
     ffc:	aa958593          	addi	a1,a1,-1367 # aaaaaaa9 <absimm+0x657b857a>
    1000:	00b53633          	sltu	a2,a0,a1
    1004:	28c72c23          	sw	a2,664(a4)

00001008 <inst_185>:
    1008:	00500513          	addi	a0,zero,5
    100c:	00400593          	addi	a1,zero,4
    1010:	00b53633          	sltu	a2,a0,a1
    1014:	28c72e23          	sw	a2,668(a4)

00001018 <inst_186>:
    1018:	00500513          	addi	a0,zero,5
    101c:	333335b7          	lui	a1,0x33333
    1020:	33258593          	addi	a1,a1,818 # 33333332 <_end+0x3332952a>
    1024:	00b53633          	sltu	a2,a0,a1
    1028:	2ac72023          	sw	a2,672(a4)

0000102c <inst_187>:
    102c:	00500513          	addi	a0,zero,5
    1030:	666665b7          	lui	a1,0x66666
    1034:	66558593          	addi	a1,a1,1637 # 66666665 <absimm+0x21374136>
    1038:	00b53633          	sltu	a2,a0,a1
    103c:	2ac72223          	sw	a2,676(a4)

00001040 <inst_188>:
    1040:	00500513          	addi	a0,zero,5
    1044:	0000b5b7          	lui	a1,0xb
    1048:	50358593          	addi	a1,a1,1283 # b503 <_end+0x16fb>
    104c:	00b53633          	sltu	a2,a0,a1
    1050:	2ac72423          	sw	a2,680(a4)

00001054 <inst_189>:
    1054:	00500513          	addi	a0,zero,5
    1058:	000105b7          	lui	a1,0x10
    105c:	ffe58593          	addi	a1,a1,-2 # fffe <_end+0x61f6>
    1060:	00b53633          	sltu	a2,a0,a1
    1064:	2ac72623          	sw	a2,684(a4)

00001068 <inst_190>:
    1068:	00500513          	addi	a0,zero,5
    106c:	555555b7          	lui	a1,0x55555
    1070:	55658593          	addi	a1,a1,1366 # 55555556 <absimm+0x10263027>
    1074:	00b53633          	sltu	a2,a0,a1
    1078:	2ac72823          	sw	a2,688(a4)

0000107c <inst_191>:
    107c:	00500513          	addi	a0,zero,5
    1080:	aaaab5b7          	lui	a1,0xaaaab
    1084:	aab58593          	addi	a1,a1,-1365 # aaaaaaab <absimm+0x657b857c>
    1088:	00b53633          	sltu	a2,a0,a1
    108c:	2ac72a23          	sw	a2,692(a4)

00001090 <inst_192>:
    1090:	00500513          	addi	a0,zero,5
    1094:	00600593          	addi	a1,zero,6
    1098:	00b53633          	sltu	a2,a0,a1
    109c:	2ac72c23          	sw	a2,696(a4)

000010a0 <inst_193>:
    10a0:	00500513          	addi	a0,zero,5
    10a4:	333335b7          	lui	a1,0x33333
    10a8:	33458593          	addi	a1,a1,820 # 33333334 <_end+0x3332952c>
    10ac:	00b53633          	sltu	a2,a0,a1
    10b0:	2ac72e23          	sw	a2,700(a4)

000010b4 <inst_194>:
    10b4:	00500513          	addi	a0,zero,5
    10b8:	666665b7          	lui	a1,0x66666
    10bc:	66758593          	addi	a1,a1,1639 # 66666667 <absimm+0x21374138>
    10c0:	00b53633          	sltu	a2,a0,a1
    10c4:	2cc72023          	sw	a2,704(a4)

000010c8 <inst_195>:
    10c8:	00500513          	addi	a0,zero,5
    10cc:	0000b5b7          	lui	a1,0xb
    10d0:	50558593          	addi	a1,a1,1285 # b505 <_end+0x16fd>
    10d4:	00b53633          	sltu	a2,a0,a1
    10d8:	2cc72223          	sw	a2,708(a4)

000010dc <inst_196>:
    10dc:	00500513          	addi	a0,zero,5
    10e0:	00100593          	addi	a1,zero,1
    10e4:	00b53633          	sltu	a2,a0,a1
    10e8:	2cc72423          	sw	a2,712(a4)

000010ec <inst_197>:
    10ec:	00500513          	addi	a0,zero,5
    10f0:	000105b7          	lui	a1,0x10
    10f4:	00b53633          	sltu	a2,a0,a1
    10f8:	2cc72623          	sw	a2,716(a4)

000010fc <inst_198>:
    10fc:	33333537          	lui	a0,0x33333
    1100:	33350513          	addi	a0,a0,819 # 33333333 <_end+0x3332952b>
    1104:	00300593          	addi	a1,zero,3
    1108:	00b53633          	sltu	a2,a0,a1
    110c:	2cc72823          	sw	a2,720(a4)

00001110 <inst_199>:
    1110:	33333537          	lui	a0,0x33333
    1114:	33350513          	addi	a0,a0,819 # 33333333 <_end+0x3332952b>
    1118:	555555b7          	lui	a1,0x55555
    111c:	55558593          	addi	a1,a1,1365 # 55555555 <absimm+0x10263026>
    1120:	00b53633          	sltu	a2,a0,a1
    1124:	2cc72a23          	sw	a2,724(a4)

00001128 <inst_200>:
    1128:	33333537          	lui	a0,0x33333
    112c:	33350513          	addi	a0,a0,819 # 33333333 <_end+0x3332952b>
    1130:	aaaab5b7          	lui	a1,0xaaaab
    1134:	aaa58593          	addi	a1,a1,-1366 # aaaaaaaa <absimm+0x657b857b>
    1138:	00b53633          	sltu	a2,a0,a1
    113c:	2cc72c23          	sw	a2,728(a4)

00001140 <inst_201>:
    1140:	33333537          	lui	a0,0x33333
    1144:	33350513          	addi	a0,a0,819 # 33333333 <_end+0x3332952b>
    1148:	00500593          	addi	a1,zero,5
    114c:	00b53633          	sltu	a2,a0,a1
    1150:	2cc72e23          	sw	a2,732(a4)

00001154 <inst_202>:
    1154:	33333537          	lui	a0,0x33333
    1158:	33350513          	addi	a0,a0,819 # 33333333 <_end+0x3332952b>
    115c:	333335b7          	lui	a1,0x33333
    1160:	33358593          	addi	a1,a1,819 # 33333333 <_end+0x3332952b>
    1164:	00b53633          	sltu	a2,a0,a1
    1168:	2ec72023          	sw	a2,736(a4)

0000116c <inst_203>:
    116c:	33333537          	lui	a0,0x33333
    1170:	33350513          	addi	a0,a0,819 # 33333333 <_end+0x3332952b>
    1174:	666665b7          	lui	a1,0x66666
    1178:	66658593          	addi	a1,a1,1638 # 66666666 <absimm+0x21374137>
    117c:	00b53633          	sltu	a2,a0,a1
    1180:	2ec72223          	sw	a2,740(a4)

00001184 <inst_204>:
    1184:	33333537          	lui	a0,0x33333
    1188:	33350513          	addi	a0,a0,819 # 33333333 <_end+0x3332952b>
    118c:	0000b5b7          	lui	a1,0xb
    1190:	50458593          	addi	a1,a1,1284 # b504 <_end+0x16fc>
    1194:	00b53633          	sltu	a2,a0,a1
    1198:	2ec72423          	sw	a2,744(a4)

0000119c <inst_205>:
    119c:	33333537          	lui	a0,0x33333
    11a0:	33350513          	addi	a0,a0,819 # 33333333 <_end+0x3332952b>
    11a4:	00000593          	addi	a1,zero,0
    11a8:	00b53633          	sltu	a2,a0,a1
    11ac:	2ec72623          	sw	a2,748(a4)

000011b0 <inst_206>:
    11b0:	33333537          	lui	a0,0x33333
    11b4:	33350513          	addi	a0,a0,819 # 33333333 <_end+0x3332952b>
    11b8:	000105b7          	lui	a1,0x10
    11bc:	fff58593          	addi	a1,a1,-1 # ffff <_end+0x61f7>
    11c0:	00b53633          	sltu	a2,a0,a1
    11c4:	2ec72823          	sw	a2,752(a4)

000011c8 <inst_207>:
    11c8:	33333537          	lui	a0,0x33333
    11cc:	33350513          	addi	a0,a0,819 # 33333333 <_end+0x3332952b>
    11d0:	00200593          	addi	a1,zero,2
    11d4:	00b53633          	sltu	a2,a0,a1
    11d8:	2ec72a23          	sw	a2,756(a4)

000011dc <inst_208>:
    11dc:	33333537          	lui	a0,0x33333
    11e0:	33350513          	addi	a0,a0,819 # 33333333 <_end+0x3332952b>
    11e4:	555555b7          	lui	a1,0x55555
    11e8:	55458593          	addi	a1,a1,1364 # 55555554 <absimm+0x10263025>
    11ec:	00b53633          	sltu	a2,a0,a1
    11f0:	2ec72c23          	sw	a2,760(a4)

000011f4 <inst_209>:
    11f4:	33333537          	lui	a0,0x33333
    11f8:	33350513          	addi	a0,a0,819 # 33333333 <_end+0x3332952b>
    11fc:	aaaab5b7          	lui	a1,0xaaaab
    1200:	aa958593          	addi	a1,a1,-1367 # aaaaaaa9 <absimm+0x657b857a>
    1204:	00b53633          	sltu	a2,a0,a1
    1208:	2ec72e23          	sw	a2,764(a4)

0000120c <inst_210>:
    120c:	33333537          	lui	a0,0x33333
    1210:	33350513          	addi	a0,a0,819 # 33333333 <_end+0x3332952b>
    1214:	00400593          	addi	a1,zero,4
    1218:	00b53633          	sltu	a2,a0,a1
    121c:	30c72023          	sw	a2,768(a4)

00001220 <inst_211>:
    1220:	33333537          	lui	a0,0x33333
    1224:	33350513          	addi	a0,a0,819 # 33333333 <_end+0x3332952b>
    1228:	333335b7          	lui	a1,0x33333
    122c:	33258593          	addi	a1,a1,818 # 33333332 <_end+0x3332952a>
    1230:	00b53633          	sltu	a2,a0,a1
    1234:	30c72223          	sw	a2,772(a4)

00001238 <inst_212>:
    1238:	33333537          	lui	a0,0x33333
    123c:	33350513          	addi	a0,a0,819 # 33333333 <_end+0x3332952b>
    1240:	666665b7          	lui	a1,0x66666
    1244:	66558593          	addi	a1,a1,1637 # 66666665 <absimm+0x21374136>
    1248:	00b53633          	sltu	a2,a0,a1
    124c:	30c72423          	sw	a2,776(a4)

00001250 <inst_213>:
    1250:	33333537          	lui	a0,0x33333
    1254:	33350513          	addi	a0,a0,819 # 33333333 <_end+0x3332952b>
    1258:	0000b5b7          	lui	a1,0xb
    125c:	50358593          	addi	a1,a1,1283 # b503 <_end+0x16fb>
    1260:	00b53633          	sltu	a2,a0,a1
    1264:	30c72623          	sw	a2,780(a4)

00001268 <inst_214>:
    1268:	33333537          	lui	a0,0x33333
    126c:	33350513          	addi	a0,a0,819 # 33333333 <_end+0x3332952b>
    1270:	000105b7          	lui	a1,0x10
    1274:	ffe58593          	addi	a1,a1,-2 # fffe <_end+0x61f6>
    1278:	00b53633          	sltu	a2,a0,a1
    127c:	30c72823          	sw	a2,784(a4)

00001280 <inst_215>:
    1280:	33333537          	lui	a0,0x33333
    1284:	33350513          	addi	a0,a0,819 # 33333333 <_end+0x3332952b>
    1288:	555555b7          	lui	a1,0x55555
    128c:	55658593          	addi	a1,a1,1366 # 55555556 <absimm+0x10263027>
    1290:	00b53633          	sltu	a2,a0,a1
    1294:	30c72a23          	sw	a2,788(a4)

00001298 <inst_216>:
    1298:	33333537          	lui	a0,0x33333
    129c:	33350513          	addi	a0,a0,819 # 33333333 <_end+0x3332952b>
    12a0:	aaaab5b7          	lui	a1,0xaaaab
    12a4:	aab58593          	addi	a1,a1,-1365 # aaaaaaab <absimm+0x657b857c>
    12a8:	00b53633          	sltu	a2,a0,a1
    12ac:	30c72c23          	sw	a2,792(a4)

000012b0 <inst_217>:
    12b0:	33333537          	lui	a0,0x33333
    12b4:	33350513          	addi	a0,a0,819 # 33333333 <_end+0x3332952b>
    12b8:	00600593          	addi	a1,zero,6
    12bc:	00b53633          	sltu	a2,a0,a1
    12c0:	30c72e23          	sw	a2,796(a4)

000012c4 <inst_218>:
    12c4:	33333537          	lui	a0,0x33333
    12c8:	33350513          	addi	a0,a0,819 # 33333333 <_end+0x3332952b>
    12cc:	333335b7          	lui	a1,0x33333
    12d0:	33458593          	addi	a1,a1,820 # 33333334 <_end+0x3332952c>
    12d4:	00b53633          	sltu	a2,a0,a1
    12d8:	32c72023          	sw	a2,800(a4)

000012dc <inst_219>:
    12dc:	33333537          	lui	a0,0x33333
    12e0:	33350513          	addi	a0,a0,819 # 33333333 <_end+0x3332952b>
    12e4:	666665b7          	lui	a1,0x66666
    12e8:	66758593          	addi	a1,a1,1639 # 66666667 <absimm+0x21374138>
    12ec:	00b53633          	sltu	a2,a0,a1
    12f0:	32c72223          	sw	a2,804(a4)

000012f4 <inst_220>:
    12f4:	33333537          	lui	a0,0x33333
    12f8:	33350513          	addi	a0,a0,819 # 33333333 <_end+0x3332952b>
    12fc:	0000b5b7          	lui	a1,0xb
    1300:	50558593          	addi	a1,a1,1285 # b505 <_end+0x16fd>
    1304:	00b53633          	sltu	a2,a0,a1
    1308:	32c72423          	sw	a2,808(a4)

0000130c <inst_221>:
    130c:	33333537          	lui	a0,0x33333
    1310:	33350513          	addi	a0,a0,819 # 33333333 <_end+0x3332952b>
    1314:	00100593          	addi	a1,zero,1
    1318:	00b53633          	sltu	a2,a0,a1
    131c:	32c72623          	sw	a2,812(a4)

00001320 <inst_222>:
    1320:	33333537          	lui	a0,0x33333
    1324:	33350513          	addi	a0,a0,819 # 33333333 <_end+0x3332952b>
    1328:	000105b7          	lui	a1,0x10
    132c:	00b53633          	sltu	a2,a0,a1
    1330:	32c72823          	sw	a2,816(a4)

00001334 <inst_223>:
    1334:	66666537          	lui	a0,0x66666
    1338:	66650513          	addi	a0,a0,1638 # 66666666 <absimm+0x21374137>
    133c:	00300593          	addi	a1,zero,3
    1340:	00b53633          	sltu	a2,a0,a1
    1344:	32c72a23          	sw	a2,820(a4)

00001348 <inst_224>:
    1348:	66666537          	lui	a0,0x66666
    134c:	66650513          	addi	a0,a0,1638 # 66666666 <absimm+0x21374137>
    1350:	555555b7          	lui	a1,0x55555
    1354:	55558593          	addi	a1,a1,1365 # 55555555 <absimm+0x10263026>
    1358:	00b53633          	sltu	a2,a0,a1
    135c:	32c72c23          	sw	a2,824(a4)

00001360 <inst_225>:
    1360:	66666537          	lui	a0,0x66666
    1364:	66650513          	addi	a0,a0,1638 # 66666666 <absimm+0x21374137>
    1368:	aaaab5b7          	lui	a1,0xaaaab
    136c:	aaa58593          	addi	a1,a1,-1366 # aaaaaaaa <absimm+0x657b857b>
    1370:	00b53633          	sltu	a2,a0,a1
    1374:	32c72e23          	sw	a2,828(a4)

00001378 <inst_226>:
    1378:	66666537          	lui	a0,0x66666
    137c:	66650513          	addi	a0,a0,1638 # 66666666 <absimm+0x21374137>
    1380:	00500593          	addi	a1,zero,5
    1384:	00b53633          	sltu	a2,a0,a1
    1388:	34c72023          	sw	a2,832(a4)

0000138c <inst_227>:
    138c:	66666537          	lui	a0,0x66666
    1390:	66650513          	addi	a0,a0,1638 # 66666666 <absimm+0x21374137>
    1394:	333335b7          	lui	a1,0x33333
    1398:	33358593          	addi	a1,a1,819 # 33333333 <_end+0x3332952b>
    139c:	00b53633          	sltu	a2,a0,a1
    13a0:	34c72223          	sw	a2,836(a4)

000013a4 <inst_228>:
    13a4:	66666537          	lui	a0,0x66666
    13a8:	66650513          	addi	a0,a0,1638 # 66666666 <absimm+0x21374137>
    13ac:	666665b7          	lui	a1,0x66666
    13b0:	66658593          	addi	a1,a1,1638 # 66666666 <absimm+0x21374137>
    13b4:	00b53633          	sltu	a2,a0,a1
    13b8:	34c72423          	sw	a2,840(a4)

000013bc <inst_229>:
    13bc:	66666537          	lui	a0,0x66666
    13c0:	66650513          	addi	a0,a0,1638 # 66666666 <absimm+0x21374137>
    13c4:	0000b5b7          	lui	a1,0xb
    13c8:	50458593          	addi	a1,a1,1284 # b504 <_end+0x16fc>
    13cc:	00b53633          	sltu	a2,a0,a1
    13d0:	34c72623          	sw	a2,844(a4)

000013d4 <inst_230>:
    13d4:	66666537          	lui	a0,0x66666
    13d8:	66650513          	addi	a0,a0,1638 # 66666666 <absimm+0x21374137>
    13dc:	00000593          	addi	a1,zero,0
    13e0:	00b53633          	sltu	a2,a0,a1
    13e4:	34c72823          	sw	a2,848(a4)

000013e8 <inst_231>:
    13e8:	66666537          	lui	a0,0x66666
    13ec:	66650513          	addi	a0,a0,1638 # 66666666 <absimm+0x21374137>
    13f0:	000105b7          	lui	a1,0x10
    13f4:	fff58593          	addi	a1,a1,-1 # ffff <_end+0x61f7>
    13f8:	00b53633          	sltu	a2,a0,a1
    13fc:	34c72a23          	sw	a2,852(a4)

00001400 <inst_232>:
    1400:	66666537          	lui	a0,0x66666
    1404:	66650513          	addi	a0,a0,1638 # 66666666 <absimm+0x21374137>
    1408:	00200593          	addi	a1,zero,2
    140c:	00b53633          	sltu	a2,a0,a1
    1410:	34c72c23          	sw	a2,856(a4)

00001414 <inst_233>:
    1414:	66666537          	lui	a0,0x66666
    1418:	66650513          	addi	a0,a0,1638 # 66666666 <absimm+0x21374137>
    141c:	555555b7          	lui	a1,0x55555
    1420:	55458593          	addi	a1,a1,1364 # 55555554 <absimm+0x10263025>
    1424:	00b53633          	sltu	a2,a0,a1
    1428:	34c72e23          	sw	a2,860(a4)

0000142c <inst_234>:
    142c:	66666537          	lui	a0,0x66666
    1430:	66650513          	addi	a0,a0,1638 # 66666666 <absimm+0x21374137>
    1434:	aaaab5b7          	lui	a1,0xaaaab
    1438:	aa958593          	addi	a1,a1,-1367 # aaaaaaa9 <absimm+0x657b857a>
    143c:	00b53633          	sltu	a2,a0,a1
    1440:	36c72023          	sw	a2,864(a4)

00001444 <inst_235>:
    1444:	66666537          	lui	a0,0x66666
    1448:	66650513          	addi	a0,a0,1638 # 66666666 <absimm+0x21374137>
    144c:	00400593          	addi	a1,zero,4
    1450:	00b53633          	sltu	a2,a0,a1
    1454:	36c72223          	sw	a2,868(a4)

00001458 <inst_236>:
    1458:	66666537          	lui	a0,0x66666
    145c:	66650513          	addi	a0,a0,1638 # 66666666 <absimm+0x21374137>
    1460:	333335b7          	lui	a1,0x33333
    1464:	33258593          	addi	a1,a1,818 # 33333332 <_end+0x3332952a>
    1468:	00b53633          	sltu	a2,a0,a1
    146c:	36c72423          	sw	a2,872(a4)

00001470 <inst_237>:
    1470:	66666537          	lui	a0,0x66666
    1474:	66650513          	addi	a0,a0,1638 # 66666666 <absimm+0x21374137>
    1478:	666665b7          	lui	a1,0x66666
    147c:	66558593          	addi	a1,a1,1637 # 66666665 <absimm+0x21374136>
    1480:	00b53633          	sltu	a2,a0,a1
    1484:	36c72623          	sw	a2,876(a4)

00001488 <inst_238>:
    1488:	66666537          	lui	a0,0x66666
    148c:	66650513          	addi	a0,a0,1638 # 66666666 <absimm+0x21374137>
    1490:	0000b5b7          	lui	a1,0xb
    1494:	50358593          	addi	a1,a1,1283 # b503 <_end+0x16fb>
    1498:	00b53633          	sltu	a2,a0,a1
    149c:	36c72823          	sw	a2,880(a4)

000014a0 <inst_239>:
    14a0:	66666537          	lui	a0,0x66666
    14a4:	66650513          	addi	a0,a0,1638 # 66666666 <absimm+0x21374137>
    14a8:	000105b7          	lui	a1,0x10
    14ac:	ffe58593          	addi	a1,a1,-2 # fffe <_end+0x61f6>
    14b0:	00b53633          	sltu	a2,a0,a1
    14b4:	36c72a23          	sw	a2,884(a4)

000014b8 <inst_240>:
    14b8:	66666537          	lui	a0,0x66666
    14bc:	66650513          	addi	a0,a0,1638 # 66666666 <absimm+0x21374137>
    14c0:	555555b7          	lui	a1,0x55555
    14c4:	55658593          	addi	a1,a1,1366 # 55555556 <absimm+0x10263027>
    14c8:	00b53633          	sltu	a2,a0,a1
    14cc:	36c72c23          	sw	a2,888(a4)

000014d0 <inst_241>:
    14d0:	66666537          	lui	a0,0x66666
    14d4:	66650513          	addi	a0,a0,1638 # 66666666 <absimm+0x21374137>
    14d8:	aaaab5b7          	lui	a1,0xaaaab
    14dc:	aab58593          	addi	a1,a1,-1365 # aaaaaaab <absimm+0x657b857c>
    14e0:	00b53633          	sltu	a2,a0,a1
    14e4:	36c72e23          	sw	a2,892(a4)

000014e8 <inst_242>:
    14e8:	66666537          	lui	a0,0x66666
    14ec:	66650513          	addi	a0,a0,1638 # 66666666 <absimm+0x21374137>
    14f0:	00600593          	addi	a1,zero,6
    14f4:	00b53633          	sltu	a2,a0,a1
    14f8:	38c72023          	sw	a2,896(a4)

000014fc <inst_243>:
    14fc:	66666537          	lui	a0,0x66666
    1500:	66650513          	addi	a0,a0,1638 # 66666666 <absimm+0x21374137>
    1504:	333335b7          	lui	a1,0x33333
    1508:	33458593          	addi	a1,a1,820 # 33333334 <_end+0x3332952c>
    150c:	00b53633          	sltu	a2,a0,a1
    1510:	38c72223          	sw	a2,900(a4)

00001514 <inst_244>:
    1514:	66666537          	lui	a0,0x66666
    1518:	66650513          	addi	a0,a0,1638 # 66666666 <absimm+0x21374137>
    151c:	666665b7          	lui	a1,0x66666
    1520:	66758593          	addi	a1,a1,1639 # 66666667 <absimm+0x21374138>
    1524:	00b53633          	sltu	a2,a0,a1
    1528:	38c72423          	sw	a2,904(a4)

0000152c <inst_245>:
    152c:	66666537          	lui	a0,0x66666
    1530:	66650513          	addi	a0,a0,1638 # 66666666 <absimm+0x21374137>
    1534:	0000b5b7          	lui	a1,0xb
    1538:	50558593          	addi	a1,a1,1285 # b505 <_end+0x16fd>
    153c:	00b53633          	sltu	a2,a0,a1
    1540:	38c72623          	sw	a2,908(a4)

00001544 <inst_246>:
    1544:	66666537          	lui	a0,0x66666
    1548:	66650513          	addi	a0,a0,1638 # 66666666 <absimm+0x21374137>
    154c:	00100593          	addi	a1,zero,1
    1550:	00b53633          	sltu	a2,a0,a1
    1554:	38c72823          	sw	a2,912(a4)

00001558 <inst_247>:
    1558:	66666537          	lui	a0,0x66666
    155c:	66650513          	addi	a0,a0,1638 # 66666666 <absimm+0x21374137>
    1560:	000105b7          	lui	a1,0x10
    1564:	00b53633          	sltu	a2,a0,a1
    1568:	38c72a23          	sw	a2,916(a4)

0000156c <inst_248>:
    156c:	0000b537          	lui	a0,0xb
    1570:	50450513          	addi	a0,a0,1284 # b504 <_end+0x16fc>
    1574:	00300593          	addi	a1,zero,3
    1578:	00b53633          	sltu	a2,a0,a1
    157c:	38c72c23          	sw	a2,920(a4)

00001580 <inst_249>:
    1580:	0000b537          	lui	a0,0xb
    1584:	50450513          	addi	a0,a0,1284 # b504 <_end+0x16fc>
    1588:	555555b7          	lui	a1,0x55555
    158c:	55558593          	addi	a1,a1,1365 # 55555555 <absimm+0x10263026>
    1590:	00b53633          	sltu	a2,a0,a1
    1594:	38c72e23          	sw	a2,924(a4)

00001598 <inst_250>:
    1598:	0000b537          	lui	a0,0xb
    159c:	50450513          	addi	a0,a0,1284 # b504 <_end+0x16fc>
    15a0:	aaaab5b7          	lui	a1,0xaaaab
    15a4:	aaa58593          	addi	a1,a1,-1366 # aaaaaaaa <absimm+0x657b857b>
    15a8:	00b53633          	sltu	a2,a0,a1
    15ac:	3ac72023          	sw	a2,928(a4)

000015b0 <inst_251>:
    15b0:	0000b537          	lui	a0,0xb
    15b4:	50450513          	addi	a0,a0,1284 # b504 <_end+0x16fc>
    15b8:	00500593          	addi	a1,zero,5
    15bc:	00b53633          	sltu	a2,a0,a1
    15c0:	3ac72223          	sw	a2,932(a4)

000015c4 <inst_252>:
    15c4:	0000b537          	lui	a0,0xb
    15c8:	50450513          	addi	a0,a0,1284 # b504 <_end+0x16fc>
    15cc:	333335b7          	lui	a1,0x33333
    15d0:	33358593          	addi	a1,a1,819 # 33333333 <_end+0x3332952b>
    15d4:	00b53633          	sltu	a2,a0,a1
    15d8:	3ac72423          	sw	a2,936(a4)

000015dc <inst_253>:
    15dc:	0000b537          	lui	a0,0xb
    15e0:	50450513          	addi	a0,a0,1284 # b504 <_end+0x16fc>
    15e4:	666665b7          	lui	a1,0x66666
    15e8:	66658593          	addi	a1,a1,1638 # 66666666 <absimm+0x21374137>
    15ec:	00b53633          	sltu	a2,a0,a1
    15f0:	3ac72623          	sw	a2,940(a4)

000015f4 <inst_254>:
    15f4:	0000b537          	lui	a0,0xb
    15f8:	50450513          	addi	a0,a0,1284 # b504 <_end+0x16fc>
    15fc:	0000b5b7          	lui	a1,0xb
    1600:	50458593          	addi	a1,a1,1284 # b504 <_end+0x16fc>
    1604:	00b53633          	sltu	a2,a0,a1
    1608:	3ac72823          	sw	a2,944(a4)

0000160c <inst_255>:
    160c:	0000b537          	lui	a0,0xb
    1610:	50450513          	addi	a0,a0,1284 # b504 <_end+0x16fc>
    1614:	00000593          	addi	a1,zero,0
    1618:	00b53633          	sltu	a2,a0,a1
    161c:	3ac72a23          	sw	a2,948(a4)

00001620 <inst_256>:
    1620:	0000b537          	lui	a0,0xb
    1624:	50450513          	addi	a0,a0,1284 # b504 <_end+0x16fc>
    1628:	000105b7          	lui	a1,0x10
    162c:	fff58593          	addi	a1,a1,-1 # ffff <_end+0x61f7>
    1630:	00b53633          	sltu	a2,a0,a1
    1634:	3ac72c23          	sw	a2,952(a4)

00001638 <inst_257>:
    1638:	0000b537          	lui	a0,0xb
    163c:	50450513          	addi	a0,a0,1284 # b504 <_end+0x16fc>
    1640:	00200593          	addi	a1,zero,2
    1644:	00b53633          	sltu	a2,a0,a1
    1648:	3ac72e23          	sw	a2,956(a4)

0000164c <inst_258>:
    164c:	0000b537          	lui	a0,0xb
    1650:	50450513          	addi	a0,a0,1284 # b504 <_end+0x16fc>
    1654:	555555b7          	lui	a1,0x55555
    1658:	55458593          	addi	a1,a1,1364 # 55555554 <absimm+0x10263025>
    165c:	00b53633          	sltu	a2,a0,a1
    1660:	3cc72023          	sw	a2,960(a4)

00001664 <inst_259>:
    1664:	0000b537          	lui	a0,0xb
    1668:	50450513          	addi	a0,a0,1284 # b504 <_end+0x16fc>
    166c:	aaaab5b7          	lui	a1,0xaaaab
    1670:	aa958593          	addi	a1,a1,-1367 # aaaaaaa9 <absimm+0x657b857a>
    1674:	00b53633          	sltu	a2,a0,a1
    1678:	3cc72223          	sw	a2,964(a4)

0000167c <inst_260>:
    167c:	0000b537          	lui	a0,0xb
    1680:	50450513          	addi	a0,a0,1284 # b504 <_end+0x16fc>
    1684:	00400593          	addi	a1,zero,4
    1688:	00b53633          	sltu	a2,a0,a1
    168c:	3cc72423          	sw	a2,968(a4)

00001690 <inst_261>:
    1690:	0000b537          	lui	a0,0xb
    1694:	50450513          	addi	a0,a0,1284 # b504 <_end+0x16fc>
    1698:	333335b7          	lui	a1,0x33333
    169c:	33258593          	addi	a1,a1,818 # 33333332 <_end+0x3332952a>
    16a0:	00b53633          	sltu	a2,a0,a1
    16a4:	3cc72623          	sw	a2,972(a4)

000016a8 <inst_262>:
    16a8:	0000b537          	lui	a0,0xb
    16ac:	50450513          	addi	a0,a0,1284 # b504 <_end+0x16fc>
    16b0:	666665b7          	lui	a1,0x66666
    16b4:	66558593          	addi	a1,a1,1637 # 66666665 <absimm+0x21374136>
    16b8:	00b53633          	sltu	a2,a0,a1
    16bc:	3cc72823          	sw	a2,976(a4)

000016c0 <inst_263>:
    16c0:	0000b537          	lui	a0,0xb
    16c4:	50450513          	addi	a0,a0,1284 # b504 <_end+0x16fc>
    16c8:	0000b5b7          	lui	a1,0xb
    16cc:	50358593          	addi	a1,a1,1283 # b503 <_end+0x16fb>
    16d0:	00b53633          	sltu	a2,a0,a1
    16d4:	3cc72a23          	sw	a2,980(a4)

000016d8 <inst_264>:
    16d8:	0000b537          	lui	a0,0xb
    16dc:	50450513          	addi	a0,a0,1284 # b504 <_end+0x16fc>
    16e0:	000105b7          	lui	a1,0x10
    16e4:	ffe58593          	addi	a1,a1,-2 # fffe <_end+0x61f6>
    16e8:	00b53633          	sltu	a2,a0,a1
    16ec:	3cc72c23          	sw	a2,984(a4)

000016f0 <inst_265>:
    16f0:	0000b537          	lui	a0,0xb
    16f4:	50450513          	addi	a0,a0,1284 # b504 <_end+0x16fc>
    16f8:	555555b7          	lui	a1,0x55555
    16fc:	55658593          	addi	a1,a1,1366 # 55555556 <absimm+0x10263027>
    1700:	00b53633          	sltu	a2,a0,a1
    1704:	3cc72e23          	sw	a2,988(a4)

00001708 <inst_266>:
    1708:	0000b537          	lui	a0,0xb
    170c:	50450513          	addi	a0,a0,1284 # b504 <_end+0x16fc>
    1710:	aaaab5b7          	lui	a1,0xaaaab
    1714:	aab58593          	addi	a1,a1,-1365 # aaaaaaab <absimm+0x657b857c>
    1718:	00b53633          	sltu	a2,a0,a1
    171c:	3ec72023          	sw	a2,992(a4)

00001720 <inst_267>:
    1720:	0000b537          	lui	a0,0xb
    1724:	50450513          	addi	a0,a0,1284 # b504 <_end+0x16fc>
    1728:	00600593          	addi	a1,zero,6
    172c:	00b53633          	sltu	a2,a0,a1
    1730:	3ec72223          	sw	a2,996(a4)

00001734 <inst_268>:
    1734:	0000b537          	lui	a0,0xb
    1738:	50450513          	addi	a0,a0,1284 # b504 <_end+0x16fc>
    173c:	333335b7          	lui	a1,0x33333
    1740:	33458593          	addi	a1,a1,820 # 33333334 <_end+0x3332952c>
    1744:	00b53633          	sltu	a2,a0,a1
    1748:	3ec72423          	sw	a2,1000(a4)

0000174c <inst_269>:
    174c:	0000b537          	lui	a0,0xb
    1750:	50450513          	addi	a0,a0,1284 # b504 <_end+0x16fc>
    1754:	666665b7          	lui	a1,0x66666
    1758:	66758593          	addi	a1,a1,1639 # 66666667 <absimm+0x21374138>
    175c:	00b53633          	sltu	a2,a0,a1
    1760:	3ec72623          	sw	a2,1004(a4)

00001764 <inst_270>:
    1764:	0000b537          	lui	a0,0xb
    1768:	50450513          	addi	a0,a0,1284 # b504 <_end+0x16fc>
    176c:	0000b5b7          	lui	a1,0xb
    1770:	50558593          	addi	a1,a1,1285 # b505 <_end+0x16fd>
    1774:	00b53633          	sltu	a2,a0,a1
    1778:	3ec72823          	sw	a2,1008(a4)

0000177c <inst_271>:
    177c:	0000b537          	lui	a0,0xb
    1780:	50450513          	addi	a0,a0,1284 # b504 <_end+0x16fc>
    1784:	00100593          	addi	a1,zero,1
    1788:	00b53633          	sltu	a2,a0,a1
    178c:	3ec72a23          	sw	a2,1012(a4)

00001790 <inst_272>:
    1790:	0000b537          	lui	a0,0xb
    1794:	50450513          	addi	a0,a0,1284 # b504 <_end+0x16fc>
    1798:	000105b7          	lui	a1,0x10
    179c:	00b53633          	sltu	a2,a0,a1
    17a0:	3ec72c23          	sw	a2,1016(a4)

000017a4 <inst_273>:
    17a4:	00000513          	addi	a0,zero,0
    17a8:	00300593          	addi	a1,zero,3
    17ac:	00b53633          	sltu	a2,a0,a1
    17b0:	3ec72e23          	sw	a2,1020(a4)

000017b4 <inst_274>:
    17b4:	00000513          	addi	a0,zero,0
    17b8:	555555b7          	lui	a1,0x55555
    17bc:	55558593          	addi	a1,a1,1365 # 55555555 <absimm+0x10263026>
    17c0:	00b53633          	sltu	a2,a0,a1
    17c4:	40c72023          	sw	a2,1024(a4)

000017c8 <inst_275>:
    17c8:	00000513          	addi	a0,zero,0
    17cc:	aaaab5b7          	lui	a1,0xaaaab
    17d0:	aaa58593          	addi	a1,a1,-1366 # aaaaaaaa <absimm+0x657b857b>
    17d4:	00b53633          	sltu	a2,a0,a1
    17d8:	40c72223          	sw	a2,1028(a4)

000017dc <inst_276>:
    17dc:	00000513          	addi	a0,zero,0
    17e0:	00500593          	addi	a1,zero,5
    17e4:	00b53633          	sltu	a2,a0,a1
    17e8:	40c72423          	sw	a2,1032(a4)

000017ec <inst_277>:
    17ec:	00000513          	addi	a0,zero,0
    17f0:	333335b7          	lui	a1,0x33333
    17f4:	33358593          	addi	a1,a1,819 # 33333333 <_end+0x3332952b>
    17f8:	00b53633          	sltu	a2,a0,a1
    17fc:	40c72623          	sw	a2,1036(a4)

00001800 <inst_278>:
    1800:	00000513          	addi	a0,zero,0
    1804:	666665b7          	lui	a1,0x66666
    1808:	66658593          	addi	a1,a1,1638 # 66666666 <absimm+0x21374137>
    180c:	00b53633          	sltu	a2,a0,a1
    1810:	40c72823          	sw	a2,1040(a4)

00001814 <inst_279>:
    1814:	00000513          	addi	a0,zero,0
    1818:	0000b5b7          	lui	a1,0xb
    181c:	50458593          	addi	a1,a1,1284 # b504 <_end+0x16fc>
    1820:	00b53633          	sltu	a2,a0,a1
    1824:	40c72a23          	sw	a2,1044(a4)

00001828 <inst_280>:
    1828:	00000513          	addi	a0,zero,0
    182c:	00000593          	addi	a1,zero,0
    1830:	00b53633          	sltu	a2,a0,a1
    1834:	40c72c23          	sw	a2,1048(a4)

00001838 <inst_281>:
    1838:	00000513          	addi	a0,zero,0
    183c:	000105b7          	lui	a1,0x10
    1840:	fff58593          	addi	a1,a1,-1 # ffff <_end+0x61f7>
    1844:	00b53633          	sltu	a2,a0,a1
    1848:	40c72e23          	sw	a2,1052(a4)

0000184c <inst_282>:
    184c:	00000513          	addi	a0,zero,0
    1850:	00200593          	addi	a1,zero,2
    1854:	00b53633          	sltu	a2,a0,a1
    1858:	42c72023          	sw	a2,1056(a4)

0000185c <inst_283>:
    185c:	00000513          	addi	a0,zero,0
    1860:	555555b7          	lui	a1,0x55555
    1864:	55458593          	addi	a1,a1,1364 # 55555554 <absimm+0x10263025>
    1868:	00b53633          	sltu	a2,a0,a1
    186c:	42c72223          	sw	a2,1060(a4)

00001870 <inst_284>:
    1870:	00000513          	addi	a0,zero,0
    1874:	aaaab5b7          	lui	a1,0xaaaab
    1878:	aa958593          	addi	a1,a1,-1367 # aaaaaaa9 <absimm+0x657b857a>
    187c:	00b53633          	sltu	a2,a0,a1
    1880:	42c72423          	sw	a2,1064(a4)

00001884 <inst_285>:
    1884:	00000513          	addi	a0,zero,0
    1888:	00400593          	addi	a1,zero,4
    188c:	00b53633          	sltu	a2,a0,a1
    1890:	42c72623          	sw	a2,1068(a4)

00001894 <inst_286>:
    1894:	00000513          	addi	a0,zero,0
    1898:	333335b7          	lui	a1,0x33333
    189c:	33258593          	addi	a1,a1,818 # 33333332 <_end+0x3332952a>
    18a0:	00b53633          	sltu	a2,a0,a1
    18a4:	42c72823          	sw	a2,1072(a4)

000018a8 <inst_287>:
    18a8:	00000513          	addi	a0,zero,0
    18ac:	666665b7          	lui	a1,0x66666
    18b0:	66558593          	addi	a1,a1,1637 # 66666665 <absimm+0x21374136>
    18b4:	00b53633          	sltu	a2,a0,a1
    18b8:	42c72a23          	sw	a2,1076(a4)

000018bc <inst_288>:
    18bc:	00000513          	addi	a0,zero,0
    18c0:	0000b5b7          	lui	a1,0xb
    18c4:	50358593          	addi	a1,a1,1283 # b503 <_end+0x16fb>
    18c8:	00b53633          	sltu	a2,a0,a1
    18cc:	42c72c23          	sw	a2,1080(a4)

000018d0 <inst_289>:
    18d0:	00000513          	addi	a0,zero,0
    18d4:	000105b7          	lui	a1,0x10
    18d8:	ffe58593          	addi	a1,a1,-2 # fffe <_end+0x61f6>
    18dc:	00b53633          	sltu	a2,a0,a1
    18e0:	42c72e23          	sw	a2,1084(a4)

000018e4 <inst_290>:
    18e4:	00000513          	addi	a0,zero,0
    18e8:	555555b7          	lui	a1,0x55555
    18ec:	55658593          	addi	a1,a1,1366 # 55555556 <absimm+0x10263027>
    18f0:	00b53633          	sltu	a2,a0,a1
    18f4:	44c72023          	sw	a2,1088(a4)

000018f8 <inst_291>:
    18f8:	00000513          	addi	a0,zero,0
    18fc:	aaaab5b7          	lui	a1,0xaaaab
    1900:	aab58593          	addi	a1,a1,-1365 # aaaaaaab <absimm+0x657b857c>
    1904:	00b53633          	sltu	a2,a0,a1
    1908:	44c72223          	sw	a2,1092(a4)

0000190c <inst_292>:
    190c:	00000513          	addi	a0,zero,0
    1910:	00600593          	addi	a1,zero,6
    1914:	00b53633          	sltu	a2,a0,a1
    1918:	44c72423          	sw	a2,1096(a4)

0000191c <inst_293>:
    191c:	00000513          	addi	a0,zero,0
    1920:	333335b7          	lui	a1,0x33333
    1924:	33458593          	addi	a1,a1,820 # 33333334 <_end+0x3332952c>
    1928:	00b53633          	sltu	a2,a0,a1
    192c:	44c72623          	sw	a2,1100(a4)

00001930 <inst_294>:
    1930:	00000513          	addi	a0,zero,0
    1934:	666665b7          	lui	a1,0x66666
    1938:	66758593          	addi	a1,a1,1639 # 66666667 <absimm+0x21374138>
    193c:	00b53633          	sltu	a2,a0,a1
    1940:	44c72823          	sw	a2,1104(a4)

00001944 <inst_295>:
    1944:	00000513          	addi	a0,zero,0
    1948:	0000b5b7          	lui	a1,0xb
    194c:	50558593          	addi	a1,a1,1285 # b505 <_end+0x16fd>
    1950:	00b53633          	sltu	a2,a0,a1
    1954:	44c72a23          	sw	a2,1108(a4)

00001958 <inst_296>:
    1958:	00000513          	addi	a0,zero,0
    195c:	00100593          	addi	a1,zero,1
    1960:	00b53633          	sltu	a2,a0,a1
    1964:	44c72c23          	sw	a2,1112(a4)

00001968 <inst_297>:
    1968:	00000513          	addi	a0,zero,0
    196c:	000105b7          	lui	a1,0x10
    1970:	00b53633          	sltu	a2,a0,a1
    1974:	44c72e23          	sw	a2,1116(a4)

00001978 <inst_298>:
    1978:	00010537          	lui	a0,0x10
    197c:	fff50513          	addi	a0,a0,-1 # ffff <_end+0x61f7>
    1980:	00300593          	addi	a1,zero,3
    1984:	00b53633          	sltu	a2,a0,a1
    1988:	46c72023          	sw	a2,1120(a4)

0000198c <inst_299>:
    198c:	00010537          	lui	a0,0x10
    1990:	fff50513          	addi	a0,a0,-1 # ffff <_end+0x61f7>
    1994:	555555b7          	lui	a1,0x55555
    1998:	55558593          	addi	a1,a1,1365 # 55555555 <absimm+0x10263026>
    199c:	00b53633          	sltu	a2,a0,a1
    19a0:	46c72223          	sw	a2,1124(a4)

000019a4 <inst_300>:
    19a4:	00010537          	lui	a0,0x10
    19a8:	fff50513          	addi	a0,a0,-1 # ffff <_end+0x61f7>
    19ac:	aaaab5b7          	lui	a1,0xaaaab
    19b0:	aaa58593          	addi	a1,a1,-1366 # aaaaaaaa <absimm+0x657b857b>
    19b4:	00b53633          	sltu	a2,a0,a1
    19b8:	46c72423          	sw	a2,1128(a4)

000019bc <inst_301>:
    19bc:	00010537          	lui	a0,0x10
    19c0:	fff50513          	addi	a0,a0,-1 # ffff <_end+0x61f7>
    19c4:	00500593          	addi	a1,zero,5
    19c8:	00b53633          	sltu	a2,a0,a1
    19cc:	46c72623          	sw	a2,1132(a4)

000019d0 <inst_302>:
    19d0:	00010537          	lui	a0,0x10
    19d4:	fff50513          	addi	a0,a0,-1 # ffff <_end+0x61f7>
    19d8:	333335b7          	lui	a1,0x33333
    19dc:	33358593          	addi	a1,a1,819 # 33333333 <_end+0x3332952b>
    19e0:	00b53633          	sltu	a2,a0,a1
    19e4:	46c72823          	sw	a2,1136(a4)

000019e8 <inst_303>:
    19e8:	00010537          	lui	a0,0x10
    19ec:	fff50513          	addi	a0,a0,-1 # ffff <_end+0x61f7>
    19f0:	666665b7          	lui	a1,0x66666
    19f4:	66658593          	addi	a1,a1,1638 # 66666666 <absimm+0x21374137>
    19f8:	00b53633          	sltu	a2,a0,a1
    19fc:	46c72a23          	sw	a2,1140(a4)

00001a00 <inst_304>:
    1a00:	00010537          	lui	a0,0x10
    1a04:	fff50513          	addi	a0,a0,-1 # ffff <_end+0x61f7>
    1a08:	0000b5b7          	lui	a1,0xb
    1a0c:	50458593          	addi	a1,a1,1284 # b504 <_end+0x16fc>
    1a10:	00b53633          	sltu	a2,a0,a1
    1a14:	46c72c23          	sw	a2,1144(a4)

00001a18 <inst_305>:
    1a18:	00010537          	lui	a0,0x10
    1a1c:	fff50513          	addi	a0,a0,-1 # ffff <_end+0x61f7>
    1a20:	00000593          	addi	a1,zero,0
    1a24:	00b53633          	sltu	a2,a0,a1
    1a28:	46c72e23          	sw	a2,1148(a4)

00001a2c <inst_306>:
    1a2c:	00010537          	lui	a0,0x10
    1a30:	fff50513          	addi	a0,a0,-1 # ffff <_end+0x61f7>
    1a34:	000105b7          	lui	a1,0x10
    1a38:	fff58593          	addi	a1,a1,-1 # ffff <_end+0x61f7>
    1a3c:	00b53633          	sltu	a2,a0,a1
    1a40:	48c72023          	sw	a2,1152(a4)

00001a44 <inst_307>:
    1a44:	00010537          	lui	a0,0x10
    1a48:	fff50513          	addi	a0,a0,-1 # ffff <_end+0x61f7>
    1a4c:	00200593          	addi	a1,zero,2
    1a50:	00b53633          	sltu	a2,a0,a1
    1a54:	48c72223          	sw	a2,1156(a4)

00001a58 <inst_308>:
    1a58:	00010537          	lui	a0,0x10
    1a5c:	fff50513          	addi	a0,a0,-1 # ffff <_end+0x61f7>
    1a60:	555555b7          	lui	a1,0x55555
    1a64:	55458593          	addi	a1,a1,1364 # 55555554 <absimm+0x10263025>
    1a68:	00b53633          	sltu	a2,a0,a1
    1a6c:	48c72423          	sw	a2,1160(a4)

00001a70 <inst_309>:
    1a70:	00010537          	lui	a0,0x10
    1a74:	fff50513          	addi	a0,a0,-1 # ffff <_end+0x61f7>
    1a78:	aaaab5b7          	lui	a1,0xaaaab
    1a7c:	aa958593          	addi	a1,a1,-1367 # aaaaaaa9 <absimm+0x657b857a>
    1a80:	00b53633          	sltu	a2,a0,a1
    1a84:	48c72623          	sw	a2,1164(a4)

00001a88 <inst_310>:
    1a88:	00010537          	lui	a0,0x10
    1a8c:	fff50513          	addi	a0,a0,-1 # ffff <_end+0x61f7>
    1a90:	00400593          	addi	a1,zero,4
    1a94:	00b53633          	sltu	a2,a0,a1
    1a98:	48c72823          	sw	a2,1168(a4)

00001a9c <inst_311>:
    1a9c:	00010537          	lui	a0,0x10
    1aa0:	fff50513          	addi	a0,a0,-1 # ffff <_end+0x61f7>
    1aa4:	333335b7          	lui	a1,0x33333
    1aa8:	33258593          	addi	a1,a1,818 # 33333332 <_end+0x3332952a>
    1aac:	00b53633          	sltu	a2,a0,a1
    1ab0:	48c72a23          	sw	a2,1172(a4)

00001ab4 <inst_312>:
    1ab4:	00010537          	lui	a0,0x10
    1ab8:	fff50513          	addi	a0,a0,-1 # ffff <_end+0x61f7>
    1abc:	666665b7          	lui	a1,0x66666
    1ac0:	66558593          	addi	a1,a1,1637 # 66666665 <absimm+0x21374136>
    1ac4:	00b53633          	sltu	a2,a0,a1
    1ac8:	48c72c23          	sw	a2,1176(a4)

00001acc <inst_313>:
    1acc:	00010537          	lui	a0,0x10
    1ad0:	fff50513          	addi	a0,a0,-1 # ffff <_end+0x61f7>
    1ad4:	0000b5b7          	lui	a1,0xb
    1ad8:	50358593          	addi	a1,a1,1283 # b503 <_end+0x16fb>
    1adc:	00b53633          	sltu	a2,a0,a1
    1ae0:	48c72e23          	sw	a2,1180(a4)

00001ae4 <inst_314>:
    1ae4:	00010537          	lui	a0,0x10
    1ae8:	fff50513          	addi	a0,a0,-1 # ffff <_end+0x61f7>
    1aec:	000105b7          	lui	a1,0x10
    1af0:	ffe58593          	addi	a1,a1,-2 # fffe <_end+0x61f6>
    1af4:	00b53633          	sltu	a2,a0,a1
    1af8:	4ac72023          	sw	a2,1184(a4)

00001afc <inst_315>:
    1afc:	00010537          	lui	a0,0x10
    1b00:	fff50513          	addi	a0,a0,-1 # ffff <_end+0x61f7>
    1b04:	555555b7          	lui	a1,0x55555
    1b08:	55658593          	addi	a1,a1,1366 # 55555556 <absimm+0x10263027>
    1b0c:	00b53633          	sltu	a2,a0,a1
    1b10:	4ac72223          	sw	a2,1188(a4)

00001b14 <inst_316>:
    1b14:	00010537          	lui	a0,0x10
    1b18:	fff50513          	addi	a0,a0,-1 # ffff <_end+0x61f7>
    1b1c:	aaaab5b7          	lui	a1,0xaaaab
    1b20:	aab58593          	addi	a1,a1,-1365 # aaaaaaab <absimm+0x657b857c>
    1b24:	00b53633          	sltu	a2,a0,a1
    1b28:	4ac72423          	sw	a2,1192(a4)

00001b2c <inst_317>:
    1b2c:	00010537          	lui	a0,0x10
    1b30:	fff50513          	addi	a0,a0,-1 # ffff <_end+0x61f7>
    1b34:	00600593          	addi	a1,zero,6
    1b38:	00b53633          	sltu	a2,a0,a1
    1b3c:	4ac72623          	sw	a2,1196(a4)

00001b40 <inst_318>:
    1b40:	00010537          	lui	a0,0x10
    1b44:	fff50513          	addi	a0,a0,-1 # ffff <_end+0x61f7>
    1b48:	333335b7          	lui	a1,0x33333
    1b4c:	33458593          	addi	a1,a1,820 # 33333334 <_end+0x3332952c>
    1b50:	00b53633          	sltu	a2,a0,a1
    1b54:	4ac72823          	sw	a2,1200(a4)

00001b58 <inst_319>:
    1b58:	00010537          	lui	a0,0x10
    1b5c:	fff50513          	addi	a0,a0,-1 # ffff <_end+0x61f7>
    1b60:	666665b7          	lui	a1,0x66666
    1b64:	66758593          	addi	a1,a1,1639 # 66666667 <absimm+0x21374138>
    1b68:	00b53633          	sltu	a2,a0,a1
    1b6c:	4ac72a23          	sw	a2,1204(a4)

00001b70 <inst_320>:
    1b70:	00010537          	lui	a0,0x10
    1b74:	fff50513          	addi	a0,a0,-1 # ffff <_end+0x61f7>
    1b78:	0000b5b7          	lui	a1,0xb
    1b7c:	50558593          	addi	a1,a1,1285 # b505 <_end+0x16fd>
    1b80:	00b53633          	sltu	a2,a0,a1
    1b84:	4ac72c23          	sw	a2,1208(a4)

00001b88 <inst_321>:
    1b88:	00010537          	lui	a0,0x10
    1b8c:	fff50513          	addi	a0,a0,-1 # ffff <_end+0x61f7>
    1b90:	00100593          	addi	a1,zero,1
    1b94:	00b53633          	sltu	a2,a0,a1
    1b98:	4ac72e23          	sw	a2,1212(a4)

00001b9c <inst_322>:
    1b9c:	00010537          	lui	a0,0x10
    1ba0:	fff50513          	addi	a0,a0,-1 # ffff <_end+0x61f7>
    1ba4:	000105b7          	lui	a1,0x10
    1ba8:	00b53633          	sltu	a2,a0,a1
    1bac:	4cc72023          	sw	a2,1216(a4)

00001bb0 <inst_323>:
    1bb0:	00200513          	addi	a0,zero,2
    1bb4:	00300593          	addi	a1,zero,3
    1bb8:	00b53633          	sltu	a2,a0,a1
    1bbc:	4cc72223          	sw	a2,1220(a4)

00001bc0 <inst_324>:
    1bc0:	00200513          	addi	a0,zero,2
    1bc4:	555555b7          	lui	a1,0x55555
    1bc8:	55558593          	addi	a1,a1,1365 # 55555555 <absimm+0x10263026>
    1bcc:	00b53633          	sltu	a2,a0,a1
    1bd0:	4cc72423          	sw	a2,1224(a4)

00001bd4 <inst_325>:
    1bd4:	00200513          	addi	a0,zero,2
    1bd8:	aaaab5b7          	lui	a1,0xaaaab
    1bdc:	aaa58593          	addi	a1,a1,-1366 # aaaaaaaa <absimm+0x657b857b>
    1be0:	00b53633          	sltu	a2,a0,a1
    1be4:	4cc72623          	sw	a2,1228(a4)

00001be8 <inst_326>:
    1be8:	00200513          	addi	a0,zero,2
    1bec:	00500593          	addi	a1,zero,5
    1bf0:	00b53633          	sltu	a2,a0,a1
    1bf4:	4cc72823          	sw	a2,1232(a4)

00001bf8 <inst_327>:
    1bf8:	00200513          	addi	a0,zero,2
    1bfc:	333335b7          	lui	a1,0x33333
    1c00:	33358593          	addi	a1,a1,819 # 33333333 <_end+0x3332952b>
    1c04:	00b53633          	sltu	a2,a0,a1
    1c08:	4cc72a23          	sw	a2,1236(a4)

00001c0c <inst_328>:
    1c0c:	00200513          	addi	a0,zero,2
    1c10:	666665b7          	lui	a1,0x66666
    1c14:	66658593          	addi	a1,a1,1638 # 66666666 <absimm+0x21374137>
    1c18:	00b53633          	sltu	a2,a0,a1
    1c1c:	4cc72c23          	sw	a2,1240(a4)

00001c20 <inst_329>:
    1c20:	00200513          	addi	a0,zero,2
    1c24:	0000b5b7          	lui	a1,0xb
    1c28:	50458593          	addi	a1,a1,1284 # b504 <_end+0x16fc>
    1c2c:	00b53633          	sltu	a2,a0,a1
    1c30:	4cc72e23          	sw	a2,1244(a4)

00001c34 <inst_330>:
    1c34:	00200513          	addi	a0,zero,2
    1c38:	00000593          	addi	a1,zero,0
    1c3c:	00b53633          	sltu	a2,a0,a1
    1c40:	4ec72023          	sw	a2,1248(a4)

00001c44 <inst_331>:
    1c44:	00200513          	addi	a0,zero,2
    1c48:	000105b7          	lui	a1,0x10
    1c4c:	fff58593          	addi	a1,a1,-1 # ffff <_end+0x61f7>
    1c50:	00b53633          	sltu	a2,a0,a1
    1c54:	4ec72223          	sw	a2,1252(a4)

00001c58 <inst_332>:
    1c58:	00200513          	addi	a0,zero,2
    1c5c:	00200593          	addi	a1,zero,2
    1c60:	00b53633          	sltu	a2,a0,a1
    1c64:	4ec72423          	sw	a2,1256(a4)

00001c68 <inst_333>:
    1c68:	00200513          	addi	a0,zero,2
    1c6c:	555555b7          	lui	a1,0x55555
    1c70:	55458593          	addi	a1,a1,1364 # 55555554 <absimm+0x10263025>
    1c74:	00b53633          	sltu	a2,a0,a1
    1c78:	4ec72623          	sw	a2,1260(a4)

00001c7c <inst_334>:
    1c7c:	00200513          	addi	a0,zero,2
    1c80:	aaaab5b7          	lui	a1,0xaaaab
    1c84:	aa958593          	addi	a1,a1,-1367 # aaaaaaa9 <absimm+0x657b857a>
    1c88:	00b53633          	sltu	a2,a0,a1
    1c8c:	4ec72823          	sw	a2,1264(a4)

00001c90 <inst_335>:
    1c90:	00200513          	addi	a0,zero,2
    1c94:	00400593          	addi	a1,zero,4
    1c98:	00b53633          	sltu	a2,a0,a1
    1c9c:	4ec72a23          	sw	a2,1268(a4)

00001ca0 <inst_336>:
    1ca0:	00200513          	addi	a0,zero,2
    1ca4:	333335b7          	lui	a1,0x33333
    1ca8:	33258593          	addi	a1,a1,818 # 33333332 <_end+0x3332952a>
    1cac:	00b53633          	sltu	a2,a0,a1
    1cb0:	4ec72c23          	sw	a2,1272(a4)

00001cb4 <inst_337>:
    1cb4:	00200513          	addi	a0,zero,2
    1cb8:	0000b5b7          	lui	a1,0xb
    1cbc:	50358593          	addi	a1,a1,1283 # b503 <_end+0x16fb>
    1cc0:	00b53633          	sltu	a2,a0,a1
    1cc4:	4ec72e23          	sw	a2,1276(a4)

00001cc8 <inst_338>:
    1cc8:	00200513          	addi	a0,zero,2
    1ccc:	000105b7          	lui	a1,0x10
    1cd0:	ffe58593          	addi	a1,a1,-2 # fffe <_end+0x61f6>
    1cd4:	00b53633          	sltu	a2,a0,a1
    1cd8:	50c72023          	sw	a2,1280(a4)

00001cdc <inst_339>:
    1cdc:	00200513          	addi	a0,zero,2
    1ce0:	555555b7          	lui	a1,0x55555
    1ce4:	55658593          	addi	a1,a1,1366 # 55555556 <absimm+0x10263027>
    1ce8:	00b53633          	sltu	a2,a0,a1
    1cec:	50c72223          	sw	a2,1284(a4)

00001cf0 <inst_340>:
    1cf0:	00200513          	addi	a0,zero,2
    1cf4:	aaaab5b7          	lui	a1,0xaaaab
    1cf8:	aab58593          	addi	a1,a1,-1365 # aaaaaaab <absimm+0x657b857c>
    1cfc:	00b53633          	sltu	a2,a0,a1
    1d00:	50c72423          	sw	a2,1288(a4)

00001d04 <inst_341>:
    1d04:	00200513          	addi	a0,zero,2
    1d08:	00600593          	addi	a1,zero,6
    1d0c:	00b53633          	sltu	a2,a0,a1
    1d10:	50c72623          	sw	a2,1292(a4)

00001d14 <inst_342>:
    1d14:	00200513          	addi	a0,zero,2
    1d18:	333335b7          	lui	a1,0x33333
    1d1c:	33458593          	addi	a1,a1,820 # 33333334 <_end+0x3332952c>
    1d20:	00b53633          	sltu	a2,a0,a1
    1d24:	50c72823          	sw	a2,1296(a4)

00001d28 <inst_343>:
    1d28:	00200513          	addi	a0,zero,2
    1d2c:	666665b7          	lui	a1,0x66666
    1d30:	66758593          	addi	a1,a1,1639 # 66666667 <absimm+0x21374138>
    1d34:	00b53633          	sltu	a2,a0,a1
    1d38:	50c72a23          	sw	a2,1300(a4)

00001d3c <inst_344>:
    1d3c:	00200513          	addi	a0,zero,2
    1d40:	0000b5b7          	lui	a1,0xb
    1d44:	50558593          	addi	a1,a1,1285 # b505 <_end+0x16fd>
    1d48:	00b53633          	sltu	a2,a0,a1
    1d4c:	50c72c23          	sw	a2,1304(a4)

00001d50 <inst_345>:
    1d50:	00200513          	addi	a0,zero,2
    1d54:	00100593          	addi	a1,zero,1
    1d58:	00b53633          	sltu	a2,a0,a1
    1d5c:	50c72e23          	sw	a2,1308(a4)

00001d60 <inst_346>:
    1d60:	00200513          	addi	a0,zero,2
    1d64:	000105b7          	lui	a1,0x10
    1d68:	00b53633          	sltu	a2,a0,a1
    1d6c:	52c72023          	sw	a2,1312(a4)

00001d70 <inst_347>:
    1d70:	55555537          	lui	a0,0x55555
    1d74:	55450513          	addi	a0,a0,1364 # 55555554 <absimm+0x10263025>
    1d78:	00300593          	addi	a1,zero,3
    1d7c:	00b53633          	sltu	a2,a0,a1
    1d80:	52c72223          	sw	a2,1316(a4)

00001d84 <inst_348>:
    1d84:	55555537          	lui	a0,0x55555
    1d88:	55450513          	addi	a0,a0,1364 # 55555554 <absimm+0x10263025>
    1d8c:	555555b7          	lui	a1,0x55555
    1d90:	55558593          	addi	a1,a1,1365 # 55555555 <absimm+0x10263026>
    1d94:	00b53633          	sltu	a2,a0,a1
    1d98:	52c72423          	sw	a2,1320(a4)

00001d9c <inst_349>:
    1d9c:	55555537          	lui	a0,0x55555
    1da0:	55450513          	addi	a0,a0,1364 # 55555554 <absimm+0x10263025>
    1da4:	00500593          	addi	a1,zero,5
    1da8:	00b53633          	sltu	a2,a0,a1
    1dac:	52c72623          	sw	a2,1324(a4)

00001db0 <inst_350>:
    1db0:	55555537          	lui	a0,0x55555
    1db4:	55450513          	addi	a0,a0,1364 # 55555554 <absimm+0x10263025>
    1db8:	333335b7          	lui	a1,0x33333
    1dbc:	33358593          	addi	a1,a1,819 # 33333333 <_end+0x3332952b>
    1dc0:	00b53633          	sltu	a2,a0,a1
    1dc4:	52c72823          	sw	a2,1328(a4)

00001dc8 <inst_351>:
    1dc8:	55555537          	lui	a0,0x55555
    1dcc:	55450513          	addi	a0,a0,1364 # 55555554 <absimm+0x10263025>
    1dd0:	666665b7          	lui	a1,0x66666
    1dd4:	66658593          	addi	a1,a1,1638 # 66666666 <absimm+0x21374137>
    1dd8:	00b53633          	sltu	a2,a0,a1
    1ddc:	52c72a23          	sw	a2,1332(a4)

00001de0 <inst_352>:
    1de0:	55555537          	lui	a0,0x55555
    1de4:	55450513          	addi	a0,a0,1364 # 55555554 <absimm+0x10263025>
    1de8:	0000b5b7          	lui	a1,0xb
    1dec:	50458593          	addi	a1,a1,1284 # b504 <_end+0x16fc>
    1df0:	00b53633          	sltu	a2,a0,a1
    1df4:	52c72c23          	sw	a2,1336(a4)

00001df8 <inst_353>:
    1df8:	55555537          	lui	a0,0x55555
    1dfc:	55450513          	addi	a0,a0,1364 # 55555554 <absimm+0x10263025>
    1e00:	00000593          	addi	a1,zero,0
    1e04:	00b53633          	sltu	a2,a0,a1
    1e08:	52c72e23          	sw	a2,1340(a4)

00001e0c <inst_354>:
    1e0c:	55555537          	lui	a0,0x55555
    1e10:	55450513          	addi	a0,a0,1364 # 55555554 <absimm+0x10263025>
    1e14:	000105b7          	lui	a1,0x10
    1e18:	fff58593          	addi	a1,a1,-1 # ffff <_end+0x61f7>
    1e1c:	00b53633          	sltu	a2,a0,a1
    1e20:	54c72023          	sw	a2,1344(a4)

00001e24 <inst_355>:
    1e24:	55555537          	lui	a0,0x55555
    1e28:	55450513          	addi	a0,a0,1364 # 55555554 <absimm+0x10263025>
    1e2c:	00200593          	addi	a1,zero,2
    1e30:	00b53633          	sltu	a2,a0,a1
    1e34:	54c72223          	sw	a2,1348(a4)

00001e38 <inst_356>:
    1e38:	55555537          	lui	a0,0x55555
    1e3c:	55450513          	addi	a0,a0,1364 # 55555554 <absimm+0x10263025>
    1e40:	555555b7          	lui	a1,0x55555
    1e44:	55458593          	addi	a1,a1,1364 # 55555554 <absimm+0x10263025>
    1e48:	00b53633          	sltu	a2,a0,a1
    1e4c:	54c72423          	sw	a2,1352(a4)

00001e50 <inst_357>:
    1e50:	55555537          	lui	a0,0x55555
    1e54:	55450513          	addi	a0,a0,1364 # 55555554 <absimm+0x10263025>
    1e58:	aaaab5b7          	lui	a1,0xaaaab
    1e5c:	aa958593          	addi	a1,a1,-1367 # aaaaaaa9 <absimm+0x657b857a>
    1e60:	00b53633          	sltu	a2,a0,a1
    1e64:	54c72623          	sw	a2,1356(a4)

00001e68 <inst_358>:
    1e68:	55555537          	lui	a0,0x55555
    1e6c:	55450513          	addi	a0,a0,1364 # 55555554 <absimm+0x10263025>
    1e70:	00400593          	addi	a1,zero,4
    1e74:	00b53633          	sltu	a2,a0,a1
    1e78:	54c72823          	sw	a2,1360(a4)

00001e7c <inst_359>:
    1e7c:	55555537          	lui	a0,0x55555
    1e80:	55450513          	addi	a0,a0,1364 # 55555554 <absimm+0x10263025>
    1e84:	333335b7          	lui	a1,0x33333
    1e88:	33258593          	addi	a1,a1,818 # 33333332 <_end+0x3332952a>
    1e8c:	00b53633          	sltu	a2,a0,a1
    1e90:	54c72a23          	sw	a2,1364(a4)

00001e94 <inst_360>:
    1e94:	55555537          	lui	a0,0x55555
    1e98:	55450513          	addi	a0,a0,1364 # 55555554 <absimm+0x10263025>
    1e9c:	666665b7          	lui	a1,0x66666
    1ea0:	66558593          	addi	a1,a1,1637 # 66666665 <absimm+0x21374136>
    1ea4:	00b53633          	sltu	a2,a0,a1
    1ea8:	54c72c23          	sw	a2,1368(a4)

00001eac <inst_361>:
    1eac:	55555537          	lui	a0,0x55555
    1eb0:	55450513          	addi	a0,a0,1364 # 55555554 <absimm+0x10263025>
    1eb4:	0000b5b7          	lui	a1,0xb
    1eb8:	50358593          	addi	a1,a1,1283 # b503 <_end+0x16fb>
    1ebc:	00b53633          	sltu	a2,a0,a1
    1ec0:	54c72e23          	sw	a2,1372(a4)

00001ec4 <inst_362>:
    1ec4:	55555537          	lui	a0,0x55555
    1ec8:	55450513          	addi	a0,a0,1364 # 55555554 <absimm+0x10263025>
    1ecc:	000105b7          	lui	a1,0x10
    1ed0:	ffe58593          	addi	a1,a1,-2 # fffe <_end+0x61f6>
    1ed4:	00b53633          	sltu	a2,a0,a1
    1ed8:	56c72023          	sw	a2,1376(a4)

00001edc <inst_363>:
    1edc:	55555537          	lui	a0,0x55555
    1ee0:	55450513          	addi	a0,a0,1364 # 55555554 <absimm+0x10263025>
    1ee4:	555555b7          	lui	a1,0x55555
    1ee8:	55658593          	addi	a1,a1,1366 # 55555556 <absimm+0x10263027>
    1eec:	00b53633          	sltu	a2,a0,a1
    1ef0:	56c72223          	sw	a2,1380(a4)

00001ef4 <inst_364>:
    1ef4:	55555537          	lui	a0,0x55555
    1ef8:	55450513          	addi	a0,a0,1364 # 55555554 <absimm+0x10263025>
    1efc:	aaaab5b7          	lui	a1,0xaaaab
    1f00:	aab58593          	addi	a1,a1,-1365 # aaaaaaab <absimm+0x657b857c>
    1f04:	00b53633          	sltu	a2,a0,a1
    1f08:	56c72423          	sw	a2,1384(a4)

00001f0c <inst_365>:
    1f0c:	55555537          	lui	a0,0x55555
    1f10:	55450513          	addi	a0,a0,1364 # 55555554 <absimm+0x10263025>
    1f14:	00600593          	addi	a1,zero,6
    1f18:	00b53633          	sltu	a2,a0,a1
    1f1c:	56c72623          	sw	a2,1388(a4)

00001f20 <inst_366>:
    1f20:	55555537          	lui	a0,0x55555
    1f24:	55450513          	addi	a0,a0,1364 # 55555554 <absimm+0x10263025>
    1f28:	333335b7          	lui	a1,0x33333
    1f2c:	33458593          	addi	a1,a1,820 # 33333334 <_end+0x3332952c>
    1f30:	00b53633          	sltu	a2,a0,a1
    1f34:	56c72823          	sw	a2,1392(a4)

00001f38 <inst_367>:
    1f38:	55555537          	lui	a0,0x55555
    1f3c:	55450513          	addi	a0,a0,1364 # 55555554 <absimm+0x10263025>
    1f40:	666665b7          	lui	a1,0x66666
    1f44:	66758593          	addi	a1,a1,1639 # 66666667 <absimm+0x21374138>
    1f48:	00b53633          	sltu	a2,a0,a1
    1f4c:	56c72a23          	sw	a2,1396(a4)

00001f50 <inst_368>:
    1f50:	55555537          	lui	a0,0x55555
    1f54:	55450513          	addi	a0,a0,1364 # 55555554 <absimm+0x10263025>
    1f58:	0000b5b7          	lui	a1,0xb
    1f5c:	50558593          	addi	a1,a1,1285 # b505 <_end+0x16fd>
    1f60:	00b53633          	sltu	a2,a0,a1
    1f64:	56c72c23          	sw	a2,1400(a4)

00001f68 <inst_369>:
    1f68:	55555537          	lui	a0,0x55555
    1f6c:	55450513          	addi	a0,a0,1364 # 55555554 <absimm+0x10263025>
    1f70:	00100593          	addi	a1,zero,1
    1f74:	00b53633          	sltu	a2,a0,a1
    1f78:	56c72e23          	sw	a2,1404(a4)

00001f7c <inst_370>:
    1f7c:	55555537          	lui	a0,0x55555
    1f80:	55450513          	addi	a0,a0,1364 # 55555554 <absimm+0x10263025>
    1f84:	000105b7          	lui	a1,0x10
    1f88:	00b53633          	sltu	a2,a0,a1
    1f8c:	58c72023          	sw	a2,1408(a4)

00001f90 <inst_371>:
    1f90:	aaaab537          	lui	a0,0xaaaab
    1f94:	aa950513          	addi	a0,a0,-1367 # aaaaaaa9 <absimm+0x657b857a>
    1f98:	00300593          	addi	a1,zero,3
    1f9c:	00b53633          	sltu	a2,a0,a1
    1fa0:	58c72223          	sw	a2,1412(a4)

00001fa4 <inst_372>:
    1fa4:	aaaab537          	lui	a0,0xaaaab
    1fa8:	aa950513          	addi	a0,a0,-1367 # aaaaaaa9 <absimm+0x657b857a>
    1fac:	555555b7          	lui	a1,0x55555
    1fb0:	55558593          	addi	a1,a1,1365 # 55555555 <absimm+0x10263026>
    1fb4:	00b53633          	sltu	a2,a0,a1
    1fb8:	58c72423          	sw	a2,1416(a4)

00001fbc <inst_373>:
    1fbc:	aaaab537          	lui	a0,0xaaaab
    1fc0:	aa950513          	addi	a0,a0,-1367 # aaaaaaa9 <absimm+0x657b857a>
    1fc4:	aaaab5b7          	lui	a1,0xaaaab
    1fc8:	aaa58593          	addi	a1,a1,-1366 # aaaaaaaa <absimm+0x657b857b>
    1fcc:	00b53633          	sltu	a2,a0,a1
    1fd0:	58c72623          	sw	a2,1420(a4)

00001fd4 <inst_374>:
    1fd4:	aaaab537          	lui	a0,0xaaaab
    1fd8:	aa950513          	addi	a0,a0,-1367 # aaaaaaa9 <absimm+0x657b857a>
    1fdc:	00500593          	addi	a1,zero,5
    1fe0:	00b53633          	sltu	a2,a0,a1
    1fe4:	58c72823          	sw	a2,1424(a4)

00001fe8 <inst_375>:
    1fe8:	aaaab537          	lui	a0,0xaaaab
    1fec:	aa950513          	addi	a0,a0,-1367 # aaaaaaa9 <absimm+0x657b857a>
    1ff0:	333335b7          	lui	a1,0x33333
    1ff4:	33358593          	addi	a1,a1,819 # 33333333 <_end+0x3332952b>
    1ff8:	00b53633          	sltu	a2,a0,a1
    1ffc:	58c72a23          	sw	a2,1428(a4)

00002000 <inst_376>:
    2000:	aaaab537          	lui	a0,0xaaaab
    2004:	aa950513          	addi	a0,a0,-1367 # aaaaaaa9 <absimm+0x657b857a>
    2008:	666665b7          	lui	a1,0x66666
    200c:	66658593          	addi	a1,a1,1638 # 66666666 <absimm+0x21374137>
    2010:	00b53633          	sltu	a2,a0,a1
    2014:	58c72c23          	sw	a2,1432(a4)

00002018 <inst_377>:
    2018:	aaaab537          	lui	a0,0xaaaab
    201c:	aa950513          	addi	a0,a0,-1367 # aaaaaaa9 <absimm+0x657b857a>
    2020:	0000b5b7          	lui	a1,0xb
    2024:	50458593          	addi	a1,a1,1284 # b504 <_end+0x16fc>
    2028:	00b53633          	sltu	a2,a0,a1
    202c:	58c72e23          	sw	a2,1436(a4)

00002030 <inst_378>:
    2030:	aaaab537          	lui	a0,0xaaaab
    2034:	aa950513          	addi	a0,a0,-1367 # aaaaaaa9 <absimm+0x657b857a>
    2038:	00000593          	addi	a1,zero,0
    203c:	00b53633          	sltu	a2,a0,a1
    2040:	5ac72023          	sw	a2,1440(a4)

00002044 <inst_379>:
    2044:	aaaab537          	lui	a0,0xaaaab
    2048:	aa950513          	addi	a0,a0,-1367 # aaaaaaa9 <absimm+0x657b857a>
    204c:	000105b7          	lui	a1,0x10
    2050:	fff58593          	addi	a1,a1,-1 # ffff <_end+0x61f7>
    2054:	00b53633          	sltu	a2,a0,a1
    2058:	5ac72223          	sw	a2,1444(a4)

0000205c <inst_380>:
    205c:	aaaab537          	lui	a0,0xaaaab
    2060:	aa950513          	addi	a0,a0,-1367 # aaaaaaa9 <absimm+0x657b857a>
    2064:	00200593          	addi	a1,zero,2
    2068:	00b53633          	sltu	a2,a0,a1
    206c:	5ac72423          	sw	a2,1448(a4)

00002070 <inst_381>:
    2070:	aaaab537          	lui	a0,0xaaaab
    2074:	aa950513          	addi	a0,a0,-1367 # aaaaaaa9 <absimm+0x657b857a>
    2078:	555555b7          	lui	a1,0x55555
    207c:	55458593          	addi	a1,a1,1364 # 55555554 <absimm+0x10263025>
    2080:	00b53633          	sltu	a2,a0,a1
    2084:	5ac72623          	sw	a2,1452(a4)

00002088 <inst_382>:
    2088:	aaaab537          	lui	a0,0xaaaab
    208c:	aa950513          	addi	a0,a0,-1367 # aaaaaaa9 <absimm+0x657b857a>
    2090:	aaaab5b7          	lui	a1,0xaaaab
    2094:	aa958593          	addi	a1,a1,-1367 # aaaaaaa9 <absimm+0x657b857a>
    2098:	00b53633          	sltu	a2,a0,a1
    209c:	5ac72823          	sw	a2,1456(a4)

000020a0 <inst_383>:
    20a0:	aaaab537          	lui	a0,0xaaaab
    20a4:	aa950513          	addi	a0,a0,-1367 # aaaaaaa9 <absimm+0x657b857a>
    20a8:	00400593          	addi	a1,zero,4
    20ac:	00b53633          	sltu	a2,a0,a1
    20b0:	5ac72a23          	sw	a2,1460(a4)

000020b4 <inst_384>:
    20b4:	aaaab537          	lui	a0,0xaaaab
    20b8:	aa950513          	addi	a0,a0,-1367 # aaaaaaa9 <absimm+0x657b857a>
    20bc:	333335b7          	lui	a1,0x33333
    20c0:	33258593          	addi	a1,a1,818 # 33333332 <_end+0x3332952a>
    20c4:	00b53633          	sltu	a2,a0,a1
    20c8:	5ac72c23          	sw	a2,1464(a4)

000020cc <inst_385>:
    20cc:	aaaab537          	lui	a0,0xaaaab
    20d0:	aa950513          	addi	a0,a0,-1367 # aaaaaaa9 <absimm+0x657b857a>
    20d4:	666665b7          	lui	a1,0x66666
    20d8:	66558593          	addi	a1,a1,1637 # 66666665 <absimm+0x21374136>
    20dc:	00b53633          	sltu	a2,a0,a1
    20e0:	5ac72e23          	sw	a2,1468(a4)

000020e4 <inst_386>:
    20e4:	aaaab537          	lui	a0,0xaaaab
    20e8:	aa950513          	addi	a0,a0,-1367 # aaaaaaa9 <absimm+0x657b857a>
    20ec:	0000b5b7          	lui	a1,0xb
    20f0:	50358593          	addi	a1,a1,1283 # b503 <_end+0x16fb>
    20f4:	00b53633          	sltu	a2,a0,a1
    20f8:	5cc72023          	sw	a2,1472(a4)

000020fc <inst_387>:
    20fc:	aaaab537          	lui	a0,0xaaaab
    2100:	aa950513          	addi	a0,a0,-1367 # aaaaaaa9 <absimm+0x657b857a>
    2104:	000105b7          	lui	a1,0x10
    2108:	ffe58593          	addi	a1,a1,-2 # fffe <_end+0x61f6>
    210c:	00b53633          	sltu	a2,a0,a1
    2110:	5cc72223          	sw	a2,1476(a4)

00002114 <inst_388>:
    2114:	aaaab537          	lui	a0,0xaaaab
    2118:	aa950513          	addi	a0,a0,-1367 # aaaaaaa9 <absimm+0x657b857a>
    211c:	555555b7          	lui	a1,0x55555
    2120:	55658593          	addi	a1,a1,1366 # 55555556 <absimm+0x10263027>
    2124:	00b53633          	sltu	a2,a0,a1
    2128:	5cc72423          	sw	a2,1480(a4)

0000212c <inst_389>:
    212c:	aaaab537          	lui	a0,0xaaaab
    2130:	aa950513          	addi	a0,a0,-1367 # aaaaaaa9 <absimm+0x657b857a>
    2134:	aaaab5b7          	lui	a1,0xaaaab
    2138:	aab58593          	addi	a1,a1,-1365 # aaaaaaab <absimm+0x657b857c>
    213c:	00b53633          	sltu	a2,a0,a1
    2140:	5cc72623          	sw	a2,1484(a4)

00002144 <inst_390>:
    2144:	aaaab537          	lui	a0,0xaaaab
    2148:	aa950513          	addi	a0,a0,-1367 # aaaaaaa9 <absimm+0x657b857a>
    214c:	00600593          	addi	a1,zero,6
    2150:	00b53633          	sltu	a2,a0,a1
    2154:	5cc72823          	sw	a2,1488(a4)

00002158 <inst_391>:
    2158:	aaaab537          	lui	a0,0xaaaab
    215c:	aa950513          	addi	a0,a0,-1367 # aaaaaaa9 <absimm+0x657b857a>
    2160:	333335b7          	lui	a1,0x33333
    2164:	33458593          	addi	a1,a1,820 # 33333334 <_end+0x3332952c>
    2168:	00b53633          	sltu	a2,a0,a1
    216c:	5cc72a23          	sw	a2,1492(a4)

00002170 <inst_392>:
    2170:	aaaab537          	lui	a0,0xaaaab
    2174:	aa950513          	addi	a0,a0,-1367 # aaaaaaa9 <absimm+0x657b857a>
    2178:	666665b7          	lui	a1,0x66666
    217c:	66758593          	addi	a1,a1,1639 # 66666667 <absimm+0x21374138>
    2180:	00b53633          	sltu	a2,a0,a1
    2184:	5cc72c23          	sw	a2,1496(a4)

00002188 <inst_393>:
    2188:	aaaab537          	lui	a0,0xaaaab
    218c:	aa950513          	addi	a0,a0,-1367 # aaaaaaa9 <absimm+0x657b857a>
    2190:	0000b5b7          	lui	a1,0xb
    2194:	50558593          	addi	a1,a1,1285 # b505 <_end+0x16fd>
    2198:	00b53633          	sltu	a2,a0,a1
    219c:	5cc72e23          	sw	a2,1500(a4)

000021a0 <inst_394>:
    21a0:	aaaab537          	lui	a0,0xaaaab
    21a4:	aa950513          	addi	a0,a0,-1367 # aaaaaaa9 <absimm+0x657b857a>
    21a8:	00100593          	addi	a1,zero,1
    21ac:	00b53633          	sltu	a2,a0,a1
    21b0:	5ec72023          	sw	a2,1504(a4)

000021b4 <inst_395>:
    21b4:	aaaab537          	lui	a0,0xaaaab
    21b8:	aa950513          	addi	a0,a0,-1367 # aaaaaaa9 <absimm+0x657b857a>
    21bc:	000105b7          	lui	a1,0x10
    21c0:	00b53633          	sltu	a2,a0,a1
    21c4:	5ec72223          	sw	a2,1508(a4)

000021c8 <inst_396>:
    21c8:	00400513          	addi	a0,zero,4
    21cc:	00300593          	addi	a1,zero,3
    21d0:	00b53633          	sltu	a2,a0,a1
    21d4:	5ec72423          	sw	a2,1512(a4)

000021d8 <inst_397>:
    21d8:	00400513          	addi	a0,zero,4
    21dc:	555555b7          	lui	a1,0x55555
    21e0:	55558593          	addi	a1,a1,1365 # 55555555 <absimm+0x10263026>
    21e4:	00b53633          	sltu	a2,a0,a1
    21e8:	5ec72623          	sw	a2,1516(a4)

000021ec <inst_398>:
    21ec:	00400513          	addi	a0,zero,4
    21f0:	aaaab5b7          	lui	a1,0xaaaab
    21f4:	aaa58593          	addi	a1,a1,-1366 # aaaaaaaa <absimm+0x657b857b>
    21f8:	00b53633          	sltu	a2,a0,a1
    21fc:	5ec72823          	sw	a2,1520(a4)

00002200 <inst_399>:
    2200:	00400513          	addi	a0,zero,4
    2204:	00500593          	addi	a1,zero,5
    2208:	00b53633          	sltu	a2,a0,a1
    220c:	5ec72a23          	sw	a2,1524(a4)

00002210 <inst_400>:
    2210:	00400513          	addi	a0,zero,4
    2214:	333335b7          	lui	a1,0x33333
    2218:	33358593          	addi	a1,a1,819 # 33333333 <_end+0x3332952b>
    221c:	00b53633          	sltu	a2,a0,a1
    2220:	5ec72c23          	sw	a2,1528(a4)

00002224 <inst_401>:
    2224:	00400513          	addi	a0,zero,4
    2228:	666665b7          	lui	a1,0x66666
    222c:	66658593          	addi	a1,a1,1638 # 66666666 <absimm+0x21374137>
    2230:	00b53633          	sltu	a2,a0,a1
    2234:	5ec72e23          	sw	a2,1532(a4)

00002238 <inst_402>:
    2238:	00400513          	addi	a0,zero,4
    223c:	0000b5b7          	lui	a1,0xb
    2240:	50458593          	addi	a1,a1,1284 # b504 <_end+0x16fc>
    2244:	00b53633          	sltu	a2,a0,a1
    2248:	60c72023          	sw	a2,1536(a4)

0000224c <inst_403>:
    224c:	00400513          	addi	a0,zero,4
    2250:	00000593          	addi	a1,zero,0
    2254:	00b53633          	sltu	a2,a0,a1
    2258:	60c72223          	sw	a2,1540(a4)

0000225c <inst_404>:
    225c:	00400513          	addi	a0,zero,4
    2260:	000105b7          	lui	a1,0x10
    2264:	fff58593          	addi	a1,a1,-1 # ffff <_end+0x61f7>
    2268:	00b53633          	sltu	a2,a0,a1
    226c:	60c72423          	sw	a2,1544(a4)

00002270 <inst_405>:
    2270:	00400513          	addi	a0,zero,4
    2274:	555555b7          	lui	a1,0x55555
    2278:	55458593          	addi	a1,a1,1364 # 55555554 <absimm+0x10263025>
    227c:	00b53633          	sltu	a2,a0,a1
    2280:	60c72623          	sw	a2,1548(a4)

00002284 <inst_406>:
    2284:	00400513          	addi	a0,zero,4
    2288:	aaaab5b7          	lui	a1,0xaaaab
    228c:	aa958593          	addi	a1,a1,-1367 # aaaaaaa9 <absimm+0x657b857a>
    2290:	00b53633          	sltu	a2,a0,a1
    2294:	60c72823          	sw	a2,1552(a4)

00002298 <inst_407>:
    2298:	00400513          	addi	a0,zero,4
    229c:	00400593          	addi	a1,zero,4
    22a0:	00b53633          	sltu	a2,a0,a1
    22a4:	60c72a23          	sw	a2,1556(a4)

000022a8 <inst_408>:
    22a8:	00400513          	addi	a0,zero,4
    22ac:	333335b7          	lui	a1,0x33333
    22b0:	33258593          	addi	a1,a1,818 # 33333332 <_end+0x3332952a>
    22b4:	00b53633          	sltu	a2,a0,a1
    22b8:	60c72c23          	sw	a2,1560(a4)

000022bc <inst_409>:
    22bc:	00400513          	addi	a0,zero,4
    22c0:	666665b7          	lui	a1,0x66666
    22c4:	66558593          	addi	a1,a1,1637 # 66666665 <absimm+0x21374136>
    22c8:	00b53633          	sltu	a2,a0,a1
    22cc:	60c72e23          	sw	a2,1564(a4)

000022d0 <inst_410>:
    22d0:	00400513          	addi	a0,zero,4
    22d4:	0000b5b7          	lui	a1,0xb
    22d8:	50358593          	addi	a1,a1,1283 # b503 <_end+0x16fb>
    22dc:	00b53633          	sltu	a2,a0,a1
    22e0:	62c72023          	sw	a2,1568(a4)

000022e4 <inst_411>:
    22e4:	00400513          	addi	a0,zero,4
    22e8:	000105b7          	lui	a1,0x10
    22ec:	ffe58593          	addi	a1,a1,-2 # fffe <_end+0x61f6>
    22f0:	00b53633          	sltu	a2,a0,a1
    22f4:	62c72223          	sw	a2,1572(a4)

000022f8 <inst_412>:
    22f8:	00400513          	addi	a0,zero,4
    22fc:	555555b7          	lui	a1,0x55555
    2300:	55658593          	addi	a1,a1,1366 # 55555556 <absimm+0x10263027>
    2304:	00b53633          	sltu	a2,a0,a1
    2308:	62c72423          	sw	a2,1576(a4)

0000230c <inst_413>:
    230c:	00400513          	addi	a0,zero,4
    2310:	aaaab5b7          	lui	a1,0xaaaab
    2314:	aab58593          	addi	a1,a1,-1365 # aaaaaaab <absimm+0x657b857c>
    2318:	00b53633          	sltu	a2,a0,a1
    231c:	62c72623          	sw	a2,1580(a4)

00002320 <inst_414>:
    2320:	00400513          	addi	a0,zero,4
    2324:	00600593          	addi	a1,zero,6
    2328:	00b53633          	sltu	a2,a0,a1
    232c:	62c72823          	sw	a2,1584(a4)

00002330 <inst_415>:
    2330:	00400513          	addi	a0,zero,4
    2334:	333335b7          	lui	a1,0x33333
    2338:	33458593          	addi	a1,a1,820 # 33333334 <_end+0x3332952c>
    233c:	00b53633          	sltu	a2,a0,a1
    2340:	62c72a23          	sw	a2,1588(a4)

00002344 <inst_416>:
    2344:	00400513          	addi	a0,zero,4
    2348:	666665b7          	lui	a1,0x66666
    234c:	66758593          	addi	a1,a1,1639 # 66666667 <absimm+0x21374138>
    2350:	00b53633          	sltu	a2,a0,a1
    2354:	62c72c23          	sw	a2,1592(a4)

00002358 <inst_417>:
    2358:	00400513          	addi	a0,zero,4
    235c:	0000b5b7          	lui	a1,0xb
    2360:	50558593          	addi	a1,a1,1285 # b505 <_end+0x16fd>
    2364:	00b53633          	sltu	a2,a0,a1
    2368:	62c72e23          	sw	a2,1596(a4)

0000236c <inst_418>:
    236c:	00400513          	addi	a0,zero,4
    2370:	00100593          	addi	a1,zero,1
    2374:	00b53633          	sltu	a2,a0,a1
    2378:	64c72023          	sw	a2,1600(a4)

0000237c <inst_419>:
    237c:	00400513          	addi	a0,zero,4
    2380:	000105b7          	lui	a1,0x10
    2384:	00b53633          	sltu	a2,a0,a1
    2388:	64c72223          	sw	a2,1604(a4)

0000238c <inst_420>:
    238c:	33333537          	lui	a0,0x33333
    2390:	33250513          	addi	a0,a0,818 # 33333332 <_end+0x3332952a>
    2394:	00300593          	addi	a1,zero,3
    2398:	00b53633          	sltu	a2,a0,a1
    239c:	64c72423          	sw	a2,1608(a4)

000023a0 <inst_421>:
    23a0:	33333537          	lui	a0,0x33333
    23a4:	33250513          	addi	a0,a0,818 # 33333332 <_end+0x3332952a>
    23a8:	555555b7          	lui	a1,0x55555
    23ac:	55558593          	addi	a1,a1,1365 # 55555555 <absimm+0x10263026>
    23b0:	00b53633          	sltu	a2,a0,a1
    23b4:	64c72623          	sw	a2,1612(a4)

000023b8 <inst_422>:
    23b8:	33333537          	lui	a0,0x33333
    23bc:	33250513          	addi	a0,a0,818 # 33333332 <_end+0x3332952a>
    23c0:	aaaab5b7          	lui	a1,0xaaaab
    23c4:	aaa58593          	addi	a1,a1,-1366 # aaaaaaaa <absimm+0x657b857b>
    23c8:	00b53633          	sltu	a2,a0,a1
    23cc:	64c72823          	sw	a2,1616(a4)

000023d0 <inst_423>:
    23d0:	33333537          	lui	a0,0x33333
    23d4:	33250513          	addi	a0,a0,818 # 33333332 <_end+0x3332952a>
    23d8:	00500593          	addi	a1,zero,5
    23dc:	00b53633          	sltu	a2,a0,a1
    23e0:	64c72a23          	sw	a2,1620(a4)

000023e4 <inst_424>:
    23e4:	33333537          	lui	a0,0x33333
    23e8:	33250513          	addi	a0,a0,818 # 33333332 <_end+0x3332952a>
    23ec:	333335b7          	lui	a1,0x33333
    23f0:	33358593          	addi	a1,a1,819 # 33333333 <_end+0x3332952b>
    23f4:	00b53633          	sltu	a2,a0,a1
    23f8:	64c72c23          	sw	a2,1624(a4)

000023fc <inst_425>:
    23fc:	33333537          	lui	a0,0x33333
    2400:	33250513          	addi	a0,a0,818 # 33333332 <_end+0x3332952a>
    2404:	666665b7          	lui	a1,0x66666
    2408:	66658593          	addi	a1,a1,1638 # 66666666 <absimm+0x21374137>
    240c:	00b53633          	sltu	a2,a0,a1
    2410:	64c72e23          	sw	a2,1628(a4)

00002414 <inst_426>:
    2414:	33333537          	lui	a0,0x33333
    2418:	33250513          	addi	a0,a0,818 # 33333332 <_end+0x3332952a>
    241c:	0000b5b7          	lui	a1,0xb
    2420:	50458593          	addi	a1,a1,1284 # b504 <_end+0x16fc>
    2424:	00b53633          	sltu	a2,a0,a1
    2428:	66c72023          	sw	a2,1632(a4)

0000242c <inst_427>:
    242c:	33333537          	lui	a0,0x33333
    2430:	33250513          	addi	a0,a0,818 # 33333332 <_end+0x3332952a>
    2434:	00000593          	addi	a1,zero,0
    2438:	00b53633          	sltu	a2,a0,a1
    243c:	66c72223          	sw	a2,1636(a4)

00002440 <inst_428>:
    2440:	33333537          	lui	a0,0x33333
    2444:	33250513          	addi	a0,a0,818 # 33333332 <_end+0x3332952a>
    2448:	000105b7          	lui	a1,0x10
    244c:	fff58593          	addi	a1,a1,-1 # ffff <_end+0x61f7>
    2450:	00b53633          	sltu	a2,a0,a1
    2454:	66c72423          	sw	a2,1640(a4)

00002458 <inst_429>:
    2458:	33333537          	lui	a0,0x33333
    245c:	33250513          	addi	a0,a0,818 # 33333332 <_end+0x3332952a>
    2460:	00200593          	addi	a1,zero,2
    2464:	00b53633          	sltu	a2,a0,a1
    2468:	66c72623          	sw	a2,1644(a4)

0000246c <inst_430>:
    246c:	33333537          	lui	a0,0x33333
    2470:	33250513          	addi	a0,a0,818 # 33333332 <_end+0x3332952a>
    2474:	555555b7          	lui	a1,0x55555
    2478:	55458593          	addi	a1,a1,1364 # 55555554 <absimm+0x10263025>
    247c:	00b53633          	sltu	a2,a0,a1
    2480:	66c72823          	sw	a2,1648(a4)

00002484 <inst_431>:
    2484:	33333537          	lui	a0,0x33333
    2488:	33250513          	addi	a0,a0,818 # 33333332 <_end+0x3332952a>
    248c:	aaaab5b7          	lui	a1,0xaaaab
    2490:	aa958593          	addi	a1,a1,-1367 # aaaaaaa9 <absimm+0x657b857a>
    2494:	00b53633          	sltu	a2,a0,a1
    2498:	66c72a23          	sw	a2,1652(a4)

0000249c <inst_432>:
    249c:	33333537          	lui	a0,0x33333
    24a0:	33250513          	addi	a0,a0,818 # 33333332 <_end+0x3332952a>
    24a4:	00400593          	addi	a1,zero,4
    24a8:	00b53633          	sltu	a2,a0,a1
    24ac:	66c72c23          	sw	a2,1656(a4)

000024b0 <inst_433>:
    24b0:	33333537          	lui	a0,0x33333
    24b4:	33250513          	addi	a0,a0,818 # 33333332 <_end+0x3332952a>
    24b8:	333335b7          	lui	a1,0x33333
    24bc:	33258593          	addi	a1,a1,818 # 33333332 <_end+0x3332952a>
    24c0:	00b53633          	sltu	a2,a0,a1
    24c4:	66c72e23          	sw	a2,1660(a4)

000024c8 <inst_434>:
    24c8:	33333537          	lui	a0,0x33333
    24cc:	33250513          	addi	a0,a0,818 # 33333332 <_end+0x3332952a>
    24d0:	666665b7          	lui	a1,0x66666
    24d4:	66558593          	addi	a1,a1,1637 # 66666665 <absimm+0x21374136>
    24d8:	00b53633          	sltu	a2,a0,a1
    24dc:	68c72023          	sw	a2,1664(a4)

000024e0 <inst_435>:
    24e0:	33333537          	lui	a0,0x33333
    24e4:	33250513          	addi	a0,a0,818 # 33333332 <_end+0x3332952a>
    24e8:	0000b5b7          	lui	a1,0xb
    24ec:	50358593          	addi	a1,a1,1283 # b503 <_end+0x16fb>
    24f0:	00b53633          	sltu	a2,a0,a1
    24f4:	68c72223          	sw	a2,1668(a4)

000024f8 <inst_436>:
    24f8:	33333537          	lui	a0,0x33333
    24fc:	33250513          	addi	a0,a0,818 # 33333332 <_end+0x3332952a>
    2500:	000105b7          	lui	a1,0x10
    2504:	ffe58593          	addi	a1,a1,-2 # fffe <_end+0x61f6>
    2508:	00b53633          	sltu	a2,a0,a1
    250c:	68c72423          	sw	a2,1672(a4)

00002510 <inst_437>:
    2510:	33333537          	lui	a0,0x33333
    2514:	33250513          	addi	a0,a0,818 # 33333332 <_end+0x3332952a>
    2518:	555555b7          	lui	a1,0x55555
    251c:	55658593          	addi	a1,a1,1366 # 55555556 <absimm+0x10263027>
    2520:	00b53633          	sltu	a2,a0,a1
    2524:	68c72623          	sw	a2,1676(a4)

00002528 <inst_438>:
    2528:	33333537          	lui	a0,0x33333
    252c:	33250513          	addi	a0,a0,818 # 33333332 <_end+0x3332952a>
    2530:	aaaab5b7          	lui	a1,0xaaaab
    2534:	aab58593          	addi	a1,a1,-1365 # aaaaaaab <absimm+0x657b857c>
    2538:	00b53633          	sltu	a2,a0,a1
    253c:	68c72823          	sw	a2,1680(a4)

00002540 <inst_439>:
    2540:	33333537          	lui	a0,0x33333
    2544:	33250513          	addi	a0,a0,818 # 33333332 <_end+0x3332952a>
    2548:	00600593          	addi	a1,zero,6
    254c:	00b53633          	sltu	a2,a0,a1
    2550:	68c72a23          	sw	a2,1684(a4)

00002554 <inst_440>:
    2554:	33333537          	lui	a0,0x33333
    2558:	33250513          	addi	a0,a0,818 # 33333332 <_end+0x3332952a>
    255c:	333335b7          	lui	a1,0x33333
    2560:	33458593          	addi	a1,a1,820 # 33333334 <_end+0x3332952c>
    2564:	00b53633          	sltu	a2,a0,a1
    2568:	68c72c23          	sw	a2,1688(a4)

0000256c <inst_441>:
    256c:	33333537          	lui	a0,0x33333
    2570:	33250513          	addi	a0,a0,818 # 33333332 <_end+0x3332952a>
    2574:	666665b7          	lui	a1,0x66666
    2578:	66758593          	addi	a1,a1,1639 # 66666667 <absimm+0x21374138>
    257c:	00b53633          	sltu	a2,a0,a1
    2580:	68c72e23          	sw	a2,1692(a4)

00002584 <inst_442>:
    2584:	33333537          	lui	a0,0x33333
    2588:	33250513          	addi	a0,a0,818 # 33333332 <_end+0x3332952a>
    258c:	0000b5b7          	lui	a1,0xb
    2590:	50558593          	addi	a1,a1,1285 # b505 <_end+0x16fd>
    2594:	00b53633          	sltu	a2,a0,a1
    2598:	6ac72023          	sw	a2,1696(a4)

0000259c <inst_443>:
    259c:	33333537          	lui	a0,0x33333
    25a0:	33250513          	addi	a0,a0,818 # 33333332 <_end+0x3332952a>
    25a4:	00100593          	addi	a1,zero,1
    25a8:	00b53633          	sltu	a2,a0,a1
    25ac:	6ac72223          	sw	a2,1700(a4)

000025b0 <inst_444>:
    25b0:	33333537          	lui	a0,0x33333
    25b4:	33250513          	addi	a0,a0,818 # 33333332 <_end+0x3332952a>
    25b8:	000105b7          	lui	a1,0x10
    25bc:	00b53633          	sltu	a2,a0,a1
    25c0:	6ac72423          	sw	a2,1704(a4)

000025c4 <inst_445>:
    25c4:	66666537          	lui	a0,0x66666
    25c8:	66550513          	addi	a0,a0,1637 # 66666665 <absimm+0x21374136>
    25cc:	00300593          	addi	a1,zero,3
    25d0:	00b53633          	sltu	a2,a0,a1
    25d4:	6ac72623          	sw	a2,1708(a4)

000025d8 <inst_446>:
    25d8:	66666537          	lui	a0,0x66666
    25dc:	66550513          	addi	a0,a0,1637 # 66666665 <absimm+0x21374136>
    25e0:	555555b7          	lui	a1,0x55555
    25e4:	55558593          	addi	a1,a1,1365 # 55555555 <absimm+0x10263026>
    25e8:	00b53633          	sltu	a2,a0,a1
    25ec:	6ac72823          	sw	a2,1712(a4)

000025f0 <inst_447>:
    25f0:	66666537          	lui	a0,0x66666
    25f4:	66550513          	addi	a0,a0,1637 # 66666665 <absimm+0x21374136>
    25f8:	aaaab5b7          	lui	a1,0xaaaab
    25fc:	aaa58593          	addi	a1,a1,-1366 # aaaaaaaa <absimm+0x657b857b>
    2600:	00b53633          	sltu	a2,a0,a1
    2604:	6ac72a23          	sw	a2,1716(a4)

00002608 <inst_448>:
    2608:	66666537          	lui	a0,0x66666
    260c:	66550513          	addi	a0,a0,1637 # 66666665 <absimm+0x21374136>
    2610:	00500593          	addi	a1,zero,5
    2614:	00b53633          	sltu	a2,a0,a1
    2618:	6ac72c23          	sw	a2,1720(a4)

0000261c <inst_449>:
    261c:	66666537          	lui	a0,0x66666
    2620:	66550513          	addi	a0,a0,1637 # 66666665 <absimm+0x21374136>
    2624:	333335b7          	lui	a1,0x33333
    2628:	33358593          	addi	a1,a1,819 # 33333333 <_end+0x3332952b>
    262c:	00b53633          	sltu	a2,a0,a1
    2630:	6ac72e23          	sw	a2,1724(a4)

00002634 <inst_450>:
    2634:	66666537          	lui	a0,0x66666
    2638:	66550513          	addi	a0,a0,1637 # 66666665 <absimm+0x21374136>
    263c:	666665b7          	lui	a1,0x66666
    2640:	66658593          	addi	a1,a1,1638 # 66666666 <absimm+0x21374137>
    2644:	00b53633          	sltu	a2,a0,a1
    2648:	6cc72023          	sw	a2,1728(a4)

0000264c <inst_451>:
    264c:	66666537          	lui	a0,0x66666
    2650:	66550513          	addi	a0,a0,1637 # 66666665 <absimm+0x21374136>
    2654:	0000b5b7          	lui	a1,0xb
    2658:	50458593          	addi	a1,a1,1284 # b504 <_end+0x16fc>
    265c:	00b53633          	sltu	a2,a0,a1
    2660:	6cc72223          	sw	a2,1732(a4)

00002664 <inst_452>:
    2664:	66666537          	lui	a0,0x66666
    2668:	66550513          	addi	a0,a0,1637 # 66666665 <absimm+0x21374136>
    266c:	00000593          	addi	a1,zero,0
    2670:	00b53633          	sltu	a2,a0,a1
    2674:	6cc72423          	sw	a2,1736(a4)

00002678 <inst_453>:
    2678:	66666537          	lui	a0,0x66666
    267c:	66550513          	addi	a0,a0,1637 # 66666665 <absimm+0x21374136>
    2680:	000105b7          	lui	a1,0x10
    2684:	fff58593          	addi	a1,a1,-1 # ffff <_end+0x61f7>
    2688:	00b53633          	sltu	a2,a0,a1
    268c:	6cc72623          	sw	a2,1740(a4)

00002690 <inst_454>:
    2690:	66666537          	lui	a0,0x66666
    2694:	66550513          	addi	a0,a0,1637 # 66666665 <absimm+0x21374136>
    2698:	00200593          	addi	a1,zero,2
    269c:	00b53633          	sltu	a2,a0,a1
    26a0:	6cc72823          	sw	a2,1744(a4)

000026a4 <inst_455>:
    26a4:	66666537          	lui	a0,0x66666
    26a8:	66550513          	addi	a0,a0,1637 # 66666665 <absimm+0x21374136>
    26ac:	555555b7          	lui	a1,0x55555
    26b0:	55458593          	addi	a1,a1,1364 # 55555554 <absimm+0x10263025>
    26b4:	00b53633          	sltu	a2,a0,a1
    26b8:	6cc72a23          	sw	a2,1748(a4)

000026bc <inst_456>:
    26bc:	66666537          	lui	a0,0x66666
    26c0:	66550513          	addi	a0,a0,1637 # 66666665 <absimm+0x21374136>
    26c4:	aaaab5b7          	lui	a1,0xaaaab
    26c8:	aa958593          	addi	a1,a1,-1367 # aaaaaaa9 <absimm+0x657b857a>
    26cc:	00b53633          	sltu	a2,a0,a1
    26d0:	6cc72c23          	sw	a2,1752(a4)

000026d4 <inst_457>:
    26d4:	66666537          	lui	a0,0x66666
    26d8:	66550513          	addi	a0,a0,1637 # 66666665 <absimm+0x21374136>
    26dc:	00400593          	addi	a1,zero,4
    26e0:	00b53633          	sltu	a2,a0,a1
    26e4:	6cc72e23          	sw	a2,1756(a4)

000026e8 <inst_458>:
    26e8:	66666537          	lui	a0,0x66666
    26ec:	66550513          	addi	a0,a0,1637 # 66666665 <absimm+0x21374136>
    26f0:	333335b7          	lui	a1,0x33333
    26f4:	33258593          	addi	a1,a1,818 # 33333332 <_end+0x3332952a>
    26f8:	00b53633          	sltu	a2,a0,a1
    26fc:	6ec72023          	sw	a2,1760(a4)

00002700 <inst_459>:
    2700:	66666537          	lui	a0,0x66666
    2704:	66550513          	addi	a0,a0,1637 # 66666665 <absimm+0x21374136>
    2708:	666665b7          	lui	a1,0x66666
    270c:	66558593          	addi	a1,a1,1637 # 66666665 <absimm+0x21374136>
    2710:	00b53633          	sltu	a2,a0,a1
    2714:	6ec72223          	sw	a2,1764(a4)

00002718 <inst_460>:
    2718:	66666537          	lui	a0,0x66666
    271c:	66550513          	addi	a0,a0,1637 # 66666665 <absimm+0x21374136>
    2720:	0000b5b7          	lui	a1,0xb
    2724:	50358593          	addi	a1,a1,1283 # b503 <_end+0x16fb>
    2728:	00b53633          	sltu	a2,a0,a1
    272c:	6ec72423          	sw	a2,1768(a4)

00002730 <inst_461>:
    2730:	66666537          	lui	a0,0x66666
    2734:	66550513          	addi	a0,a0,1637 # 66666665 <absimm+0x21374136>
    2738:	000105b7          	lui	a1,0x10
    273c:	ffe58593          	addi	a1,a1,-2 # fffe <_end+0x61f6>
    2740:	00b53633          	sltu	a2,a0,a1
    2744:	6ec72623          	sw	a2,1772(a4)

00002748 <inst_462>:
    2748:	66666537          	lui	a0,0x66666
    274c:	66550513          	addi	a0,a0,1637 # 66666665 <absimm+0x21374136>
    2750:	555555b7          	lui	a1,0x55555
    2754:	55658593          	addi	a1,a1,1366 # 55555556 <absimm+0x10263027>
    2758:	00b53633          	sltu	a2,a0,a1
    275c:	6ec72823          	sw	a2,1776(a4)

00002760 <inst_463>:
    2760:	66666537          	lui	a0,0x66666
    2764:	66550513          	addi	a0,a0,1637 # 66666665 <absimm+0x21374136>
    2768:	00100593          	addi	a1,zero,1
    276c:	00b53633          	sltu	a2,a0,a1
    2770:	6ec72a23          	sw	a2,1780(a4)

00002774 <inst_464>:
    2774:	66666537          	lui	a0,0x66666
    2778:	66550513          	addi	a0,a0,1637 # 66666665 <absimm+0x21374136>
    277c:	000105b7          	lui	a1,0x10
    2780:	00b53633          	sltu	a2,a0,a1
    2784:	6ec72c23          	sw	a2,1784(a4)

00002788 <inst_465>:
    2788:	0000b537          	lui	a0,0xb
    278c:	50350513          	addi	a0,a0,1283 # b503 <_end+0x16fb>
    2790:	00300593          	addi	a1,zero,3
    2794:	00b53633          	sltu	a2,a0,a1
    2798:	6ec72e23          	sw	a2,1788(a4)

0000279c <inst_466>:
    279c:	0000b537          	lui	a0,0xb
    27a0:	50350513          	addi	a0,a0,1283 # b503 <_end+0x16fb>
    27a4:	555555b7          	lui	a1,0x55555
    27a8:	55558593          	addi	a1,a1,1365 # 55555555 <absimm+0x10263026>
    27ac:	00b53633          	sltu	a2,a0,a1
    27b0:	70c72023          	sw	a2,1792(a4)

000027b4 <inst_467>:
    27b4:	0000b537          	lui	a0,0xb
    27b8:	50350513          	addi	a0,a0,1283 # b503 <_end+0x16fb>
    27bc:	aaaab5b7          	lui	a1,0xaaaab
    27c0:	aaa58593          	addi	a1,a1,-1366 # aaaaaaaa <absimm+0x657b857b>
    27c4:	00b53633          	sltu	a2,a0,a1
    27c8:	70c72223          	sw	a2,1796(a4)

000027cc <inst_468>:
    27cc:	0000b537          	lui	a0,0xb
    27d0:	50350513          	addi	a0,a0,1283 # b503 <_end+0x16fb>
    27d4:	00500593          	addi	a1,zero,5
    27d8:	00b53633          	sltu	a2,a0,a1
    27dc:	70c72423          	sw	a2,1800(a4)

000027e0 <inst_469>:
    27e0:	0000b537          	lui	a0,0xb
    27e4:	50350513          	addi	a0,a0,1283 # b503 <_end+0x16fb>
    27e8:	333335b7          	lui	a1,0x33333
    27ec:	33358593          	addi	a1,a1,819 # 33333333 <_end+0x3332952b>
    27f0:	00b53633          	sltu	a2,a0,a1
    27f4:	70c72623          	sw	a2,1804(a4)

000027f8 <inst_470>:
    27f8:	0000b537          	lui	a0,0xb
    27fc:	50350513          	addi	a0,a0,1283 # b503 <_end+0x16fb>
    2800:	666665b7          	lui	a1,0x66666
    2804:	66658593          	addi	a1,a1,1638 # 66666666 <absimm+0x21374137>
    2808:	00b53633          	sltu	a2,a0,a1
    280c:	70c72823          	sw	a2,1808(a4)

00002810 <inst_471>:
    2810:	0000b537          	lui	a0,0xb
    2814:	50350513          	addi	a0,a0,1283 # b503 <_end+0x16fb>
    2818:	0000b5b7          	lui	a1,0xb
    281c:	50458593          	addi	a1,a1,1284 # b504 <_end+0x16fc>
    2820:	00b53633          	sltu	a2,a0,a1
    2824:	70c72a23          	sw	a2,1812(a4)

00002828 <inst_472>:
    2828:	0000b537          	lui	a0,0xb
    282c:	50350513          	addi	a0,a0,1283 # b503 <_end+0x16fb>
    2830:	00000593          	addi	a1,zero,0
    2834:	00b53633          	sltu	a2,a0,a1
    2838:	70c72c23          	sw	a2,1816(a4)

0000283c <inst_473>:
    283c:	0000b537          	lui	a0,0xb
    2840:	50350513          	addi	a0,a0,1283 # b503 <_end+0x16fb>
    2844:	000105b7          	lui	a1,0x10
    2848:	fff58593          	addi	a1,a1,-1 # ffff <_end+0x61f7>
    284c:	00b53633          	sltu	a2,a0,a1
    2850:	70c72e23          	sw	a2,1820(a4)

00002854 <inst_474>:
    2854:	0000b537          	lui	a0,0xb
    2858:	50350513          	addi	a0,a0,1283 # b503 <_end+0x16fb>
    285c:	00200593          	addi	a1,zero,2
    2860:	00b53633          	sltu	a2,a0,a1
    2864:	72c72023          	sw	a2,1824(a4)

00002868 <inst_475>:
    2868:	0000b537          	lui	a0,0xb
    286c:	50350513          	addi	a0,a0,1283 # b503 <_end+0x16fb>
    2870:	555555b7          	lui	a1,0x55555
    2874:	55458593          	addi	a1,a1,1364 # 55555554 <absimm+0x10263025>
    2878:	00b53633          	sltu	a2,a0,a1
    287c:	72c72223          	sw	a2,1828(a4)

00002880 <inst_476>:
    2880:	0000b537          	lui	a0,0xb
    2884:	50350513          	addi	a0,a0,1283 # b503 <_end+0x16fb>
    2888:	aaaab5b7          	lui	a1,0xaaaab
    288c:	aa958593          	addi	a1,a1,-1367 # aaaaaaa9 <absimm+0x657b857a>
    2890:	00b53633          	sltu	a2,a0,a1
    2894:	72c72423          	sw	a2,1832(a4)

00002898 <inst_477>:
    2898:	0000b537          	lui	a0,0xb
    289c:	50350513          	addi	a0,a0,1283 # b503 <_end+0x16fb>
    28a0:	00400593          	addi	a1,zero,4
    28a4:	00b53633          	sltu	a2,a0,a1
    28a8:	72c72623          	sw	a2,1836(a4)

000028ac <inst_478>:
    28ac:	0000b537          	lui	a0,0xb
    28b0:	50350513          	addi	a0,a0,1283 # b503 <_end+0x16fb>
    28b4:	333335b7          	lui	a1,0x33333
    28b8:	33258593          	addi	a1,a1,818 # 33333332 <_end+0x3332952a>
    28bc:	00b53633          	sltu	a2,a0,a1
    28c0:	72c72823          	sw	a2,1840(a4)

000028c4 <inst_479>:
    28c4:	0000b537          	lui	a0,0xb
    28c8:	50350513          	addi	a0,a0,1283 # b503 <_end+0x16fb>
    28cc:	666665b7          	lui	a1,0x66666
    28d0:	66558593          	addi	a1,a1,1637 # 66666665 <absimm+0x21374136>
    28d4:	00b53633          	sltu	a2,a0,a1
    28d8:	72c72a23          	sw	a2,1844(a4)

000028dc <inst_480>:
    28dc:	0000b537          	lui	a0,0xb
    28e0:	50350513          	addi	a0,a0,1283 # b503 <_end+0x16fb>
    28e4:	0000b5b7          	lui	a1,0xb
    28e8:	50358593          	addi	a1,a1,1283 # b503 <_end+0x16fb>
    28ec:	00b53633          	sltu	a2,a0,a1
    28f0:	72c72c23          	sw	a2,1848(a4)

000028f4 <inst_481>:
    28f4:	0000b537          	lui	a0,0xb
    28f8:	50350513          	addi	a0,a0,1283 # b503 <_end+0x16fb>
    28fc:	000105b7          	lui	a1,0x10
    2900:	ffe58593          	addi	a1,a1,-2 # fffe <_end+0x61f6>
    2904:	00b53633          	sltu	a2,a0,a1
    2908:	72c72e23          	sw	a2,1852(a4)

0000290c <inst_482>:
    290c:	0000b537          	lui	a0,0xb
    2910:	50350513          	addi	a0,a0,1283 # b503 <_end+0x16fb>
    2914:	555555b7          	lui	a1,0x55555
    2918:	55658593          	addi	a1,a1,1366 # 55555556 <absimm+0x10263027>
    291c:	00b53633          	sltu	a2,a0,a1
    2920:	74c72023          	sw	a2,1856(a4)

00002924 <inst_483>:
    2924:	0000b537          	lui	a0,0xb
    2928:	50350513          	addi	a0,a0,1283 # b503 <_end+0x16fb>
    292c:	aaaab5b7          	lui	a1,0xaaaab
    2930:	aab58593          	addi	a1,a1,-1365 # aaaaaaab <absimm+0x657b857c>
    2934:	00b53633          	sltu	a2,a0,a1
    2938:	74c72223          	sw	a2,1860(a4)

0000293c <inst_484>:
    293c:	0000b537          	lui	a0,0xb
    2940:	50350513          	addi	a0,a0,1283 # b503 <_end+0x16fb>
    2944:	00600593          	addi	a1,zero,6
    2948:	00b53633          	sltu	a2,a0,a1
    294c:	74c72423          	sw	a2,1864(a4)

00002950 <inst_485>:
    2950:	0000b537          	lui	a0,0xb
    2954:	50350513          	addi	a0,a0,1283 # b503 <_end+0x16fb>
    2958:	333335b7          	lui	a1,0x33333
    295c:	33458593          	addi	a1,a1,820 # 33333334 <_end+0x3332952c>
    2960:	00b53633          	sltu	a2,a0,a1
    2964:	74c72623          	sw	a2,1868(a4)

00002968 <inst_486>:
    2968:	0000b537          	lui	a0,0xb
    296c:	50350513          	addi	a0,a0,1283 # b503 <_end+0x16fb>
    2970:	666665b7          	lui	a1,0x66666
    2974:	66758593          	addi	a1,a1,1639 # 66666667 <absimm+0x21374138>
    2978:	00b53633          	sltu	a2,a0,a1
    297c:	74c72823          	sw	a2,1872(a4)

00002980 <inst_487>:
    2980:	0000b537          	lui	a0,0xb
    2984:	50350513          	addi	a0,a0,1283 # b503 <_end+0x16fb>
    2988:	0000b5b7          	lui	a1,0xb
    298c:	50558593          	addi	a1,a1,1285 # b505 <_end+0x16fd>
    2990:	00b53633          	sltu	a2,a0,a1
    2994:	74c72a23          	sw	a2,1876(a4)

00002998 <inst_488>:
    2998:	0000b537          	lui	a0,0xb
    299c:	50350513          	addi	a0,a0,1283 # b503 <_end+0x16fb>
    29a0:	00100593          	addi	a1,zero,1
    29a4:	00b53633          	sltu	a2,a0,a1
    29a8:	74c72c23          	sw	a2,1880(a4)

000029ac <inst_489>:
    29ac:	0000b537          	lui	a0,0xb
    29b0:	50350513          	addi	a0,a0,1283 # b503 <_end+0x16fb>
    29b4:	000105b7          	lui	a1,0x10
    29b8:	00b53633          	sltu	a2,a0,a1
    29bc:	74c72e23          	sw	a2,1884(a4)

000029c0 <inst_490>:
    29c0:	00010537          	lui	a0,0x10
    29c4:	ffe50513          	addi	a0,a0,-2 # fffe <_end+0x61f6>
    29c8:	00300593          	addi	a1,zero,3
    29cc:	00b53633          	sltu	a2,a0,a1
    29d0:	76c72023          	sw	a2,1888(a4)

000029d4 <inst_491>:
    29d4:	00010537          	lui	a0,0x10
    29d8:	ffe50513          	addi	a0,a0,-2 # fffe <_end+0x61f6>
    29dc:	555555b7          	lui	a1,0x55555
    29e0:	55558593          	addi	a1,a1,1365 # 55555555 <absimm+0x10263026>
    29e4:	00b53633          	sltu	a2,a0,a1
    29e8:	76c72223          	sw	a2,1892(a4)

000029ec <inst_492>:
    29ec:	00010537          	lui	a0,0x10
    29f0:	ffe50513          	addi	a0,a0,-2 # fffe <_end+0x61f6>
    29f4:	aaaab5b7          	lui	a1,0xaaaab
    29f8:	aaa58593          	addi	a1,a1,-1366 # aaaaaaaa <absimm+0x657b857b>
    29fc:	00b53633          	sltu	a2,a0,a1
    2a00:	76c72423          	sw	a2,1896(a4)

00002a04 <inst_493>:
    2a04:	00010537          	lui	a0,0x10
    2a08:	ffe50513          	addi	a0,a0,-2 # fffe <_end+0x61f6>
    2a0c:	00500593          	addi	a1,zero,5
    2a10:	00b53633          	sltu	a2,a0,a1
    2a14:	76c72623          	sw	a2,1900(a4)

00002a18 <inst_494>:
    2a18:	00010537          	lui	a0,0x10
    2a1c:	ffe50513          	addi	a0,a0,-2 # fffe <_end+0x61f6>
    2a20:	333335b7          	lui	a1,0x33333
    2a24:	33358593          	addi	a1,a1,819 # 33333333 <_end+0x3332952b>
    2a28:	00b53633          	sltu	a2,a0,a1
    2a2c:	76c72823          	sw	a2,1904(a4)

00002a30 <inst_495>:
    2a30:	00010537          	lui	a0,0x10
    2a34:	ffe50513          	addi	a0,a0,-2 # fffe <_end+0x61f6>
    2a38:	666665b7          	lui	a1,0x66666
    2a3c:	66658593          	addi	a1,a1,1638 # 66666666 <absimm+0x21374137>
    2a40:	00b53633          	sltu	a2,a0,a1
    2a44:	76c72a23          	sw	a2,1908(a4)

00002a48 <inst_496>:
    2a48:	00010537          	lui	a0,0x10
    2a4c:	ffe50513          	addi	a0,a0,-2 # fffe <_end+0x61f6>
    2a50:	0000b5b7          	lui	a1,0xb
    2a54:	50458593          	addi	a1,a1,1284 # b504 <_end+0x16fc>
    2a58:	00b53633          	sltu	a2,a0,a1
    2a5c:	76c72c23          	sw	a2,1912(a4)

00002a60 <inst_497>:
    2a60:	00010537          	lui	a0,0x10
    2a64:	ffe50513          	addi	a0,a0,-2 # fffe <_end+0x61f6>
    2a68:	00000593          	addi	a1,zero,0
    2a6c:	00b53633          	sltu	a2,a0,a1
    2a70:	76c72e23          	sw	a2,1916(a4)

00002a74 <inst_498>:
    2a74:	00010537          	lui	a0,0x10
    2a78:	ffe50513          	addi	a0,a0,-2 # fffe <_end+0x61f6>
    2a7c:	000105b7          	lui	a1,0x10
    2a80:	fff58593          	addi	a1,a1,-1 # ffff <_end+0x61f7>
    2a84:	00b53633          	sltu	a2,a0,a1
    2a88:	78c72023          	sw	a2,1920(a4)

00002a8c <inst_499>:
    2a8c:	00010537          	lui	a0,0x10
    2a90:	ffe50513          	addi	a0,a0,-2 # fffe <_end+0x61f6>
    2a94:	00200593          	addi	a1,zero,2
    2a98:	00b53633          	sltu	a2,a0,a1
    2a9c:	78c72223          	sw	a2,1924(a4)

00002aa0 <inst_500>:
    2aa0:	00010537          	lui	a0,0x10
    2aa4:	ffe50513          	addi	a0,a0,-2 # fffe <_end+0x61f6>
    2aa8:	555555b7          	lui	a1,0x55555
    2aac:	55458593          	addi	a1,a1,1364 # 55555554 <absimm+0x10263025>
    2ab0:	00b53633          	sltu	a2,a0,a1
    2ab4:	78c72423          	sw	a2,1928(a4)

00002ab8 <inst_501>:
    2ab8:	00010537          	lui	a0,0x10
    2abc:	ffe50513          	addi	a0,a0,-2 # fffe <_end+0x61f6>
    2ac0:	aaaab5b7          	lui	a1,0xaaaab
    2ac4:	aa958593          	addi	a1,a1,-1367 # aaaaaaa9 <absimm+0x657b857a>
    2ac8:	00b53633          	sltu	a2,a0,a1
    2acc:	78c72623          	sw	a2,1932(a4)

00002ad0 <inst_502>:
    2ad0:	00010537          	lui	a0,0x10
    2ad4:	ffe50513          	addi	a0,a0,-2 # fffe <_end+0x61f6>
    2ad8:	00400593          	addi	a1,zero,4
    2adc:	00b53633          	sltu	a2,a0,a1
    2ae0:	78c72823          	sw	a2,1936(a4)

00002ae4 <inst_503>:
    2ae4:	00010537          	lui	a0,0x10
    2ae8:	ffe50513          	addi	a0,a0,-2 # fffe <_end+0x61f6>
    2aec:	333335b7          	lui	a1,0x33333
    2af0:	33258593          	addi	a1,a1,818 # 33333332 <_end+0x3332952a>
    2af4:	00b53633          	sltu	a2,a0,a1
    2af8:	78c72a23          	sw	a2,1940(a4)

00002afc <inst_504>:
    2afc:	00010537          	lui	a0,0x10
    2b00:	ffe50513          	addi	a0,a0,-2 # fffe <_end+0x61f6>
    2b04:	666665b7          	lui	a1,0x66666
    2b08:	66558593          	addi	a1,a1,1637 # 66666665 <absimm+0x21374136>
    2b0c:	00b53633          	sltu	a2,a0,a1
    2b10:	78c72c23          	sw	a2,1944(a4)

00002b14 <inst_505>:
    2b14:	00010537          	lui	a0,0x10
    2b18:	ffe50513          	addi	a0,a0,-2 # fffe <_end+0x61f6>
    2b1c:	0000b5b7          	lui	a1,0xb
    2b20:	50358593          	addi	a1,a1,1283 # b503 <_end+0x16fb>
    2b24:	00b53633          	sltu	a2,a0,a1
    2b28:	78c72e23          	sw	a2,1948(a4)

00002b2c <inst_506>:
    2b2c:	00010537          	lui	a0,0x10
    2b30:	ffe50513          	addi	a0,a0,-2 # fffe <_end+0x61f6>
    2b34:	000105b7          	lui	a1,0x10
    2b38:	ffe58593          	addi	a1,a1,-2 # fffe <_end+0x61f6>
    2b3c:	00b53633          	sltu	a2,a0,a1
    2b40:	7ac72023          	sw	a2,1952(a4)

00002b44 <inst_507>:
    2b44:	00010537          	lui	a0,0x10
    2b48:	ffe50513          	addi	a0,a0,-2 # fffe <_end+0x61f6>
    2b4c:	555555b7          	lui	a1,0x55555
    2b50:	55658593          	addi	a1,a1,1366 # 55555556 <absimm+0x10263027>
    2b54:	00b53633          	sltu	a2,a0,a1
    2b58:	7ac72223          	sw	a2,1956(a4)

00002b5c <inst_508>:
    2b5c:	00010537          	lui	a0,0x10
    2b60:	ffe50513          	addi	a0,a0,-2 # fffe <_end+0x61f6>
    2b64:	aaaab5b7          	lui	a1,0xaaaab
    2b68:	aab58593          	addi	a1,a1,-1365 # aaaaaaab <absimm+0x657b857c>
    2b6c:	00b53633          	sltu	a2,a0,a1
    2b70:	7ac72423          	sw	a2,1960(a4)

00002b74 <inst_509>:
    2b74:	00010537          	lui	a0,0x10
    2b78:	ffe50513          	addi	a0,a0,-2 # fffe <_end+0x61f6>
    2b7c:	00600593          	addi	a1,zero,6
    2b80:	00b53633          	sltu	a2,a0,a1
    2b84:	7ac72623          	sw	a2,1964(a4)

00002b88 <inst_510>:
    2b88:	00010537          	lui	a0,0x10
    2b8c:	ffe50513          	addi	a0,a0,-2 # fffe <_end+0x61f6>
    2b90:	333335b7          	lui	a1,0x33333
    2b94:	33458593          	addi	a1,a1,820 # 33333334 <_end+0x3332952c>
    2b98:	00b53633          	sltu	a2,a0,a1
    2b9c:	7ac72823          	sw	a2,1968(a4)

00002ba0 <inst_511>:
    2ba0:	00010537          	lui	a0,0x10
    2ba4:	ffe50513          	addi	a0,a0,-2 # fffe <_end+0x61f6>
    2ba8:	666665b7          	lui	a1,0x66666
    2bac:	66758593          	addi	a1,a1,1639 # 66666667 <absimm+0x21374138>
    2bb0:	00b53633          	sltu	a2,a0,a1
    2bb4:	7ac72a23          	sw	a2,1972(a4)

00002bb8 <inst_512>:
    2bb8:	00010537          	lui	a0,0x10
    2bbc:	ffe50513          	addi	a0,a0,-2 # fffe <_end+0x61f6>
    2bc0:	0000b5b7          	lui	a1,0xb
    2bc4:	50558593          	addi	a1,a1,1285 # b505 <_end+0x16fd>
    2bc8:	00b53633          	sltu	a2,a0,a1
    2bcc:	7ac72c23          	sw	a2,1976(a4)

00002bd0 <inst_513>:
    2bd0:	00010537          	lui	a0,0x10
    2bd4:	ffe50513          	addi	a0,a0,-2 # fffe <_end+0x61f6>
    2bd8:	00100593          	addi	a1,zero,1
    2bdc:	00b53633          	sltu	a2,a0,a1
    2be0:	7ac72e23          	sw	a2,1980(a4)

00002be4 <inst_514>:
    2be4:	00010537          	lui	a0,0x10
    2be8:	ffe50513          	addi	a0,a0,-2 # fffe <_end+0x61f6>
    2bec:	000105b7          	lui	a1,0x10
    2bf0:	00b53633          	sltu	a2,a0,a1
    2bf4:	7cc72023          	sw	a2,1984(a4)

00002bf8 <inst_515>:
    2bf8:	55555537          	lui	a0,0x55555
    2bfc:	55650513          	addi	a0,a0,1366 # 55555556 <absimm+0x10263027>
    2c00:	00300593          	addi	a1,zero,3
    2c04:	00b53633          	sltu	a2,a0,a1
    2c08:	7cc72223          	sw	a2,1988(a4)

00002c0c <inst_516>:
    2c0c:	55555537          	lui	a0,0x55555
    2c10:	55650513          	addi	a0,a0,1366 # 55555556 <absimm+0x10263027>
    2c14:	555555b7          	lui	a1,0x55555
    2c18:	55558593          	addi	a1,a1,1365 # 55555555 <absimm+0x10263026>
    2c1c:	00b53633          	sltu	a2,a0,a1
    2c20:	7cc72423          	sw	a2,1992(a4)

00002c24 <inst_517>:
    2c24:	55555537          	lui	a0,0x55555
    2c28:	55650513          	addi	a0,a0,1366 # 55555556 <absimm+0x10263027>
    2c2c:	aaaab5b7          	lui	a1,0xaaaab
    2c30:	aaa58593          	addi	a1,a1,-1366 # aaaaaaaa <absimm+0x657b857b>
    2c34:	00b53633          	sltu	a2,a0,a1
    2c38:	7cc72623          	sw	a2,1996(a4)

00002c3c <inst_518>:
    2c3c:	55555537          	lui	a0,0x55555
    2c40:	55650513          	addi	a0,a0,1366 # 55555556 <absimm+0x10263027>
    2c44:	00500593          	addi	a1,zero,5
    2c48:	00b53633          	sltu	a2,a0,a1
    2c4c:	7cc72823          	sw	a2,2000(a4)

00002c50 <inst_519>:
    2c50:	55555537          	lui	a0,0x55555
    2c54:	55650513          	addi	a0,a0,1366 # 55555556 <absimm+0x10263027>
    2c58:	333335b7          	lui	a1,0x33333
    2c5c:	33358593          	addi	a1,a1,819 # 33333333 <_end+0x3332952b>
    2c60:	00b53633          	sltu	a2,a0,a1
    2c64:	7cc72a23          	sw	a2,2004(a4)

00002c68 <inst_520>:
    2c68:	55555537          	lui	a0,0x55555
    2c6c:	55650513          	addi	a0,a0,1366 # 55555556 <absimm+0x10263027>
    2c70:	666665b7          	lui	a1,0x66666
    2c74:	66658593          	addi	a1,a1,1638 # 66666666 <absimm+0x21374137>
    2c78:	00b53633          	sltu	a2,a0,a1
    2c7c:	7cc72c23          	sw	a2,2008(a4)

00002c80 <inst_521>:
    2c80:	55555537          	lui	a0,0x55555
    2c84:	55650513          	addi	a0,a0,1366 # 55555556 <absimm+0x10263027>
    2c88:	0000b5b7          	lui	a1,0xb
    2c8c:	50458593          	addi	a1,a1,1284 # b504 <_end+0x16fc>
    2c90:	00b53633          	sltu	a2,a0,a1
    2c94:	7cc72e23          	sw	a2,2012(a4)

00002c98 <inst_522>:
    2c98:	55555537          	lui	a0,0x55555
    2c9c:	55650513          	addi	a0,a0,1366 # 55555556 <absimm+0x10263027>
    2ca0:	00000593          	addi	a1,zero,0
    2ca4:	00b53633          	sltu	a2,a0,a1
    2ca8:	7ec72023          	sw	a2,2016(a4)

00002cac <inst_523>:
    2cac:	55555537          	lui	a0,0x55555
    2cb0:	55650513          	addi	a0,a0,1366 # 55555556 <absimm+0x10263027>
    2cb4:	000105b7          	lui	a1,0x10
    2cb8:	fff58593          	addi	a1,a1,-1 # ffff <_end+0x61f7>
    2cbc:	00b53633          	sltu	a2,a0,a1
    2cc0:	7ec72223          	sw	a2,2020(a4)

00002cc4 <inst_524>:
    2cc4:	55555537          	lui	a0,0x55555
    2cc8:	55650513          	addi	a0,a0,1366 # 55555556 <absimm+0x10263027>
    2ccc:	00200593          	addi	a1,zero,2
    2cd0:	00b53633          	sltu	a2,a0,a1
    2cd4:	7ec72423          	sw	a2,2024(a4)

00002cd8 <inst_525>:
    2cd8:	55555537          	lui	a0,0x55555
    2cdc:	55650513          	addi	a0,a0,1366 # 55555556 <absimm+0x10263027>
    2ce0:	555555b7          	lui	a1,0x55555
    2ce4:	55458593          	addi	a1,a1,1364 # 55555554 <absimm+0x10263025>
    2ce8:	00b53633          	sltu	a2,a0,a1
    2cec:	7ec72623          	sw	a2,2028(a4)

00002cf0 <inst_526>:
    2cf0:	55555537          	lui	a0,0x55555
    2cf4:	55650513          	addi	a0,a0,1366 # 55555556 <absimm+0x10263027>
    2cf8:	aaaab5b7          	lui	a1,0xaaaab
    2cfc:	aa958593          	addi	a1,a1,-1367 # aaaaaaa9 <absimm+0x657b857a>
    2d00:	00b53633          	sltu	a2,a0,a1
    2d04:	7ec72823          	sw	a2,2032(a4)

00002d08 <inst_527>:
    2d08:	55555537          	lui	a0,0x55555
    2d0c:	55650513          	addi	a0,a0,1366 # 55555556 <absimm+0x10263027>
    2d10:	00400593          	addi	a1,zero,4
    2d14:	00b53633          	sltu	a2,a0,a1
    2d18:	7ec72a23          	sw	a2,2036(a4)

00002d1c <inst_528>:
    2d1c:	55555537          	lui	a0,0x55555
    2d20:	55650513          	addi	a0,a0,1366 # 55555556 <absimm+0x10263027>
    2d24:	333335b7          	lui	a1,0x33333
    2d28:	33258593          	addi	a1,a1,818 # 33333332 <_end+0x3332952a>
    2d2c:	00b53633          	sltu	a2,a0,a1
    2d30:	7ec72c23          	sw	a2,2040(a4)

00002d34 <inst_529>:
    2d34:	55555537          	lui	a0,0x55555
    2d38:	55650513          	addi	a0,a0,1366 # 55555556 <absimm+0x10263027>
    2d3c:	666665b7          	lui	a1,0x66666
    2d40:	66558593          	addi	a1,a1,1637 # 66666665 <absimm+0x21374136>
    2d44:	00b53633          	sltu	a2,a0,a1
    2d48:	7ec72e23          	sw	a2,2044(a4)
    2d4c:	00000013          	addi	zero,zero,0
    2d50:	00000013          	addi	zero,zero,0
    2d54:	00000013          	addi	zero,zero,0
    2d58:	00000013          	addi	zero,zero,0
    2d5c:	00000013          	addi	zero,zero,0
    2d60:	00007717          	auipc	a4,0x7
    2d64:	bfc70713          	addi	a4,a4,-1028 # 995c <signature_x14_1>
    2d68:	00000013          	addi	zero,zero,0
    2d6c:	00000013          	addi	zero,zero,0
    2d70:	00000013          	addi	zero,zero,0
    2d74:	00000013          	addi	zero,zero,0
    2d78:	00000013          	addi	zero,zero,0
    2d7c:	00000013          	addi	zero,zero,0

00002d80 <inst_530>:
    2d80:	55555537          	lui	a0,0x55555
    2d84:	55650513          	addi	a0,a0,1366 # 55555556 <absimm+0x10263027>
    2d88:	0000b5b7          	lui	a1,0xb
    2d8c:	50358593          	addi	a1,a1,1283 # b503 <_end+0x16fb>
    2d90:	00b53633          	sltu	a2,a0,a1
    2d94:	00c72023          	sw	a2,0(a4)

00002d98 <inst_531>:
    2d98:	55555537          	lui	a0,0x55555
    2d9c:	55650513          	addi	a0,a0,1366 # 55555556 <absimm+0x10263027>
    2da0:	000105b7          	lui	a1,0x10
    2da4:	ffe58593          	addi	a1,a1,-2 # fffe <_end+0x61f6>
    2da8:	00b53633          	sltu	a2,a0,a1
    2dac:	00c72223          	sw	a2,4(a4)

00002db0 <inst_532>:
    2db0:	55555537          	lui	a0,0x55555
    2db4:	55650513          	addi	a0,a0,1366 # 55555556 <absimm+0x10263027>
    2db8:	555555b7          	lui	a1,0x55555
    2dbc:	55658593          	addi	a1,a1,1366 # 55555556 <absimm+0x10263027>
    2dc0:	00b53633          	sltu	a2,a0,a1
    2dc4:	00c72423          	sw	a2,8(a4)

00002dc8 <inst_533>:
    2dc8:	55555537          	lui	a0,0x55555
    2dcc:	55650513          	addi	a0,a0,1366 # 55555556 <absimm+0x10263027>
    2dd0:	aaaab5b7          	lui	a1,0xaaaab
    2dd4:	aab58593          	addi	a1,a1,-1365 # aaaaaaab <absimm+0x657b857c>
    2dd8:	00b53633          	sltu	a2,a0,a1
    2ddc:	00c72623          	sw	a2,12(a4)

00002de0 <inst_534>:
    2de0:	55555537          	lui	a0,0x55555
    2de4:	55650513          	addi	a0,a0,1366 # 55555556 <absimm+0x10263027>
    2de8:	00600593          	addi	a1,zero,6
    2dec:	00b53633          	sltu	a2,a0,a1
    2df0:	00c72823          	sw	a2,16(a4)

00002df4 <inst_535>:
    2df4:	55555537          	lui	a0,0x55555
    2df8:	55650513          	addi	a0,a0,1366 # 55555556 <absimm+0x10263027>
    2dfc:	333335b7          	lui	a1,0x33333
    2e00:	33458593          	addi	a1,a1,820 # 33333334 <_end+0x3332952c>
    2e04:	00b53633          	sltu	a2,a0,a1
    2e08:	00c72a23          	sw	a2,20(a4)

00002e0c <inst_536>:
    2e0c:	55555537          	lui	a0,0x55555
    2e10:	55650513          	addi	a0,a0,1366 # 55555556 <absimm+0x10263027>
    2e14:	666665b7          	lui	a1,0x66666
    2e18:	66758593          	addi	a1,a1,1639 # 66666667 <absimm+0x21374138>
    2e1c:	00b53633          	sltu	a2,a0,a1
    2e20:	00c72c23          	sw	a2,24(a4)

00002e24 <inst_537>:
    2e24:	55555537          	lui	a0,0x55555
    2e28:	55650513          	addi	a0,a0,1366 # 55555556 <absimm+0x10263027>
    2e2c:	0000b5b7          	lui	a1,0xb
    2e30:	50558593          	addi	a1,a1,1285 # b505 <_end+0x16fd>
    2e34:	00b53633          	sltu	a2,a0,a1
    2e38:	00c72e23          	sw	a2,28(a4)

00002e3c <inst_538>:
    2e3c:	55555537          	lui	a0,0x55555
    2e40:	55650513          	addi	a0,a0,1366 # 55555556 <absimm+0x10263027>
    2e44:	00100593          	addi	a1,zero,1
    2e48:	00b53633          	sltu	a2,a0,a1
    2e4c:	02c72023          	sw	a2,32(a4)

00002e50 <inst_539>:
    2e50:	55555537          	lui	a0,0x55555
    2e54:	55650513          	addi	a0,a0,1366 # 55555556 <absimm+0x10263027>
    2e58:	000105b7          	lui	a1,0x10
    2e5c:	00b53633          	sltu	a2,a0,a1
    2e60:	02c72223          	sw	a2,36(a4)

00002e64 <inst_540>:
    2e64:	aaaab537          	lui	a0,0xaaaab
    2e68:	aab50513          	addi	a0,a0,-1365 # aaaaaaab <absimm+0x657b857c>
    2e6c:	00300593          	addi	a1,zero,3
    2e70:	00b53633          	sltu	a2,a0,a1
    2e74:	02c72423          	sw	a2,40(a4)

00002e78 <inst_541>:
    2e78:	aaaab537          	lui	a0,0xaaaab
    2e7c:	aab50513          	addi	a0,a0,-1365 # aaaaaaab <absimm+0x657b857c>
    2e80:	555555b7          	lui	a1,0x55555
    2e84:	55558593          	addi	a1,a1,1365 # 55555555 <absimm+0x10263026>
    2e88:	00b53633          	sltu	a2,a0,a1
    2e8c:	02c72623          	sw	a2,44(a4)

00002e90 <inst_542>:
    2e90:	aaaab537          	lui	a0,0xaaaab
    2e94:	aab50513          	addi	a0,a0,-1365 # aaaaaaab <absimm+0x657b857c>
    2e98:	aaaab5b7          	lui	a1,0xaaaab
    2e9c:	aaa58593          	addi	a1,a1,-1366 # aaaaaaaa <absimm+0x657b857b>
    2ea0:	00b53633          	sltu	a2,a0,a1
    2ea4:	02c72823          	sw	a2,48(a4)

00002ea8 <inst_543>:
    2ea8:	aaaab537          	lui	a0,0xaaaab
    2eac:	aab50513          	addi	a0,a0,-1365 # aaaaaaab <absimm+0x657b857c>
    2eb0:	00500593          	addi	a1,zero,5
    2eb4:	00b53633          	sltu	a2,a0,a1
    2eb8:	02c72a23          	sw	a2,52(a4)

00002ebc <inst_544>:
    2ebc:	aaaab537          	lui	a0,0xaaaab
    2ec0:	aab50513          	addi	a0,a0,-1365 # aaaaaaab <absimm+0x657b857c>
    2ec4:	333335b7          	lui	a1,0x33333
    2ec8:	33358593          	addi	a1,a1,819 # 33333333 <_end+0x3332952b>
    2ecc:	00b53633          	sltu	a2,a0,a1
    2ed0:	02c72c23          	sw	a2,56(a4)

00002ed4 <inst_545>:
    2ed4:	aaaab537          	lui	a0,0xaaaab
    2ed8:	aab50513          	addi	a0,a0,-1365 # aaaaaaab <absimm+0x657b857c>
    2edc:	666665b7          	lui	a1,0x66666
    2ee0:	66658593          	addi	a1,a1,1638 # 66666666 <absimm+0x21374137>
    2ee4:	00b53633          	sltu	a2,a0,a1
    2ee8:	02c72e23          	sw	a2,60(a4)

00002eec <inst_546>:
    2eec:	aaaab537          	lui	a0,0xaaaab
    2ef0:	aab50513          	addi	a0,a0,-1365 # aaaaaaab <absimm+0x657b857c>
    2ef4:	0000b5b7          	lui	a1,0xb
    2ef8:	50458593          	addi	a1,a1,1284 # b504 <_end+0x16fc>
    2efc:	00b53633          	sltu	a2,a0,a1
    2f00:	04c72023          	sw	a2,64(a4)

00002f04 <inst_547>:
    2f04:	aaaab537          	lui	a0,0xaaaab
    2f08:	aab50513          	addi	a0,a0,-1365 # aaaaaaab <absimm+0x657b857c>
    2f0c:	00000593          	addi	a1,zero,0
    2f10:	00b53633          	sltu	a2,a0,a1
    2f14:	04c72223          	sw	a2,68(a4)

00002f18 <inst_548>:
    2f18:	aaaab537          	lui	a0,0xaaaab
    2f1c:	aab50513          	addi	a0,a0,-1365 # aaaaaaab <absimm+0x657b857c>
    2f20:	000105b7          	lui	a1,0x10
    2f24:	fff58593          	addi	a1,a1,-1 # ffff <_end+0x61f7>
    2f28:	00b53633          	sltu	a2,a0,a1
    2f2c:	04c72423          	sw	a2,72(a4)

00002f30 <inst_549>:
    2f30:	aaaab537          	lui	a0,0xaaaab
    2f34:	aab50513          	addi	a0,a0,-1365 # aaaaaaab <absimm+0x657b857c>
    2f38:	00200593          	addi	a1,zero,2
    2f3c:	00b53633          	sltu	a2,a0,a1
    2f40:	04c72623          	sw	a2,76(a4)

00002f44 <inst_550>:
    2f44:	aaaab537          	lui	a0,0xaaaab
    2f48:	aab50513          	addi	a0,a0,-1365 # aaaaaaab <absimm+0x657b857c>
    2f4c:	555555b7          	lui	a1,0x55555
    2f50:	55458593          	addi	a1,a1,1364 # 55555554 <absimm+0x10263025>
    2f54:	00b53633          	sltu	a2,a0,a1
    2f58:	04c72823          	sw	a2,80(a4)

00002f5c <inst_551>:
    2f5c:	aaaab537          	lui	a0,0xaaaab
    2f60:	aab50513          	addi	a0,a0,-1365 # aaaaaaab <absimm+0x657b857c>
    2f64:	aaaab5b7          	lui	a1,0xaaaab
    2f68:	aa958593          	addi	a1,a1,-1367 # aaaaaaa9 <absimm+0x657b857a>
    2f6c:	00b53633          	sltu	a2,a0,a1
    2f70:	04c72a23          	sw	a2,84(a4)

00002f74 <inst_552>:
    2f74:	aaaab537          	lui	a0,0xaaaab
    2f78:	aab50513          	addi	a0,a0,-1365 # aaaaaaab <absimm+0x657b857c>
    2f7c:	00400593          	addi	a1,zero,4
    2f80:	00b53633          	sltu	a2,a0,a1
    2f84:	04c72c23          	sw	a2,88(a4)

00002f88 <inst_553>:
    2f88:	aaaab537          	lui	a0,0xaaaab
    2f8c:	aab50513          	addi	a0,a0,-1365 # aaaaaaab <absimm+0x657b857c>
    2f90:	333335b7          	lui	a1,0x33333
    2f94:	33258593          	addi	a1,a1,818 # 33333332 <_end+0x3332952a>
    2f98:	00b53633          	sltu	a2,a0,a1
    2f9c:	04c72e23          	sw	a2,92(a4)

00002fa0 <inst_554>:
    2fa0:	aaaab537          	lui	a0,0xaaaab
    2fa4:	aab50513          	addi	a0,a0,-1365 # aaaaaaab <absimm+0x657b857c>
    2fa8:	666665b7          	lui	a1,0x66666
    2fac:	66558593          	addi	a1,a1,1637 # 66666665 <absimm+0x21374136>
    2fb0:	00b53633          	sltu	a2,a0,a1
    2fb4:	06c72023          	sw	a2,96(a4)

00002fb8 <inst_555>:
    2fb8:	aaaab537          	lui	a0,0xaaaab
    2fbc:	aab50513          	addi	a0,a0,-1365 # aaaaaaab <absimm+0x657b857c>
    2fc0:	0000b5b7          	lui	a1,0xb
    2fc4:	50358593          	addi	a1,a1,1283 # b503 <_end+0x16fb>
    2fc8:	00b53633          	sltu	a2,a0,a1
    2fcc:	06c72223          	sw	a2,100(a4)

00002fd0 <inst_556>:
    2fd0:	aaaab537          	lui	a0,0xaaaab
    2fd4:	aab50513          	addi	a0,a0,-1365 # aaaaaaab <absimm+0x657b857c>
    2fd8:	000105b7          	lui	a1,0x10
    2fdc:	ffe58593          	addi	a1,a1,-2 # fffe <_end+0x61f6>
    2fe0:	00b53633          	sltu	a2,a0,a1
    2fe4:	06c72423          	sw	a2,104(a4)

00002fe8 <inst_557>:
    2fe8:	aaaab537          	lui	a0,0xaaaab
    2fec:	aab50513          	addi	a0,a0,-1365 # aaaaaaab <absimm+0x657b857c>
    2ff0:	555555b7          	lui	a1,0x55555
    2ff4:	55658593          	addi	a1,a1,1366 # 55555556 <absimm+0x10263027>
    2ff8:	00b53633          	sltu	a2,a0,a1
    2ffc:	06c72623          	sw	a2,108(a4)

00003000 <inst_558>:
    3000:	aaaab537          	lui	a0,0xaaaab
    3004:	aab50513          	addi	a0,a0,-1365 # aaaaaaab <absimm+0x657b857c>
    3008:	aaaab5b7          	lui	a1,0xaaaab
    300c:	aab58593          	addi	a1,a1,-1365 # aaaaaaab <absimm+0x657b857c>
    3010:	00b53633          	sltu	a2,a0,a1
    3014:	06c72823          	sw	a2,112(a4)

00003018 <inst_559>:
    3018:	aaaab537          	lui	a0,0xaaaab
    301c:	aab50513          	addi	a0,a0,-1365 # aaaaaaab <absimm+0x657b857c>
    3020:	00600593          	addi	a1,zero,6
    3024:	00b53633          	sltu	a2,a0,a1
    3028:	06c72a23          	sw	a2,116(a4)

0000302c <inst_560>:
    302c:	aaaab537          	lui	a0,0xaaaab
    3030:	aab50513          	addi	a0,a0,-1365 # aaaaaaab <absimm+0x657b857c>
    3034:	333335b7          	lui	a1,0x33333
    3038:	33458593          	addi	a1,a1,820 # 33333334 <_end+0x3332952c>
    303c:	00b53633          	sltu	a2,a0,a1
    3040:	06c72c23          	sw	a2,120(a4)

00003044 <inst_561>:
    3044:	aaaab537          	lui	a0,0xaaaab
    3048:	aab50513          	addi	a0,a0,-1365 # aaaaaaab <absimm+0x657b857c>
    304c:	666665b7          	lui	a1,0x66666
    3050:	66758593          	addi	a1,a1,1639 # 66666667 <absimm+0x21374138>
    3054:	00b53633          	sltu	a2,a0,a1
    3058:	06c72e23          	sw	a2,124(a4)

0000305c <inst_562>:
    305c:	aaaab537          	lui	a0,0xaaaab
    3060:	aab50513          	addi	a0,a0,-1365 # aaaaaaab <absimm+0x657b857c>
    3064:	0000b5b7          	lui	a1,0xb
    3068:	50558593          	addi	a1,a1,1285 # b505 <_end+0x16fd>
    306c:	00b53633          	sltu	a2,a0,a1
    3070:	08c72023          	sw	a2,128(a4)

00003074 <inst_563>:
    3074:	aaaab537          	lui	a0,0xaaaab
    3078:	aab50513          	addi	a0,a0,-1365 # aaaaaaab <absimm+0x657b857c>
    307c:	00100593          	addi	a1,zero,1
    3080:	00b53633          	sltu	a2,a0,a1
    3084:	08c72223          	sw	a2,132(a4)

00003088 <inst_564>:
    3088:	aaaab537          	lui	a0,0xaaaab
    308c:	aab50513          	addi	a0,a0,-1365 # aaaaaaab <absimm+0x657b857c>
    3090:	000105b7          	lui	a1,0x10
    3094:	00b53633          	sltu	a2,a0,a1
    3098:	08c72423          	sw	a2,136(a4)

0000309c <inst_565>:
    309c:	00600513          	addi	a0,zero,6
    30a0:	00300593          	addi	a1,zero,3
    30a4:	00b53633          	sltu	a2,a0,a1
    30a8:	08c72623          	sw	a2,140(a4)

000030ac <inst_566>:
    30ac:	00600513          	addi	a0,zero,6
    30b0:	555555b7          	lui	a1,0x55555
    30b4:	55558593          	addi	a1,a1,1365 # 55555555 <absimm+0x10263026>
    30b8:	00b53633          	sltu	a2,a0,a1
    30bc:	08c72823          	sw	a2,144(a4)

000030c0 <inst_567>:
    30c0:	00600513          	addi	a0,zero,6
    30c4:	aaaab5b7          	lui	a1,0xaaaab
    30c8:	aaa58593          	addi	a1,a1,-1366 # aaaaaaaa <absimm+0x657b857b>
    30cc:	00b53633          	sltu	a2,a0,a1
    30d0:	08c72a23          	sw	a2,148(a4)

000030d4 <inst_568>:
    30d4:	00600513          	addi	a0,zero,6
    30d8:	00500593          	addi	a1,zero,5
    30dc:	00b53633          	sltu	a2,a0,a1
    30e0:	08c72c23          	sw	a2,152(a4)

000030e4 <inst_569>:
    30e4:	00600513          	addi	a0,zero,6
    30e8:	333335b7          	lui	a1,0x33333
    30ec:	33358593          	addi	a1,a1,819 # 33333333 <_end+0x3332952b>
    30f0:	00b53633          	sltu	a2,a0,a1
    30f4:	08c72e23          	sw	a2,156(a4)

000030f8 <inst_570>:
    30f8:	00600513          	addi	a0,zero,6
    30fc:	666665b7          	lui	a1,0x66666
    3100:	66658593          	addi	a1,a1,1638 # 66666666 <absimm+0x21374137>
    3104:	00b53633          	sltu	a2,a0,a1
    3108:	0ac72023          	sw	a2,160(a4)

0000310c <inst_571>:
    310c:	00600513          	addi	a0,zero,6
    3110:	0000b5b7          	lui	a1,0xb
    3114:	50458593          	addi	a1,a1,1284 # b504 <_end+0x16fc>
    3118:	00b53633          	sltu	a2,a0,a1
    311c:	0ac72223          	sw	a2,164(a4)

00003120 <inst_572>:
    3120:	00600513          	addi	a0,zero,6
    3124:	00000593          	addi	a1,zero,0
    3128:	00b53633          	sltu	a2,a0,a1
    312c:	0ac72423          	sw	a2,168(a4)

00003130 <inst_573>:
    3130:	00600513          	addi	a0,zero,6
    3134:	000105b7          	lui	a1,0x10
    3138:	fff58593          	addi	a1,a1,-1 # ffff <_end+0x61f7>
    313c:	00b53633          	sltu	a2,a0,a1
    3140:	0ac72623          	sw	a2,172(a4)

00003144 <inst_574>:
    3144:	00600513          	addi	a0,zero,6
    3148:	00200593          	addi	a1,zero,2
    314c:	00b53633          	sltu	a2,a0,a1
    3150:	0ac72823          	sw	a2,176(a4)

00003154 <inst_575>:
    3154:	00600513          	addi	a0,zero,6
    3158:	555555b7          	lui	a1,0x55555
    315c:	55458593          	addi	a1,a1,1364 # 55555554 <absimm+0x10263025>
    3160:	00b53633          	sltu	a2,a0,a1
    3164:	0ac72a23          	sw	a2,180(a4)

00003168 <inst_576>:
    3168:	00600513          	addi	a0,zero,6
    316c:	aaaab5b7          	lui	a1,0xaaaab
    3170:	aa958593          	addi	a1,a1,-1367 # aaaaaaa9 <absimm+0x657b857a>
    3174:	00b53633          	sltu	a2,a0,a1
    3178:	0ac72c23          	sw	a2,184(a4)

0000317c <inst_577>:
    317c:	00600513          	addi	a0,zero,6
    3180:	00400593          	addi	a1,zero,4
    3184:	00b53633          	sltu	a2,a0,a1
    3188:	0ac72e23          	sw	a2,188(a4)

0000318c <inst_578>:
    318c:	00600513          	addi	a0,zero,6
    3190:	333335b7          	lui	a1,0x33333
    3194:	33258593          	addi	a1,a1,818 # 33333332 <_end+0x3332952a>
    3198:	00b53633          	sltu	a2,a0,a1
    319c:	0cc72023          	sw	a2,192(a4)

000031a0 <inst_579>:
    31a0:	00600513          	addi	a0,zero,6
    31a4:	666665b7          	lui	a1,0x66666
    31a8:	66558593          	addi	a1,a1,1637 # 66666665 <absimm+0x21374136>
    31ac:	00b53633          	sltu	a2,a0,a1
    31b0:	0cc72223          	sw	a2,196(a4)

000031b4 <inst_580>:
    31b4:	00600513          	addi	a0,zero,6
    31b8:	0000b5b7          	lui	a1,0xb
    31bc:	50358593          	addi	a1,a1,1283 # b503 <_end+0x16fb>
    31c0:	00b53633          	sltu	a2,a0,a1
    31c4:	0cc72423          	sw	a2,200(a4)

000031c8 <inst_581>:
    31c8:	00600513          	addi	a0,zero,6
    31cc:	000105b7          	lui	a1,0x10
    31d0:	ffe58593          	addi	a1,a1,-2 # fffe <_end+0x61f6>
    31d4:	00b53633          	sltu	a2,a0,a1
    31d8:	0cc72623          	sw	a2,204(a4)

000031dc <inst_582>:
    31dc:	00600513          	addi	a0,zero,6
    31e0:	555555b7          	lui	a1,0x55555
    31e4:	55658593          	addi	a1,a1,1366 # 55555556 <absimm+0x10263027>
    31e8:	00b53633          	sltu	a2,a0,a1
    31ec:	0cc72823          	sw	a2,208(a4)

000031f0 <inst_583>:
    31f0:	00600513          	addi	a0,zero,6
    31f4:	aaaab5b7          	lui	a1,0xaaaab
    31f8:	aab58593          	addi	a1,a1,-1365 # aaaaaaab <absimm+0x657b857c>
    31fc:	00b53633          	sltu	a2,a0,a1
    3200:	0cc72a23          	sw	a2,212(a4)

00003204 <inst_584>:
    3204:	00600513          	addi	a0,zero,6
    3208:	00600593          	addi	a1,zero,6
    320c:	00b53633          	sltu	a2,a0,a1
    3210:	0cc72c23          	sw	a2,216(a4)

00003214 <inst_585>:
    3214:	00600513          	addi	a0,zero,6
    3218:	333335b7          	lui	a1,0x33333
    321c:	33458593          	addi	a1,a1,820 # 33333334 <_end+0x3332952c>
    3220:	00b53633          	sltu	a2,a0,a1
    3224:	0cc72e23          	sw	a2,220(a4)

00003228 <inst_586>:
    3228:	00600513          	addi	a0,zero,6
    322c:	666665b7          	lui	a1,0x66666
    3230:	66758593          	addi	a1,a1,1639 # 66666667 <absimm+0x21374138>
    3234:	00b53633          	sltu	a2,a0,a1
    3238:	0ec72023          	sw	a2,224(a4)

0000323c <inst_587>:
    323c:	00600513          	addi	a0,zero,6
    3240:	0000b5b7          	lui	a1,0xb
    3244:	50558593          	addi	a1,a1,1285 # b505 <_end+0x16fd>
    3248:	00b53633          	sltu	a2,a0,a1
    324c:	0ec72223          	sw	a2,228(a4)

00003250 <inst_588>:
    3250:	00600513          	addi	a0,zero,6
    3254:	00100593          	addi	a1,zero,1
    3258:	00b53633          	sltu	a2,a0,a1
    325c:	0ec72423          	sw	a2,232(a4)

00003260 <inst_589>:
    3260:	00600513          	addi	a0,zero,6
    3264:	000105b7          	lui	a1,0x10
    3268:	00b53633          	sltu	a2,a0,a1
    326c:	0ec72623          	sw	a2,236(a4)

00003270 <inst_590>:
    3270:	33333537          	lui	a0,0x33333
    3274:	33450513          	addi	a0,a0,820 # 33333334 <_end+0x3332952c>
    3278:	00300593          	addi	a1,zero,3
    327c:	00b53633          	sltu	a2,a0,a1
    3280:	0ec72823          	sw	a2,240(a4)

00003284 <inst_591>:
    3284:	66666537          	lui	a0,0x66666
    3288:	66550513          	addi	a0,a0,1637 # 66666665 <absimm+0x21374136>
    328c:	aaaab5b7          	lui	a1,0xaaaab
    3290:	aab58593          	addi	a1,a1,-1365 # aaaaaaab <absimm+0x657b857c>
    3294:	00b53633          	sltu	a2,a0,a1
    3298:	0ec72a23          	sw	a2,244(a4)

0000329c <inst_592>:
    329c:	33333537          	lui	a0,0x33333
    32a0:	33450513          	addi	a0,a0,820 # 33333334 <_end+0x3332952c>
    32a4:	555555b7          	lui	a1,0x55555
    32a8:	55558593          	addi	a1,a1,1365 # 55555555 <absimm+0x10263026>
    32ac:	00b53633          	sltu	a2,a0,a1
    32b0:	0ec72c23          	sw	a2,248(a4)

000032b4 <inst_593>:
    32b4:	33333537          	lui	a0,0x33333
    32b8:	33450513          	addi	a0,a0,820 # 33333334 <_end+0x3332952c>
    32bc:	aaaab5b7          	lui	a1,0xaaaab
    32c0:	aaa58593          	addi	a1,a1,-1366 # aaaaaaaa <absimm+0x657b857b>
    32c4:	00b53633          	sltu	a2,a0,a1
    32c8:	0ec72e23          	sw	a2,252(a4)

000032cc <inst_594>:
    32cc:	33333537          	lui	a0,0x33333
    32d0:	33450513          	addi	a0,a0,820 # 33333334 <_end+0x3332952c>
    32d4:	00500593          	addi	a1,zero,5
    32d8:	00b53633          	sltu	a2,a0,a1
    32dc:	10c72023          	sw	a2,256(a4)

000032e0 <inst_595>:
    32e0:	33333537          	lui	a0,0x33333
    32e4:	33450513          	addi	a0,a0,820 # 33333334 <_end+0x3332952c>
    32e8:	333335b7          	lui	a1,0x33333
    32ec:	33358593          	addi	a1,a1,819 # 33333333 <_end+0x3332952b>
    32f0:	00b53633          	sltu	a2,a0,a1
    32f4:	10c72223          	sw	a2,260(a4)

000032f8 <inst_596>:
    32f8:	33333537          	lui	a0,0x33333
    32fc:	33450513          	addi	a0,a0,820 # 33333334 <_end+0x3332952c>
    3300:	666665b7          	lui	a1,0x66666
    3304:	66658593          	addi	a1,a1,1638 # 66666666 <absimm+0x21374137>
    3308:	00b53633          	sltu	a2,a0,a1
    330c:	10c72423          	sw	a2,264(a4)

00003310 <inst_597>:
    3310:	33333537          	lui	a0,0x33333
    3314:	33450513          	addi	a0,a0,820 # 33333334 <_end+0x3332952c>
    3318:	0000b5b7          	lui	a1,0xb
    331c:	50458593          	addi	a1,a1,1284 # b504 <_end+0x16fc>
    3320:	00b53633          	sltu	a2,a0,a1
    3324:	10c72623          	sw	a2,268(a4)

00003328 <inst_598>:
    3328:	33333537          	lui	a0,0x33333
    332c:	33450513          	addi	a0,a0,820 # 33333334 <_end+0x3332952c>
    3330:	00000593          	addi	a1,zero,0
    3334:	00b53633          	sltu	a2,a0,a1
    3338:	10c72823          	sw	a2,272(a4)

0000333c <inst_599>:
    333c:	33333537          	lui	a0,0x33333
    3340:	33450513          	addi	a0,a0,820 # 33333334 <_end+0x3332952c>
    3344:	000105b7          	lui	a1,0x10
    3348:	fff58593          	addi	a1,a1,-1 # ffff <_end+0x61f7>
    334c:	00b53633          	sltu	a2,a0,a1
    3350:	10c72a23          	sw	a2,276(a4)

00003354 <inst_600>:
    3354:	33333537          	lui	a0,0x33333
    3358:	33450513          	addi	a0,a0,820 # 33333334 <_end+0x3332952c>
    335c:	00200593          	addi	a1,zero,2
    3360:	00b53633          	sltu	a2,a0,a1
    3364:	10c72c23          	sw	a2,280(a4)

00003368 <inst_601>:
    3368:	33333537          	lui	a0,0x33333
    336c:	33450513          	addi	a0,a0,820 # 33333334 <_end+0x3332952c>
    3370:	555555b7          	lui	a1,0x55555
    3374:	55458593          	addi	a1,a1,1364 # 55555554 <absimm+0x10263025>
    3378:	00b53633          	sltu	a2,a0,a1
    337c:	10c72e23          	sw	a2,284(a4)

00003380 <inst_602>:
    3380:	33333537          	lui	a0,0x33333
    3384:	33450513          	addi	a0,a0,820 # 33333334 <_end+0x3332952c>
    3388:	aaaab5b7          	lui	a1,0xaaaab
    338c:	aa958593          	addi	a1,a1,-1367 # aaaaaaa9 <absimm+0x657b857a>
    3390:	00b53633          	sltu	a2,a0,a1
    3394:	12c72023          	sw	a2,288(a4)

00003398 <inst_603>:
    3398:	33333537          	lui	a0,0x33333
    339c:	33450513          	addi	a0,a0,820 # 33333334 <_end+0x3332952c>
    33a0:	00400593          	addi	a1,zero,4
    33a4:	00b53633          	sltu	a2,a0,a1
    33a8:	12c72223          	sw	a2,292(a4)

000033ac <inst_604>:
    33ac:	33333537          	lui	a0,0x33333
    33b0:	33450513          	addi	a0,a0,820 # 33333334 <_end+0x3332952c>
    33b4:	333335b7          	lui	a1,0x33333
    33b8:	33258593          	addi	a1,a1,818 # 33333332 <_end+0x3332952a>
    33bc:	00b53633          	sltu	a2,a0,a1
    33c0:	12c72423          	sw	a2,296(a4)

000033c4 <inst_605>:
    33c4:	33333537          	lui	a0,0x33333
    33c8:	33450513          	addi	a0,a0,820 # 33333334 <_end+0x3332952c>
    33cc:	666665b7          	lui	a1,0x66666
    33d0:	66558593          	addi	a1,a1,1637 # 66666665 <absimm+0x21374136>
    33d4:	00b53633          	sltu	a2,a0,a1
    33d8:	12c72623          	sw	a2,300(a4)

000033dc <inst_606>:
    33dc:	33333537          	lui	a0,0x33333
    33e0:	33450513          	addi	a0,a0,820 # 33333334 <_end+0x3332952c>
    33e4:	0000b5b7          	lui	a1,0xb
    33e8:	50358593          	addi	a1,a1,1283 # b503 <_end+0x16fb>
    33ec:	00b53633          	sltu	a2,a0,a1
    33f0:	12c72823          	sw	a2,304(a4)

000033f4 <inst_607>:
    33f4:	33333537          	lui	a0,0x33333
    33f8:	33450513          	addi	a0,a0,820 # 33333334 <_end+0x3332952c>
    33fc:	000105b7          	lui	a1,0x10
    3400:	ffe58593          	addi	a1,a1,-2 # fffe <_end+0x61f6>
    3404:	00b53633          	sltu	a2,a0,a1
    3408:	12c72a23          	sw	a2,308(a4)

0000340c <inst_608>:
    340c:	33333537          	lui	a0,0x33333
    3410:	33450513          	addi	a0,a0,820 # 33333334 <_end+0x3332952c>
    3414:	555555b7          	lui	a1,0x55555
    3418:	55658593          	addi	a1,a1,1366 # 55555556 <absimm+0x10263027>
    341c:	00b53633          	sltu	a2,a0,a1
    3420:	12c72c23          	sw	a2,312(a4)

00003424 <inst_609>:
    3424:	33333537          	lui	a0,0x33333
    3428:	33450513          	addi	a0,a0,820 # 33333334 <_end+0x3332952c>
    342c:	aaaab5b7          	lui	a1,0xaaaab
    3430:	aab58593          	addi	a1,a1,-1365 # aaaaaaab <absimm+0x657b857c>
    3434:	00b53633          	sltu	a2,a0,a1
    3438:	12c72e23          	sw	a2,316(a4)

0000343c <inst_610>:
    343c:	33333537          	lui	a0,0x33333
    3440:	33450513          	addi	a0,a0,820 # 33333334 <_end+0x3332952c>
    3444:	00600593          	addi	a1,zero,6
    3448:	00b53633          	sltu	a2,a0,a1
    344c:	14c72023          	sw	a2,320(a4)

00003450 <inst_611>:
    3450:	33333537          	lui	a0,0x33333
    3454:	33450513          	addi	a0,a0,820 # 33333334 <_end+0x3332952c>
    3458:	333335b7          	lui	a1,0x33333
    345c:	33458593          	addi	a1,a1,820 # 33333334 <_end+0x3332952c>
    3460:	00b53633          	sltu	a2,a0,a1
    3464:	14c72223          	sw	a2,324(a4)

00003468 <inst_612>:
    3468:	33333537          	lui	a0,0x33333
    346c:	33450513          	addi	a0,a0,820 # 33333334 <_end+0x3332952c>
    3470:	666665b7          	lui	a1,0x66666
    3474:	66758593          	addi	a1,a1,1639 # 66666667 <absimm+0x21374138>
    3478:	00b53633          	sltu	a2,a0,a1
    347c:	14c72423          	sw	a2,328(a4)

00003480 <inst_613>:
    3480:	33333537          	lui	a0,0x33333
    3484:	33450513          	addi	a0,a0,820 # 33333334 <_end+0x3332952c>
    3488:	0000b5b7          	lui	a1,0xb
    348c:	50558593          	addi	a1,a1,1285 # b505 <_end+0x16fd>
    3490:	00b53633          	sltu	a2,a0,a1
    3494:	14c72623          	sw	a2,332(a4)

00003498 <inst_614>:
    3498:	33333537          	lui	a0,0x33333
    349c:	33450513          	addi	a0,a0,820 # 33333334 <_end+0x3332952c>
    34a0:	00100593          	addi	a1,zero,1
    34a4:	00b53633          	sltu	a2,a0,a1
    34a8:	14c72823          	sw	a2,336(a4)

000034ac <inst_615>:
    34ac:	33333537          	lui	a0,0x33333
    34b0:	33450513          	addi	a0,a0,820 # 33333334 <_end+0x3332952c>
    34b4:	000105b7          	lui	a1,0x10
    34b8:	00b53633          	sltu	a2,a0,a1
    34bc:	14c72a23          	sw	a2,340(a4)

000034c0 <inst_616>:
    34c0:	66666537          	lui	a0,0x66666
    34c4:	66750513          	addi	a0,a0,1639 # 66666667 <absimm+0x21374138>
    34c8:	00300593          	addi	a1,zero,3
    34cc:	00b53633          	sltu	a2,a0,a1
    34d0:	14c72c23          	sw	a2,344(a4)

000034d4 <inst_617>:
    34d4:	66666537          	lui	a0,0x66666
    34d8:	66750513          	addi	a0,a0,1639 # 66666667 <absimm+0x21374138>
    34dc:	555555b7          	lui	a1,0x55555
    34e0:	55558593          	addi	a1,a1,1365 # 55555555 <absimm+0x10263026>
    34e4:	00b53633          	sltu	a2,a0,a1
    34e8:	14c72e23          	sw	a2,348(a4)

000034ec <inst_618>:
    34ec:	66666537          	lui	a0,0x66666
    34f0:	66750513          	addi	a0,a0,1639 # 66666667 <absimm+0x21374138>
    34f4:	aaaab5b7          	lui	a1,0xaaaab
    34f8:	aaa58593          	addi	a1,a1,-1366 # aaaaaaaa <absimm+0x657b857b>
    34fc:	00b53633          	sltu	a2,a0,a1
    3500:	16c72023          	sw	a2,352(a4)

00003504 <inst_619>:
    3504:	66666537          	lui	a0,0x66666
    3508:	66750513          	addi	a0,a0,1639 # 66666667 <absimm+0x21374138>
    350c:	00500593          	addi	a1,zero,5
    3510:	00b53633          	sltu	a2,a0,a1
    3514:	16c72223          	sw	a2,356(a4)

00003518 <inst_620>:
    3518:	66666537          	lui	a0,0x66666
    351c:	66750513          	addi	a0,a0,1639 # 66666667 <absimm+0x21374138>
    3520:	333335b7          	lui	a1,0x33333
    3524:	33358593          	addi	a1,a1,819 # 33333333 <_end+0x3332952b>
    3528:	00b53633          	sltu	a2,a0,a1
    352c:	16c72423          	sw	a2,360(a4)

00003530 <inst_621>:
    3530:	66666537          	lui	a0,0x66666
    3534:	66750513          	addi	a0,a0,1639 # 66666667 <absimm+0x21374138>
    3538:	666665b7          	lui	a1,0x66666
    353c:	66658593          	addi	a1,a1,1638 # 66666666 <absimm+0x21374137>
    3540:	00b53633          	sltu	a2,a0,a1
    3544:	16c72623          	sw	a2,364(a4)

00003548 <inst_622>:
    3548:	66666537          	lui	a0,0x66666
    354c:	66750513          	addi	a0,a0,1639 # 66666667 <absimm+0x21374138>
    3550:	0000b5b7          	lui	a1,0xb
    3554:	50458593          	addi	a1,a1,1284 # b504 <_end+0x16fc>
    3558:	00b53633          	sltu	a2,a0,a1
    355c:	16c72823          	sw	a2,368(a4)

00003560 <inst_623>:
    3560:	66666537          	lui	a0,0x66666
    3564:	66750513          	addi	a0,a0,1639 # 66666667 <absimm+0x21374138>
    3568:	00000593          	addi	a1,zero,0
    356c:	00b53633          	sltu	a2,a0,a1
    3570:	16c72a23          	sw	a2,372(a4)

00003574 <inst_624>:
    3574:	66666537          	lui	a0,0x66666
    3578:	66750513          	addi	a0,a0,1639 # 66666667 <absimm+0x21374138>
    357c:	000105b7          	lui	a1,0x10
    3580:	fff58593          	addi	a1,a1,-1 # ffff <_end+0x61f7>
    3584:	00b53633          	sltu	a2,a0,a1
    3588:	16c72c23          	sw	a2,376(a4)

0000358c <inst_625>:
    358c:	66666537          	lui	a0,0x66666
    3590:	66750513          	addi	a0,a0,1639 # 66666667 <absimm+0x21374138>
    3594:	00200593          	addi	a1,zero,2
    3598:	00b53633          	sltu	a2,a0,a1
    359c:	16c72e23          	sw	a2,380(a4)

000035a0 <inst_626>:
    35a0:	66666537          	lui	a0,0x66666
    35a4:	66750513          	addi	a0,a0,1639 # 66666667 <absimm+0x21374138>
    35a8:	555555b7          	lui	a1,0x55555
    35ac:	55458593          	addi	a1,a1,1364 # 55555554 <absimm+0x10263025>
    35b0:	00b53633          	sltu	a2,a0,a1
    35b4:	18c72023          	sw	a2,384(a4)

000035b8 <inst_627>:
    35b8:	66666537          	lui	a0,0x66666
    35bc:	66750513          	addi	a0,a0,1639 # 66666667 <absimm+0x21374138>
    35c0:	aaaab5b7          	lui	a1,0xaaaab
    35c4:	aa958593          	addi	a1,a1,-1367 # aaaaaaa9 <absimm+0x657b857a>
    35c8:	00b53633          	sltu	a2,a0,a1
    35cc:	18c72223          	sw	a2,388(a4)

000035d0 <inst_628>:
    35d0:	66666537          	lui	a0,0x66666
    35d4:	66750513          	addi	a0,a0,1639 # 66666667 <absimm+0x21374138>
    35d8:	00400593          	addi	a1,zero,4
    35dc:	00b53633          	sltu	a2,a0,a1
    35e0:	18c72423          	sw	a2,392(a4)

000035e4 <inst_629>:
    35e4:	66666537          	lui	a0,0x66666
    35e8:	66750513          	addi	a0,a0,1639 # 66666667 <absimm+0x21374138>
    35ec:	333335b7          	lui	a1,0x33333
    35f0:	33258593          	addi	a1,a1,818 # 33333332 <_end+0x3332952a>
    35f4:	00b53633          	sltu	a2,a0,a1
    35f8:	18c72623          	sw	a2,396(a4)

000035fc <inst_630>:
    35fc:	66666537          	lui	a0,0x66666
    3600:	66750513          	addi	a0,a0,1639 # 66666667 <absimm+0x21374138>
    3604:	666665b7          	lui	a1,0x66666
    3608:	66558593          	addi	a1,a1,1637 # 66666665 <absimm+0x21374136>
    360c:	00b53633          	sltu	a2,a0,a1
    3610:	18c72823          	sw	a2,400(a4)

00003614 <inst_631>:
    3614:	66666537          	lui	a0,0x66666
    3618:	66750513          	addi	a0,a0,1639 # 66666667 <absimm+0x21374138>
    361c:	0000b5b7          	lui	a1,0xb
    3620:	50358593          	addi	a1,a1,1283 # b503 <_end+0x16fb>
    3624:	00b53633          	sltu	a2,a0,a1
    3628:	18c72a23          	sw	a2,404(a4)

0000362c <inst_632>:
    362c:	66666537          	lui	a0,0x66666
    3630:	66750513          	addi	a0,a0,1639 # 66666667 <absimm+0x21374138>
    3634:	000105b7          	lui	a1,0x10
    3638:	ffe58593          	addi	a1,a1,-2 # fffe <_end+0x61f6>
    363c:	00b53633          	sltu	a2,a0,a1
    3640:	18c72c23          	sw	a2,408(a4)

00003644 <inst_633>:
    3644:	66666537          	lui	a0,0x66666
    3648:	66750513          	addi	a0,a0,1639 # 66666667 <absimm+0x21374138>
    364c:	555555b7          	lui	a1,0x55555
    3650:	55658593          	addi	a1,a1,1366 # 55555556 <absimm+0x10263027>
    3654:	00b53633          	sltu	a2,a0,a1
    3658:	18c72e23          	sw	a2,412(a4)

0000365c <inst_634>:
    365c:	66666537          	lui	a0,0x66666
    3660:	66750513          	addi	a0,a0,1639 # 66666667 <absimm+0x21374138>
    3664:	aaaab5b7          	lui	a1,0xaaaab
    3668:	aab58593          	addi	a1,a1,-1365 # aaaaaaab <absimm+0x657b857c>
    366c:	00b53633          	sltu	a2,a0,a1
    3670:	1ac72023          	sw	a2,416(a4)

00003674 <inst_635>:
    3674:	66666537          	lui	a0,0x66666
    3678:	66750513          	addi	a0,a0,1639 # 66666667 <absimm+0x21374138>
    367c:	00600593          	addi	a1,zero,6
    3680:	00b53633          	sltu	a2,a0,a1
    3684:	1ac72223          	sw	a2,420(a4)

00003688 <inst_636>:
    3688:	66666537          	lui	a0,0x66666
    368c:	66750513          	addi	a0,a0,1639 # 66666667 <absimm+0x21374138>
    3690:	333335b7          	lui	a1,0x33333
    3694:	33458593          	addi	a1,a1,820 # 33333334 <_end+0x3332952c>
    3698:	00b53633          	sltu	a2,a0,a1
    369c:	1ac72423          	sw	a2,424(a4)

000036a0 <inst_637>:
    36a0:	66666537          	lui	a0,0x66666
    36a4:	66750513          	addi	a0,a0,1639 # 66666667 <absimm+0x21374138>
    36a8:	666665b7          	lui	a1,0x66666
    36ac:	66758593          	addi	a1,a1,1639 # 66666667 <absimm+0x21374138>
    36b0:	00b53633          	sltu	a2,a0,a1
    36b4:	1ac72623          	sw	a2,428(a4)

000036b8 <inst_638>:
    36b8:	66666537          	lui	a0,0x66666
    36bc:	66750513          	addi	a0,a0,1639 # 66666667 <absimm+0x21374138>
    36c0:	0000b5b7          	lui	a1,0xb
    36c4:	50558593          	addi	a1,a1,1285 # b505 <_end+0x16fd>
    36c8:	00b53633          	sltu	a2,a0,a1
    36cc:	1ac72823          	sw	a2,432(a4)

000036d0 <inst_639>:
    36d0:	66666537          	lui	a0,0x66666
    36d4:	66750513          	addi	a0,a0,1639 # 66666667 <absimm+0x21374138>
    36d8:	00100593          	addi	a1,zero,1
    36dc:	00b53633          	sltu	a2,a0,a1
    36e0:	1ac72a23          	sw	a2,436(a4)

000036e4 <inst_640>:
    36e4:	66666537          	lui	a0,0x66666
    36e8:	66750513          	addi	a0,a0,1639 # 66666667 <absimm+0x21374138>
    36ec:	000105b7          	lui	a1,0x10
    36f0:	00b53633          	sltu	a2,a0,a1
    36f4:	1ac72c23          	sw	a2,440(a4)

000036f8 <inst_641>:
    36f8:	0000b537          	lui	a0,0xb
    36fc:	50550513          	addi	a0,a0,1285 # b505 <_end+0x16fd>
    3700:	00300593          	addi	a1,zero,3
    3704:	00b53633          	sltu	a2,a0,a1
    3708:	1ac72e23          	sw	a2,444(a4)

0000370c <inst_642>:
    370c:	0000b537          	lui	a0,0xb
    3710:	50550513          	addi	a0,a0,1285 # b505 <_end+0x16fd>
    3714:	555555b7          	lui	a1,0x55555
    3718:	55558593          	addi	a1,a1,1365 # 55555555 <absimm+0x10263026>
    371c:	00b53633          	sltu	a2,a0,a1
    3720:	1cc72023          	sw	a2,448(a4)

00003724 <inst_643>:
    3724:	0000b537          	lui	a0,0xb
    3728:	50550513          	addi	a0,a0,1285 # b505 <_end+0x16fd>
    372c:	aaaab5b7          	lui	a1,0xaaaab
    3730:	aaa58593          	addi	a1,a1,-1366 # aaaaaaaa <absimm+0x657b857b>
    3734:	00b53633          	sltu	a2,a0,a1
    3738:	1cc72223          	sw	a2,452(a4)

0000373c <inst_644>:
    373c:	0000b537          	lui	a0,0xb
    3740:	50550513          	addi	a0,a0,1285 # b505 <_end+0x16fd>
    3744:	00500593          	addi	a1,zero,5
    3748:	00b53633          	sltu	a2,a0,a1
    374c:	1cc72423          	sw	a2,456(a4)

00003750 <inst_645>:
    3750:	0000b537          	lui	a0,0xb
    3754:	50550513          	addi	a0,a0,1285 # b505 <_end+0x16fd>
    3758:	333335b7          	lui	a1,0x33333
    375c:	33358593          	addi	a1,a1,819 # 33333333 <_end+0x3332952b>
    3760:	00b53633          	sltu	a2,a0,a1
    3764:	1cc72623          	sw	a2,460(a4)

00003768 <inst_646>:
    3768:	0000b537          	lui	a0,0xb
    376c:	50550513          	addi	a0,a0,1285 # b505 <_end+0x16fd>
    3770:	666665b7          	lui	a1,0x66666
    3774:	66658593          	addi	a1,a1,1638 # 66666666 <absimm+0x21374137>
    3778:	00b53633          	sltu	a2,a0,a1
    377c:	1cc72823          	sw	a2,464(a4)

00003780 <inst_647>:
    3780:	0000b537          	lui	a0,0xb
    3784:	50550513          	addi	a0,a0,1285 # b505 <_end+0x16fd>
    3788:	0000b5b7          	lui	a1,0xb
    378c:	50458593          	addi	a1,a1,1284 # b504 <_end+0x16fc>
    3790:	00b53633          	sltu	a2,a0,a1
    3794:	1cc72a23          	sw	a2,468(a4)

00003798 <inst_648>:
    3798:	0000b537          	lui	a0,0xb
    379c:	50550513          	addi	a0,a0,1285 # b505 <_end+0x16fd>
    37a0:	00000593          	addi	a1,zero,0
    37a4:	00b53633          	sltu	a2,a0,a1
    37a8:	1cc72c23          	sw	a2,472(a4)

000037ac <inst_649>:
    37ac:	0000b537          	lui	a0,0xb
    37b0:	50550513          	addi	a0,a0,1285 # b505 <_end+0x16fd>
    37b4:	000105b7          	lui	a1,0x10
    37b8:	fff58593          	addi	a1,a1,-1 # ffff <_end+0x61f7>
    37bc:	00b53633          	sltu	a2,a0,a1
    37c0:	1cc72e23          	sw	a2,476(a4)

000037c4 <inst_650>:
    37c4:	0000b537          	lui	a0,0xb
    37c8:	50550513          	addi	a0,a0,1285 # b505 <_end+0x16fd>
    37cc:	00200593          	addi	a1,zero,2
    37d0:	00b53633          	sltu	a2,a0,a1
    37d4:	1ec72023          	sw	a2,480(a4)

000037d8 <inst_651>:
    37d8:	0000b537          	lui	a0,0xb
    37dc:	50550513          	addi	a0,a0,1285 # b505 <_end+0x16fd>
    37e0:	555555b7          	lui	a1,0x55555
    37e4:	55458593          	addi	a1,a1,1364 # 55555554 <absimm+0x10263025>
    37e8:	00b53633          	sltu	a2,a0,a1
    37ec:	1ec72223          	sw	a2,484(a4)

000037f0 <inst_652>:
    37f0:	0000b537          	lui	a0,0xb
    37f4:	50550513          	addi	a0,a0,1285 # b505 <_end+0x16fd>
    37f8:	aaaab5b7          	lui	a1,0xaaaab
    37fc:	aa958593          	addi	a1,a1,-1367 # aaaaaaa9 <absimm+0x657b857a>
    3800:	00b53633          	sltu	a2,a0,a1
    3804:	1ec72423          	sw	a2,488(a4)

00003808 <inst_653>:
    3808:	0000b537          	lui	a0,0xb
    380c:	50550513          	addi	a0,a0,1285 # b505 <_end+0x16fd>
    3810:	00400593          	addi	a1,zero,4
    3814:	00b53633          	sltu	a2,a0,a1
    3818:	1ec72623          	sw	a2,492(a4)

0000381c <inst_654>:
    381c:	0000b537          	lui	a0,0xb
    3820:	50550513          	addi	a0,a0,1285 # b505 <_end+0x16fd>
    3824:	333335b7          	lui	a1,0x33333
    3828:	33258593          	addi	a1,a1,818 # 33333332 <_end+0x3332952a>
    382c:	00b53633          	sltu	a2,a0,a1
    3830:	1ec72823          	sw	a2,496(a4)

00003834 <inst_655>:
    3834:	0000b537          	lui	a0,0xb
    3838:	50550513          	addi	a0,a0,1285 # b505 <_end+0x16fd>
    383c:	666665b7          	lui	a1,0x66666
    3840:	66558593          	addi	a1,a1,1637 # 66666665 <absimm+0x21374136>
    3844:	00b53633          	sltu	a2,a0,a1
    3848:	1ec72a23          	sw	a2,500(a4)

0000384c <inst_656>:
    384c:	0000b537          	lui	a0,0xb
    3850:	50550513          	addi	a0,a0,1285 # b505 <_end+0x16fd>
    3854:	0000b5b7          	lui	a1,0xb
    3858:	50358593          	addi	a1,a1,1283 # b503 <_end+0x16fb>
    385c:	00b53633          	sltu	a2,a0,a1
    3860:	1ec72c23          	sw	a2,504(a4)

00003864 <inst_657>:
    3864:	0000b537          	lui	a0,0xb
    3868:	50550513          	addi	a0,a0,1285 # b505 <_end+0x16fd>
    386c:	000105b7          	lui	a1,0x10
    3870:	ffe58593          	addi	a1,a1,-2 # fffe <_end+0x61f6>
    3874:	00b53633          	sltu	a2,a0,a1
    3878:	1ec72e23          	sw	a2,508(a4)

0000387c <inst_658>:
    387c:	0000b537          	lui	a0,0xb
    3880:	50550513          	addi	a0,a0,1285 # b505 <_end+0x16fd>
    3884:	555555b7          	lui	a1,0x55555
    3888:	55658593          	addi	a1,a1,1366 # 55555556 <absimm+0x10263027>
    388c:	00b53633          	sltu	a2,a0,a1
    3890:	20c72023          	sw	a2,512(a4)

00003894 <inst_659>:
    3894:	0000b537          	lui	a0,0xb
    3898:	50550513          	addi	a0,a0,1285 # b505 <_end+0x16fd>
    389c:	aaaab5b7          	lui	a1,0xaaaab
    38a0:	aab58593          	addi	a1,a1,-1365 # aaaaaaab <absimm+0x657b857c>
    38a4:	00b53633          	sltu	a2,a0,a1
    38a8:	20c72223          	sw	a2,516(a4)

000038ac <inst_660>:
    38ac:	0000b537          	lui	a0,0xb
    38b0:	50550513          	addi	a0,a0,1285 # b505 <_end+0x16fd>
    38b4:	00600593          	addi	a1,zero,6
    38b8:	00b53633          	sltu	a2,a0,a1
    38bc:	20c72423          	sw	a2,520(a4)

000038c0 <inst_661>:
    38c0:	0000b537          	lui	a0,0xb
    38c4:	50550513          	addi	a0,a0,1285 # b505 <_end+0x16fd>
    38c8:	333335b7          	lui	a1,0x33333
    38cc:	33458593          	addi	a1,a1,820 # 33333334 <_end+0x3332952c>
    38d0:	00b53633          	sltu	a2,a0,a1
    38d4:	20c72623          	sw	a2,524(a4)

000038d8 <inst_662>:
    38d8:	0000b537          	lui	a0,0xb
    38dc:	50550513          	addi	a0,a0,1285 # b505 <_end+0x16fd>
    38e0:	666665b7          	lui	a1,0x66666
    38e4:	66758593          	addi	a1,a1,1639 # 66666667 <absimm+0x21374138>
    38e8:	00b53633          	sltu	a2,a0,a1
    38ec:	20c72823          	sw	a2,528(a4)

000038f0 <inst_663>:
    38f0:	0000b537          	lui	a0,0xb
    38f4:	50550513          	addi	a0,a0,1285 # b505 <_end+0x16fd>
    38f8:	0000b5b7          	lui	a1,0xb
    38fc:	50558593          	addi	a1,a1,1285 # b505 <_end+0x16fd>
    3900:	00b53633          	sltu	a2,a0,a1
    3904:	20c72a23          	sw	a2,532(a4)

00003908 <inst_664>:
    3908:	0000b537          	lui	a0,0xb
    390c:	50550513          	addi	a0,a0,1285 # b505 <_end+0x16fd>
    3910:	00100593          	addi	a1,zero,1
    3914:	00b53633          	sltu	a2,a0,a1
    3918:	20c72c23          	sw	a2,536(a4)

0000391c <inst_665>:
    391c:	0000b537          	lui	a0,0xb
    3920:	50550513          	addi	a0,a0,1285 # b505 <_end+0x16fd>
    3924:	000105b7          	lui	a1,0x10
    3928:	00b53633          	sltu	a2,a0,a1
    392c:	20c72e23          	sw	a2,540(a4)

00003930 <inst_666>:
    3930:	00100513          	addi	a0,zero,1
    3934:	00300593          	addi	a1,zero,3
    3938:	00b53633          	sltu	a2,a0,a1
    393c:	22c72023          	sw	a2,544(a4)

00003940 <inst_667>:
    3940:	00100513          	addi	a0,zero,1
    3944:	555555b7          	lui	a1,0x55555
    3948:	55558593          	addi	a1,a1,1365 # 55555555 <absimm+0x10263026>
    394c:	00b53633          	sltu	a2,a0,a1
    3950:	22c72223          	sw	a2,548(a4)

00003954 <inst_668>:
    3954:	00100513          	addi	a0,zero,1
    3958:	aaaab5b7          	lui	a1,0xaaaab
    395c:	aaa58593          	addi	a1,a1,-1366 # aaaaaaaa <absimm+0x657b857b>
    3960:	00b53633          	sltu	a2,a0,a1
    3964:	22c72423          	sw	a2,552(a4)

00003968 <inst_669>:
    3968:	00100513          	addi	a0,zero,1
    396c:	00500593          	addi	a1,zero,5
    3970:	00b53633          	sltu	a2,a0,a1
    3974:	22c72623          	sw	a2,556(a4)

00003978 <inst_670>:
    3978:	00100513          	addi	a0,zero,1
    397c:	333335b7          	lui	a1,0x33333
    3980:	33358593          	addi	a1,a1,819 # 33333333 <_end+0x3332952b>
    3984:	00b53633          	sltu	a2,a0,a1
    3988:	22c72823          	sw	a2,560(a4)

0000398c <inst_671>:
    398c:	00100513          	addi	a0,zero,1
    3990:	666665b7          	lui	a1,0x66666
    3994:	66658593          	addi	a1,a1,1638 # 66666666 <absimm+0x21374137>
    3998:	00b53633          	sltu	a2,a0,a1
    399c:	22c72a23          	sw	a2,564(a4)

000039a0 <inst_672>:
    39a0:	00100513          	addi	a0,zero,1
    39a4:	0000b5b7          	lui	a1,0xb
    39a8:	50458593          	addi	a1,a1,1284 # b504 <_end+0x16fc>
    39ac:	00b53633          	sltu	a2,a0,a1
    39b0:	22c72c23          	sw	a2,568(a4)

000039b4 <inst_673>:
    39b4:	00100513          	addi	a0,zero,1
    39b8:	00000593          	addi	a1,zero,0
    39bc:	00b53633          	sltu	a2,a0,a1
    39c0:	22c72e23          	sw	a2,572(a4)

000039c4 <inst_674>:
    39c4:	00100513          	addi	a0,zero,1
    39c8:	000105b7          	lui	a1,0x10
    39cc:	fff58593          	addi	a1,a1,-1 # ffff <_end+0x61f7>
    39d0:	00b53633          	sltu	a2,a0,a1
    39d4:	24c72023          	sw	a2,576(a4)

000039d8 <inst_675>:
    39d8:	00100513          	addi	a0,zero,1
    39dc:	00200593          	addi	a1,zero,2
    39e0:	00b53633          	sltu	a2,a0,a1
    39e4:	24c72223          	sw	a2,580(a4)

000039e8 <inst_676>:
    39e8:	00100513          	addi	a0,zero,1
    39ec:	555555b7          	lui	a1,0x55555
    39f0:	55458593          	addi	a1,a1,1364 # 55555554 <absimm+0x10263025>
    39f4:	00b53633          	sltu	a2,a0,a1
    39f8:	24c72423          	sw	a2,584(a4)

000039fc <inst_677>:
    39fc:	00100513          	addi	a0,zero,1
    3a00:	aaaab5b7          	lui	a1,0xaaaab
    3a04:	aa958593          	addi	a1,a1,-1367 # aaaaaaa9 <absimm+0x657b857a>
    3a08:	00b53633          	sltu	a2,a0,a1
    3a0c:	24c72623          	sw	a2,588(a4)

00003a10 <inst_678>:
    3a10:	00100513          	addi	a0,zero,1
    3a14:	00400593          	addi	a1,zero,4
    3a18:	00b53633          	sltu	a2,a0,a1
    3a1c:	24c72823          	sw	a2,592(a4)

00003a20 <inst_679>:
    3a20:	00100513          	addi	a0,zero,1
    3a24:	333335b7          	lui	a1,0x33333
    3a28:	33258593          	addi	a1,a1,818 # 33333332 <_end+0x3332952a>
    3a2c:	00b53633          	sltu	a2,a0,a1
    3a30:	24c72a23          	sw	a2,596(a4)

00003a34 <inst_680>:
    3a34:	00100513          	addi	a0,zero,1
    3a38:	666665b7          	lui	a1,0x66666
    3a3c:	66558593          	addi	a1,a1,1637 # 66666665 <absimm+0x21374136>
    3a40:	00b53633          	sltu	a2,a0,a1
    3a44:	24c72c23          	sw	a2,600(a4)

00003a48 <inst_681>:
    3a48:	00100513          	addi	a0,zero,1
    3a4c:	0000b5b7          	lui	a1,0xb
    3a50:	50358593          	addi	a1,a1,1283 # b503 <_end+0x16fb>
    3a54:	00b53633          	sltu	a2,a0,a1
    3a58:	24c72e23          	sw	a2,604(a4)

00003a5c <inst_682>:
    3a5c:	00100513          	addi	a0,zero,1
    3a60:	000105b7          	lui	a1,0x10
    3a64:	ffe58593          	addi	a1,a1,-2 # fffe <_end+0x61f6>
    3a68:	00b53633          	sltu	a2,a0,a1
    3a6c:	26c72023          	sw	a2,608(a4)

00003a70 <inst_683>:
    3a70:	00100513          	addi	a0,zero,1
    3a74:	555555b7          	lui	a1,0x55555
    3a78:	55658593          	addi	a1,a1,1366 # 55555556 <absimm+0x10263027>
    3a7c:	00b53633          	sltu	a2,a0,a1
    3a80:	26c72223          	sw	a2,612(a4)

00003a84 <inst_684>:
    3a84:	00100513          	addi	a0,zero,1
    3a88:	aaaab5b7          	lui	a1,0xaaaab
    3a8c:	aab58593          	addi	a1,a1,-1365 # aaaaaaab <absimm+0x657b857c>
    3a90:	00b53633          	sltu	a2,a0,a1
    3a94:	26c72423          	sw	a2,616(a4)

00003a98 <inst_685>:
    3a98:	00100513          	addi	a0,zero,1
    3a9c:	00600593          	addi	a1,zero,6
    3aa0:	00b53633          	sltu	a2,a0,a1
    3aa4:	26c72623          	sw	a2,620(a4)

00003aa8 <inst_686>:
    3aa8:	00100513          	addi	a0,zero,1
    3aac:	333335b7          	lui	a1,0x33333
    3ab0:	33458593          	addi	a1,a1,820 # 33333334 <_end+0x3332952c>
    3ab4:	00b53633          	sltu	a2,a0,a1
    3ab8:	26c72823          	sw	a2,624(a4)

00003abc <inst_687>:
    3abc:	00100513          	addi	a0,zero,1
    3ac0:	666665b7          	lui	a1,0x66666
    3ac4:	66758593          	addi	a1,a1,1639 # 66666667 <absimm+0x21374138>
    3ac8:	00b53633          	sltu	a2,a0,a1
    3acc:	26c72a23          	sw	a2,628(a4)

00003ad0 <inst_688>:
    3ad0:	00100513          	addi	a0,zero,1
    3ad4:	0000b5b7          	lui	a1,0xb
    3ad8:	50558593          	addi	a1,a1,1285 # b505 <_end+0x16fd>
    3adc:	00b53633          	sltu	a2,a0,a1
    3ae0:	26c72c23          	sw	a2,632(a4)

00003ae4 <inst_689>:
    3ae4:	00100513          	addi	a0,zero,1
    3ae8:	000105b7          	lui	a1,0x10
    3aec:	00b53633          	sltu	a2,a0,a1
    3af0:	26c72e23          	sw	a2,636(a4)

00003af4 <inst_690>:
    3af4:	00010537          	lui	a0,0x10
    3af8:	00300593          	addi	a1,zero,3
    3afc:	00b53633          	sltu	a2,a0,a1
    3b00:	28c72023          	sw	a2,640(a4)

00003b04 <inst_691>:
    3b04:	00010537          	lui	a0,0x10
    3b08:	555555b7          	lui	a1,0x55555
    3b0c:	55558593          	addi	a1,a1,1365 # 55555555 <absimm+0x10263026>
    3b10:	00b53633          	sltu	a2,a0,a1
    3b14:	28c72223          	sw	a2,644(a4)

00003b18 <inst_692>:
    3b18:	00010537          	lui	a0,0x10
    3b1c:	aaaab5b7          	lui	a1,0xaaaab
    3b20:	aaa58593          	addi	a1,a1,-1366 # aaaaaaaa <absimm+0x657b857b>
    3b24:	00b53633          	sltu	a2,a0,a1
    3b28:	28c72423          	sw	a2,648(a4)

00003b2c <inst_693>:
    3b2c:	00010537          	lui	a0,0x10
    3b30:	333335b7          	lui	a1,0x33333
    3b34:	33358593          	addi	a1,a1,819 # 33333333 <_end+0x3332952b>
    3b38:	00b53633          	sltu	a2,a0,a1
    3b3c:	28c72623          	sw	a2,652(a4)

00003b40 <inst_694>:
    3b40:	00010537          	lui	a0,0x10
    3b44:	666665b7          	lui	a1,0x66666
    3b48:	66658593          	addi	a1,a1,1638 # 66666666 <absimm+0x21374137>
    3b4c:	00b53633          	sltu	a2,a0,a1
    3b50:	28c72823          	sw	a2,656(a4)

00003b54 <inst_695>:
    3b54:	00010537          	lui	a0,0x10
    3b58:	0000b5b7          	lui	a1,0xb
    3b5c:	50458593          	addi	a1,a1,1284 # b504 <_end+0x16fc>
    3b60:	00b53633          	sltu	a2,a0,a1
    3b64:	28c72a23          	sw	a2,660(a4)

00003b68 <inst_696>:
    3b68:	00010537          	lui	a0,0x10
    3b6c:	00000593          	addi	a1,zero,0
    3b70:	00b53633          	sltu	a2,a0,a1
    3b74:	28c72c23          	sw	a2,664(a4)

00003b78 <inst_697>:
    3b78:	00010537          	lui	a0,0x10
    3b7c:	000105b7          	lui	a1,0x10
    3b80:	fff58593          	addi	a1,a1,-1 # ffff <_end+0x61f7>
    3b84:	00b53633          	sltu	a2,a0,a1
    3b88:	28c72e23          	sw	a2,668(a4)

00003b8c <inst_698>:
    3b8c:	00010537          	lui	a0,0x10
    3b90:	00200593          	addi	a1,zero,2
    3b94:	00b53633          	sltu	a2,a0,a1
    3b98:	2ac72023          	sw	a2,672(a4)

00003b9c <inst_699>:
    3b9c:	00010537          	lui	a0,0x10
    3ba0:	555555b7          	lui	a1,0x55555
    3ba4:	55458593          	addi	a1,a1,1364 # 55555554 <absimm+0x10263025>
    3ba8:	00b53633          	sltu	a2,a0,a1
    3bac:	2ac72223          	sw	a2,676(a4)

00003bb0 <inst_700>:
    3bb0:	00010537          	lui	a0,0x10
    3bb4:	aaaab5b7          	lui	a1,0xaaaab
    3bb8:	aa958593          	addi	a1,a1,-1367 # aaaaaaa9 <absimm+0x657b857a>
    3bbc:	00b53633          	sltu	a2,a0,a1
    3bc0:	2ac72423          	sw	a2,680(a4)

00003bc4 <inst_701>:
    3bc4:	00010537          	lui	a0,0x10
    3bc8:	00400593          	addi	a1,zero,4
    3bcc:	00b53633          	sltu	a2,a0,a1
    3bd0:	2ac72623          	sw	a2,684(a4)

00003bd4 <inst_702>:
    3bd4:	00010537          	lui	a0,0x10
    3bd8:	333335b7          	lui	a1,0x33333
    3bdc:	33258593          	addi	a1,a1,818 # 33333332 <_end+0x3332952a>
    3be0:	00b53633          	sltu	a2,a0,a1
    3be4:	2ac72823          	sw	a2,688(a4)

00003be8 <inst_703>:
    3be8:	00010537          	lui	a0,0x10
    3bec:	666665b7          	lui	a1,0x66666
    3bf0:	66558593          	addi	a1,a1,1637 # 66666665 <absimm+0x21374136>
    3bf4:	00b53633          	sltu	a2,a0,a1
    3bf8:	2ac72a23          	sw	a2,692(a4)

00003bfc <inst_704>:
    3bfc:	00010537          	lui	a0,0x10
    3c00:	0000b5b7          	lui	a1,0xb
    3c04:	50358593          	addi	a1,a1,1283 # b503 <_end+0x16fb>
    3c08:	00b53633          	sltu	a2,a0,a1
    3c0c:	2ac72c23          	sw	a2,696(a4)

00003c10 <inst_705>:
    3c10:	00010537          	lui	a0,0x10
    3c14:	000105b7          	lui	a1,0x10
    3c18:	ffe58593          	addi	a1,a1,-2 # fffe <_end+0x61f6>
    3c1c:	00b53633          	sltu	a2,a0,a1
    3c20:	2ac72e23          	sw	a2,700(a4)

00003c24 <inst_706>:
    3c24:	00010537          	lui	a0,0x10
    3c28:	555555b7          	lui	a1,0x55555
    3c2c:	55658593          	addi	a1,a1,1366 # 55555556 <absimm+0x10263027>
    3c30:	00b53633          	sltu	a2,a0,a1
    3c34:	2cc72023          	sw	a2,704(a4)

00003c38 <inst_707>:
    3c38:	00010537          	lui	a0,0x10
    3c3c:	aaaab5b7          	lui	a1,0xaaaab
    3c40:	aab58593          	addi	a1,a1,-1365 # aaaaaaab <absimm+0x657b857c>
    3c44:	00b53633          	sltu	a2,a0,a1
    3c48:	2cc72223          	sw	a2,708(a4)

00003c4c <inst_708>:
    3c4c:	00010537          	lui	a0,0x10
    3c50:	00600593          	addi	a1,zero,6
    3c54:	00b53633          	sltu	a2,a0,a1
    3c58:	2cc72423          	sw	a2,712(a4)

00003c5c <inst_709>:
    3c5c:	00010537          	lui	a0,0x10
    3c60:	333335b7          	lui	a1,0x33333
    3c64:	33458593          	addi	a1,a1,820 # 33333334 <_end+0x3332952c>
    3c68:	00b53633          	sltu	a2,a0,a1
    3c6c:	2cc72623          	sw	a2,716(a4)

00003c70 <inst_710>:
    3c70:	00010537          	lui	a0,0x10
    3c74:	666665b7          	lui	a1,0x66666
    3c78:	66758593          	addi	a1,a1,1639 # 66666667 <absimm+0x21374138>
    3c7c:	00b53633          	sltu	a2,a0,a1
    3c80:	2cc72823          	sw	a2,720(a4)

00003c84 <inst_711>:
    3c84:	00010537          	lui	a0,0x10
    3c88:	0000b5b7          	lui	a1,0xb
    3c8c:	50558593          	addi	a1,a1,1285 # b505 <_end+0x16fd>
    3c90:	00b53633          	sltu	a2,a0,a1
    3c94:	2cc72a23          	sw	a2,724(a4)

00003c98 <inst_712>:
    3c98:	00010537          	lui	a0,0x10
    3c9c:	00100593          	addi	a1,zero,1
    3ca0:	00b53633          	sltu	a2,a0,a1
    3ca4:	2cc72c23          	sw	a2,728(a4)

00003ca8 <inst_713>:
    3ca8:	00010537          	lui	a0,0x10
    3cac:	000105b7          	lui	a1,0x10
    3cb0:	00b53633          	sltu	a2,a0,a1
    3cb4:	2cc72e23          	sw	a2,732(a4)

00003cb8 <inst_714>:
    3cb8:	66666537          	lui	a0,0x66666
    3cbc:	66550513          	addi	a0,a0,1637 # 66666665 <absimm+0x21374136>
    3cc0:	00600593          	addi	a1,zero,6
    3cc4:	00b53633          	sltu	a2,a0,a1
    3cc8:	2ec72023          	sw	a2,736(a4)

00003ccc <inst_715>:
    3ccc:	66666537          	lui	a0,0x66666
    3cd0:	66550513          	addi	a0,a0,1637 # 66666665 <absimm+0x21374136>
    3cd4:	333335b7          	lui	a1,0x33333
    3cd8:	33458593          	addi	a1,a1,820 # 33333334 <_end+0x3332952c>
    3cdc:	00b53633          	sltu	a2,a0,a1
    3ce0:	2ec72223          	sw	a2,740(a4)

00003ce4 <inst_716>:
    3ce4:	66666537          	lui	a0,0x66666
    3ce8:	66550513          	addi	a0,a0,1637 # 66666665 <absimm+0x21374136>
    3cec:	666665b7          	lui	a1,0x66666
    3cf0:	66758593          	addi	a1,a1,1639 # 66666667 <absimm+0x21374138>
    3cf4:	00b53633          	sltu	a2,a0,a1
    3cf8:	2ec72423          	sw	a2,744(a4)

00003cfc <inst_717>:
    3cfc:	66666537          	lui	a0,0x66666
    3d00:	66550513          	addi	a0,a0,1637 # 66666665 <absimm+0x21374136>
    3d04:	0000b5b7          	lui	a1,0xb
    3d08:	50558593          	addi	a1,a1,1285 # b505 <_end+0x16fd>
    3d0c:	00b53633          	sltu	a2,a0,a1
    3d10:	2ec72623          	sw	a2,748(a4)

00003d14 <inst_718>:
    3d14:	00001537          	lui	a0,0x1
    3d18:	80050513          	addi	a0,a0,-2048 # 800 <inst_87+0x8>
    3d1c:	ffe00593          	addi	a1,zero,-2
    3d20:	00b53633          	sltu	a2,a0,a1
    3d24:	2ec72823          	sw	a2,752(a4)

00003d28 <inst_719>:
    3d28:	00100537          	lui	a0,0x100
    3d2c:	001005b7          	lui	a1,0x100
    3d30:	00b53633          	sltu	a2,a0,a1
    3d34:	2ec72a23          	sw	a2,756(a4)

00003d38 <inst_720>:
    3d38:	00400513          	addi	a0,zero,4
    3d3c:	00200593          	addi	a1,zero,2
    3d40:	00b53633          	sltu	a2,a0,a1
    3d44:	2ec72c23          	sw	a2,760(a4)

00003d48 <inst_721>:
    3d48:	e0000537          	lui	a0,0xe0000
    3d4c:	fff50513          	addi	a0,a0,-1 # dfffffff <immx+0x252f252f>
    3d50:	000105b7          	lui	a1,0x10
    3d54:	00b53633          	sltu	a2,a0,a1
    3d58:	2ec72e23          	sw	a2,764(a4)

00003d5c <cleanup_epilogs>:
    3d5c:	0200006f          	jal	zero,3d7c <exit_cleanup>

00003d60 <abort_tests>:
    3d60:	17812483          	lw	s1,376(sp) # 1000178 <_end+0xff6370>
    3d64:	18012303          	lw	t1,384(sp)
    3d68:	00930333          	add	t1,t1,s1
    3d6c:	bad0e337          	lui	t1,0xbad0e
    3d70:	ad030313          	addi	t1,t1,-1328 # bad0dad0 <immx>
    3d74:	fe64ae23          	sw	t1,-4(s1)
    3d78:	0040006f          	jal	zero,3d7c <exit_cleanup>

00003d7c <exit_cleanup>:
    3d7c:	00005517          	auipc	a0,0x5
    3d80:	39450513          	addi	a0,a0,916 # 9110 <begin_signature>
    3d84:	00006597          	auipc	a1,0x6
    3d88:	edc58593          	addi	a1,a1,-292 # 9c60 <end_signature>
    3d8c:	00008637          	lui	a2,0x8
    3d90:	00460613          	addi	a2,a2,4 # 8004 <rvtest_data_begin+0x4>

00003d94 <sig_dump_loop>:
    3d94:	00052283          	lw	t0,0(a0)
    3d98:	00562023          	sw	t0,0(a2)
    3d9c:	00450513          	addi	a0,a0,4
    3da0:	00b55463          	bge	a0,a1,3da8 <end_sim>
    3da4:	ff1ff06f          	jal	zero,3d94 <sig_dump_loop>

00003da8 <end_sim>:
    3da8:	00008537          	lui	a0,0x8
    3dac:	00850513          	addi	a0,a0,8 # 8008 <rvtest_data_begin+0x8>
    3db0:	cafed5b7          	lui	a1,0xcafed
    3db4:	afe58593          	addi	a1,a1,-1282 # cafecafe <immx+0x102df02e>
    3db8:	00b52023          	sw	a1,0(a0)
    3dbc:	fedff06f          	jal	zero,3da8 <end_sim>
	...
