
my.elf:     file format elf32-littleriscv


Disassembly of section .text.init:

00000000 <rvtest_entry_point>:
       0:	7d5c0837          	lui	a6,0x7d5c0
       4:	ddb80813          	addi	a6,a6,-549 # 7d5bfddb <absimm+0x382cd8ac>
       8:	00785893          	srli	a7,a6,0x7
       c:	01985793          	srli	a5,a6,0x19
      10:	00f8e8b3          	or	a7,a7,a5
      14:	0078d913          	srli	s2,a7,0x7
      18:	0198d793          	srli	a5,a7,0x19
      1c:	00f96933          	or	s2,s2,a5
      20:	00795993          	srli	s3,s2,0x7
      24:	01995793          	srli	a5,s2,0x19
      28:	00f9e9b3          	or	s3,s3,a5
      2c:	0079da13          	srli	s4,s3,0x7
      30:	0199d793          	srli	a5,s3,0x19
      34:	00fa6a33          	or	s4,s4,a5
      38:	007a5a93          	srli	s5,s4,0x7
      3c:	019a5793          	srli	a5,s4,0x19
      40:	00faeab3          	or	s5,s5,a5
      44:	007adb13          	srli	s6,s5,0x7
      48:	019ad793          	srli	a5,s5,0x19
      4c:	00fb6b33          	or	s6,s6,a5
      50:	007b5b93          	srli	s7,s6,0x7
      54:	019b5793          	srli	a5,s6,0x19
      58:	00fbebb3          	or	s7,s7,a5
      5c:	007bdc13          	srli	s8,s7,0x7
      60:	019bd793          	srli	a5,s7,0x19
      64:	00fc6c33          	or	s8,s8,a5
      68:	007c5c93          	srli	s9,s8,0x7
      6c:	019c5793          	srli	a5,s8,0x19
      70:	00fcecb3          	or	s9,s9,a5
      74:	007cdd13          	srli	s10,s9,0x7
      78:	019cd793          	srli	a5,s9,0x19
      7c:	00fd6d33          	or	s10,s10,a5
      80:	007d5d93          	srli	s11,s10,0x7
      84:	019d5793          	srli	a5,s10,0x19
      88:	00fdedb3          	or	s11,s11,a5
      8c:	007dde13          	srli	t3,s11,0x7
      90:	019dd793          	srli	a5,s11,0x19
      94:	00fe6e33          	or	t3,t3,a5
      98:	007e5e93          	srli	t4,t3,0x7
      9c:	019e5793          	srli	a5,t3,0x19
      a0:	00feeeb3          	or	t4,t4,a5
      a4:	007edf13          	srli	t5,t4,0x7
      a8:	019ed793          	srli	a5,t4,0x19
      ac:	00ff6f33          	or	t5,t5,a5
      b0:	feedc0b7          	lui	ra,0xfeedc
      b4:	ead08093          	addi	ra,ra,-339 # feedbead <immx+0x441ce3dd>
      b8:	0070d113          	srli	sp,ra,0x7
      bc:	0190d793          	srli	a5,ra,0x19
      c0:	00f16133          	or	sp,sp,a5
      c4:	00715193          	srli	gp,sp,0x7
      c8:	01915793          	srli	a5,sp,0x19
      cc:	00f1e1b3          	or	gp,gp,a5
      d0:	0071d213          	srli	tp,gp,0x7
      d4:	0191d793          	srli	a5,gp,0x19
      d8:	00f26233          	or	tp,tp,a5
      dc:	00725293          	srli	t0,tp,0x7
      e0:	01925793          	srli	a5,tp,0x19
      e4:	00f2e2b3          	or	t0,t0,a5
      e8:	0072d313          	srli	t1,t0,0x7
      ec:	0192d793          	srli	a5,t0,0x19
      f0:	00f36333          	or	t1,t1,a5
      f4:	00735393          	srli	t2,t1,0x7
      f8:	01935793          	srli	a5,t1,0x19
      fc:	00f3e3b3          	or	t2,t2,a5
     100:	0073d413          	srli	s0,t2,0x7
     104:	0193d793          	srli	a5,t2,0x19
     108:	00f46433          	or	s0,s0,a5
     10c:	00745493          	srli	s1,s0,0x7
     110:	01945793          	srli	a5,s0,0x19
     114:	00f4e4b3          	or	s1,s1,a5
     118:	0074d513          	srli	a0,s1,0x7
     11c:	0194d793          	srli	a5,s1,0x19
     120:	00f56533          	or	a0,a0,a5
     124:	00755593          	srli	a1,a0,0x7
     128:	01955793          	srli	a5,a0,0x19
     12c:	00f5e5b3          	or	a1,a1,a5
     130:	0075d613          	srli	a2,a1,0x7
     134:	0195d793          	srli	a5,a1,0x19
     138:	00f66633          	or	a2,a2,a5
     13c:	00765693          	srli	a3,a2,0x7
     140:	01965793          	srli	a5,a2,0x19
     144:	00f6e6b3          	or	a3,a3,a5

00000148 <rvtest_code_begin>:
     148:	00000013          	addi	zero,zero,0
     14c:	00000013          	addi	zero,zero,0
     150:	00000013          	addi	zero,zero,0
     154:	00000013          	addi	zero,zero,0
     158:	00000013          	addi	zero,zero,0
     15c:	00000013          	addi	zero,zero,0
     160:	00009117          	auipc	sp,0x9
     164:	fb410113          	addi	sp,sp,-76 # 9114 <signature_x2_0>
     168:	00000013          	addi	zero,zero,0
     16c:	00000013          	addi	zero,zero,0
     170:	00000013          	addi	zero,zero,0
     174:	00000013          	addi	zero,zero,0
     178:	00000013          	addi	zero,zero,0
     17c:	00000013          	addi	zero,zero,0

00000180 <inst_0>:
     180:	f7f00c93          	addi	s9,zero,-129
     184:	800ca613          	slti	a2,s9,-2048
     188:	00c12023          	sw	a2,0(sp)

0000018c <inst_1>:
     18c:	fffff2b7          	lui	t0,0xfffff
     190:	fff28293          	addi	t0,t0,-1 # ffffefff <immx+0x452f152f>
     194:	0002a293          	slti	t0,t0,0
     198:	00512223          	sw	t0,4(sp)

0000019c <inst_2>:
     19c:	c0000237          	lui	tp,0xc0000
     1a0:	7ff22e13          	slti	t3,tp,2047
     1a4:	01c12423          	sw	t3,8(sp)

000001a8 <inst_3>:
     1a8:	fef00f93          	addi	t6,zero,-17
     1ac:	001fa793          	slti	a5,t6,1
     1b0:	00f12623          	sw	a5,12(sp)

000001b4 <inst_4>:
     1b4:	800000b7          	lui	ra,0x80000
     1b8:	0030a693          	slti	a3,ra,3
     1bc:	00d12823          	sw	a3,16(sp)

000001c0 <inst_5>:
     1c0:	00000793          	addi	a5,zero,0
     1c4:	0027a093          	slti	ra,a5,2
     1c8:	00112a23          	sw	ra,20(sp)

000001cc <inst_6>:
     1cc:	80000837          	lui	a6,0x80000
     1d0:	fff80813          	addi	a6,a6,-1 # 7fffffff <absimm+0x3ad0dad0>
     1d4:	ff882493          	slti	s1,a6,-8
     1d8:	00912c23          	sw	s1,24(sp)

000001dc <inst_7>:
     1dc:	00100593          	addi	a1,zero,1
     1e0:	c005af93          	slti	t6,a1,-1024
     1e4:	01f12e23          	sw	t6,28(sp)

000001e8 <inst_8>:
     1e8:	01000713          	addi	a4,zero,16
     1ec:	01072d93          	slti	s11,a4,16
     1f0:	03b12023          	sw	s11,32(sp)

000001f4 <inst_9>:
     1f4:	33333637          	lui	a2,0x33333
     1f8:	33460613          	addi	a2,a2,820 # 33333334 <_end+0x3332982c>
     1fc:	00462d13          	slti	s10,a2,4
     200:	03a12223          	sw	s10,36(sp)

00000204 <inst_10>:
     204:	400008b7          	lui	a7,0x40000
     208:	fff88893          	addi	a7,a7,-1 # 3fffffff <_end+0x3fff64f7>
     20c:	0088a213          	slti	tp,a7,8
     210:	02412423          	sw	tp,40(sp)

00000214 <inst_11>:
     214:	ffffe937          	lui	s2,0xffffe
     218:	fff90913          	addi	s2,s2,-1 # ffffdfff <immx+0x452f052f>
     21c:	02092513          	slti	a0,s2,32
     220:	02a12623          	sw	a0,44(sp)

00000224 <inst_12>:
     224:	00300d93          	addi	s11,zero,3
     228:	040daa93          	slti	s5,s11,64
     22c:	03512823          	sw	s5,48(sp)

00000230 <inst_13>:
     230:	555551b7          	lui	gp,0x55555
     234:	55418193          	addi	gp,gp,1364 # 55555554 <absimm+0x10263025>
     238:	0801a413          	slti	s0,gp,128
     23c:	02812a23          	sw	s0,52(sp)

00000240 <inst_14>:
     240:	555553b7          	lui	t2,0x55555
     244:	55438393          	addi	t2,t2,1364 # 55555554 <absimm+0x10263025>
     248:	1003a013          	slti	zero,t2,256
     24c:	02012c23          	sw	zero,56(sp)

00000250 <inst_15>:
     250:	aaaabb37          	lui	s6,0xaaaab
     254:	aaab0b13          	addi	s6,s6,-1366 # aaaaaaaa <absimm+0x657b857b>
     258:	200b2c13          	slti	s8,s6,512
     25c:	03812e23          	sw	s8,60(sp)

00000260 <inst_16>:
     260:	00004c37          	lui	s8,0x4
     264:	400c2913          	slti	s2,s8,1024
     268:	05212023          	sw	s2,64(sp)

0000026c <inst_17>:
     26c:	bff00313          	addi	t1,zero,-1025
     270:	ffe32c93          	slti	s9,t1,-2
     274:	05912223          	sw	s9,68(sp)

00000278 <inst_18>:
     278:	66666ab7          	lui	s5,0x66666
     27c:	667a8a93          	addi	s5,s5,1639 # 66666667 <absimm+0x21374138>
     280:	ffdaab93          	slti	s7,s5,-3
     284:	05712423          	sw	s7,72(sp)

00000288 <inst_19>:
     288:	00000013          	addi	zero,zero,0
     28c:	ffb02393          	slti	t2,zero,-5
     290:	04712623          	sw	t2,76(sp)

00000294 <inst_20>:
     294:	ffff5537          	lui	a0,0xffff5
     298:	afc50513          	addi	a0,a0,-1284 # ffff4afc <immx+0x452e702c>
     29c:	ff752a13          	slti	s4,a0,-9
     2a0:	05412823          	sw	s4,80(sp)

000002a4 <inst_21>:
     2a4:	40000d37          	lui	s10,0x40000
     2a8:	fffd0d13          	addi	s10,s10,-1 # 3fffffff <_end+0x3fff64f7>
     2ac:	fefd2813          	slti	a6,s10,-17
     2b0:	05012a23          	sw	a6,84(sp)

000002b4 <inst_22>:
     2b4:	fff80a37          	lui	s4,0xfff80
     2b8:	fffa0a13          	addi	s4,s4,-1 # fff7ffff <immx+0x4527252f>
     2bc:	fdfa2e93          	slti	t4,s4,-33
     2c0:	05d12c23          	sw	t4,88(sp)
     2c4:	00000013          	addi	zero,zero,0
     2c8:	00000013          	addi	zero,zero,0
     2cc:	00000013          	addi	zero,zero,0
     2d0:	00000013          	addi	zero,zero,0
     2d4:	00000013          	addi	zero,zero,0
     2d8:	00000013          	addi	zero,zero,0
     2dc:	00000013          	addi	zero,zero,0
     2e0:	00009097          	auipc	ra,0x9
     2e4:	e9008093          	addi	ra,ra,-368 # 9170 <signature_x1_0>
     2e8:	00000013          	addi	zero,zero,0
     2ec:	00000013          	addi	zero,zero,0
     2f0:	00000013          	addi	zero,zero,0
     2f4:	00000013          	addi	zero,zero,0
     2f8:	00000013          	addi	zero,zero,0
     2fc:	00000013          	addi	zero,zero,0

00000300 <inst_23>:
     300:	f00006b7          	lui	a3,0xf0000
     304:	fff68693          	addi	a3,a3,-1 # efffffff <immx+0x352f252f>
     308:	fbf6a193          	slti	gp,a3,-65
     30c:	0030a023          	sw	gp,0(ra)

00000310 <inst_24>:
     310:	00800eb7          	lui	t4,0x800
     314:	f7fea713          	slti	a4,t4,-129
     318:	00e0a223          	sw	a4,4(ra)

0000031c <inst_25>:
     31c:	f0000bb7          	lui	s7,0xf0000
     320:	fffb8b93          	addi	s7,s7,-1 # efffffff <immx+0x352f252f>
     324:	effba113          	slti	sp,s7,-257
     328:	0020a423          	sw	sp,8(ra)

0000032c <inst_26>:
     32c:	00000113          	addi	sp,zero,0
     330:	dff12b13          	slti	s6,sp,-513
     334:	0160a623          	sw	s6,12(ra)

00000338 <inst_27>:
     338:	fffc0f37          	lui	t5,0xfffc0
     33c:	ffff0f13          	addi	t5,t5,-1 # fffbffff <immx+0x452b252f>
     340:	bfff2993          	slti	s3,t5,-1025
     344:	0130a823          	sw	s3,16(ra)

00000348 <inst_28>:
     348:	00400993          	addi	s3,zero,4
     34c:	5559a593          	slti	a1,s3,1365
     350:	00b0aa23          	sw	a1,20(ra)

00000354 <inst_29>:
     354:	c0000437          	lui	s0,0xc0000
     358:	aaa42f13          	slti	t5,s0,-1366
     35c:	01e0ac23          	sw	t5,24(ra)

00000360 <inst_30>:
     360:	00200493          	addi	s1,zero,2
     364:	7ff4a893          	slti	a7,s1,2047
     368:	0110ae23          	sw	a7,28(ra)

0000036c <inst_31>:
     36c:	00800e13          	addi	t3,zero,8
     370:	aabe2313          	slti	t1,t3,-1365
     374:	0260a023          	sw	t1,32(ra)

00000378 <inst_32>:
     378:	02000513          	addi	a0,zero,32
     37c:	55552593          	slti	a1,a0,1365
     380:	02b0a223          	sw	a1,36(ra)

00000384 <inst_33>:
     384:	04000513          	addi	a0,zero,64
     388:	55552593          	slti	a1,a0,1365
     38c:	02b0a423          	sw	a1,40(ra)

00000390 <inst_34>:
     390:	08000513          	addi	a0,zero,128
     394:	20052593          	slti	a1,a0,512
     398:	02b0a623          	sw	a1,44(ra)

0000039c <inst_35>:
     39c:	10000513          	addi	a0,zero,256
     3a0:	02e52593          	slti	a1,a0,46
     3a4:	02b0a823          	sw	a1,48(ra)

000003a8 <inst_36>:
     3a8:	20000513          	addi	a0,zero,512
     3ac:	ffd52593          	slti	a1,a0,-3
     3b0:	02b0aa23          	sw	a1,52(ra)

000003b4 <inst_37>:
     3b4:	40000513          	addi	a0,zero,1024
     3b8:	eff52593          	slti	a1,a0,-257
     3bc:	02b0ac23          	sw	a1,56(ra)

000003c0 <inst_38>:
     3c0:	00001537          	lui	a0,0x1
     3c4:	80050513          	addi	a0,a0,-2048 # 800 <inst_117+0xc>
     3c8:	02d52593          	slti	a1,a0,45
     3cc:	02b0ae23          	sw	a1,60(ra)

000003d0 <inst_39>:
     3d0:	00001537          	lui	a0,0x1
     3d4:	ffb52593          	slti	a1,a0,-5
     3d8:	04b0a023          	sw	a1,64(ra)

000003dc <inst_40>:
     3dc:	00002537          	lui	a0,0x2
     3e0:	00052593          	slti	a1,a0,0
     3e4:	04b0a223          	sw	a1,68(ra)

000003e8 <inst_41>:
     3e8:	00008537          	lui	a0,0x8
     3ec:	aaa52593          	slti	a1,a0,-1366
     3f0:	04b0a423          	sw	a1,72(ra)

000003f4 <inst_42>:
     3f4:	00010537          	lui	a0,0x10
     3f8:	fff52593          	slti	a1,a0,-1
     3fc:	04b0a623          	sw	a1,76(ra)

00000400 <inst_43>:
     400:	00020537          	lui	a0,0x20
     404:	ffe52593          	slti	a1,a0,-2
     408:	04b0a823          	sw	a1,80(ra)

0000040c <inst_44>:
     40c:	00040537          	lui	a0,0x40
     410:	00652593          	slti	a1,a0,6
     414:	04b0aa23          	sw	a1,84(ra)

00000418 <inst_45>:
     418:	00080537          	lui	a0,0x80
     41c:	fbf52593          	slti	a1,a0,-65
     420:	04b0ac23          	sw	a1,88(ra)

00000424 <inst_46>:
     424:	00100537          	lui	a0,0x100
     428:	aaa52593          	slti	a1,a0,-1366
     42c:	04b0ae23          	sw	a1,92(ra)

00000430 <inst_47>:
     430:	00200537          	lui	a0,0x200
     434:	fef52593          	slti	a1,a0,-17
     438:	06b0a023          	sw	a1,96(ra)

0000043c <inst_48>:
     43c:	00400537          	lui	a0,0x400
     440:	02e52593          	slti	a1,a0,46
     444:	06b0a223          	sw	a1,100(ra)

00000448 <inst_49>:
     448:	01000537          	lui	a0,0x1000
     44c:	fd452593          	slti	a1,a0,-44
     450:	06b0a423          	sw	a1,104(ra)

00000454 <inst_50>:
     454:	02000537          	lui	a0,0x2000
     458:	55552593          	slti	a1,a0,1365
     45c:	06b0a623          	sw	a1,108(ra)

00000460 <inst_51>:
     460:	04000537          	lui	a0,0x4000
     464:	fbf52593          	slti	a1,a0,-65
     468:	06b0a823          	sw	a1,112(ra)

0000046c <inst_52>:
     46c:	08000537          	lui	a0,0x8000
     470:	7ff52593          	slti	a1,a0,2047
     474:	06b0aa23          	sw	a1,116(ra)

00000478 <inst_53>:
     478:	10000537          	lui	a0,0x10000
     47c:	02d52593          	slti	a1,a0,45
     480:	06b0ac23          	sw	a1,120(ra)

00000484 <inst_54>:
     484:	20000537          	lui	a0,0x20000
     488:	00052593          	slti	a1,a0,0
     48c:	06b0ae23          	sw	a1,124(ra)

00000490 <inst_55>:
     490:	40000537          	lui	a0,0x40000
     494:	fef52593          	slti	a1,a0,-17
     498:	08b0a023          	sw	a1,128(ra)

0000049c <inst_56>:
     49c:	ffe00513          	addi	a0,zero,-2
     4a0:	00152593          	slti	a1,a0,1
     4a4:	08b0a223          	sw	a1,132(ra)

000004a8 <inst_57>:
     4a8:	ffd00513          	addi	a0,zero,-3
     4ac:	aab52593          	slti	a1,a0,-1365
     4b0:	08b0a423          	sw	a1,136(ra)

000004b4 <inst_58>:
     4b4:	ffb00513          	addi	a0,zero,-5
     4b8:	10052593          	slti	a1,a0,256
     4bc:	08b0a623          	sw	a1,140(ra)

000004c0 <inst_59>:
     4c0:	ff700513          	addi	a0,zero,-9
     4c4:	00252593          	slti	a1,a0,2
     4c8:	08b0a823          	sw	a1,144(ra)

000004cc <inst_60>:
     4cc:	fdf00513          	addi	a0,zero,-33
     4d0:	00152593          	slti	a1,a0,1
     4d4:	08b0aa23          	sw	a1,148(ra)

000004d8 <inst_61>:
     4d8:	fbf00513          	addi	a0,zero,-65
     4dc:	ffc52593          	slti	a1,a0,-4
     4e0:	08b0ac23          	sw	a1,152(ra)

000004e4 <inst_62>:
     4e4:	eff00513          	addi	a0,zero,-257
     4e8:	80052593          	slti	a1,a0,-2048
     4ec:	08b0ae23          	sw	a1,156(ra)

000004f0 <inst_63>:
     4f0:	dff00513          	addi	a0,zero,-513
     4f4:	00952593          	slti	a1,a0,9
     4f8:	0ab0a023          	sw	a1,160(ra)

000004fc <inst_64>:
     4fc:	fffff537          	lui	a0,0xfffff
     500:	7ff50513          	addi	a0,a0,2047 # fffff7ff <immx+0x452f1d2f>
     504:	ff852593          	slti	a1,a0,-8
     508:	0ab0a223          	sw	a1,164(ra)

0000050c <inst_65>:
     50c:	ffffc537          	lui	a0,0xffffc
     510:	fff50513          	addi	a0,a0,-1 # ffffbfff <immx+0x452ee52f>
     514:	40052593          	slti	a1,a0,1024
     518:	0ab0a423          	sw	a1,168(ra)

0000051c <inst_66>:
     51c:	ffff8537          	lui	a0,0xffff8
     520:	fff50513          	addi	a0,a0,-1 # ffff7fff <immx+0x452ea52f>
     524:	33352593          	slti	a1,a0,819
     528:	0ab0a623          	sw	a1,172(ra)

0000052c <inst_67>:
     52c:	ffff0537          	lui	a0,0xffff0
     530:	fff50513          	addi	a0,a0,-1 # fffeffff <immx+0x452e252f>
     534:	eff52593          	slti	a1,a0,-257
     538:	0ab0a823          	sw	a1,176(ra)

0000053c <inst_68>:
     53c:	fffe0537          	lui	a0,0xfffe0
     540:	fff50513          	addi	a0,a0,-1 # fffdffff <immx+0x452d252f>
     544:	00352593          	slti	a1,a0,3
     548:	0ab0aa23          	sw	a1,180(ra)

0000054c <inst_69>:
     54c:	ffe00537          	lui	a0,0xffe00
     550:	fff50513          	addi	a0,a0,-1 # ffdfffff <immx+0x450f252f>
     554:	ffa52593          	slti	a1,a0,-6
     558:	0ab0ac23          	sw	a1,184(ra)

0000055c <inst_70>:
     55c:	ffc00537          	lui	a0,0xffc00
     560:	fff50513          	addi	a0,a0,-1 # ffbfffff <immx+0x44ef252f>
     564:	55552593          	slti	a1,a0,1365
     568:	0ab0ae23          	sw	a1,188(ra)

0000056c <inst_71>:
     56c:	ff800537          	lui	a0,0xff800
     570:	fff50513          	addi	a0,a0,-1 # ff7fffff <immx+0x44af252f>
     574:	00752593          	slti	a1,a0,7
     578:	0cb0a023          	sw	a1,192(ra)

0000057c <inst_72>:
     57c:	ff000537          	lui	a0,0xff000
     580:	fff50513          	addi	a0,a0,-1 # feffffff <immx+0x442f252f>
     584:	fd352593          	slti	a1,a0,-45
     588:	0cb0a223          	sw	a1,196(ra)

0000058c <inst_73>:
     58c:	fe000537          	lui	a0,0xfe000
     590:	fff50513          	addi	a0,a0,-1 # fdffffff <immx+0x432f252f>
     594:	33452593          	slti	a1,a0,820
     598:	0cb0a423          	sw	a1,200(ra)

0000059c <inst_74>:
     59c:	fc000537          	lui	a0,0xfc000
     5a0:	fff50513          	addi	a0,a0,-1 # fbffffff <immx+0x412f252f>
     5a4:	ffc52593          	slti	a1,a0,-4
     5a8:	0cb0a623          	sw	a1,204(ra)

000005ac <inst_75>:
     5ac:	f8000537          	lui	a0,0xf8000
     5b0:	fff50513          	addi	a0,a0,-1 # f7ffffff <immx+0x3d2f252f>
     5b4:	02d52593          	slti	a1,a0,45
     5b8:	0cb0a823          	sw	a1,208(ra)

000005bc <inst_76>:
     5bc:	e0000537          	lui	a0,0xe0000
     5c0:	fff50513          	addi	a0,a0,-1 # dfffffff <immx+0x252f252f>
     5c4:	01052593          	slti	a1,a0,16
     5c8:	0cb0aa23          	sw	a1,212(ra)

000005cc <inst_77>:
     5cc:	c0000537          	lui	a0,0xc0000
     5d0:	fff50513          	addi	a0,a0,-1 # bfffffff <immx+0x52f252f>
     5d4:	eff52593          	slti	a1,a0,-257
     5d8:	0cb0ac23          	sw	a1,216(ra)

000005dc <inst_78>:
     5dc:	55555537          	lui	a0,0x55555
     5e0:	55550513          	addi	a0,a0,1365 # 55555555 <absimm+0x10263026>
     5e4:	00052593          	slti	a1,a0,0
     5e8:	0cb0ae23          	sw	a1,220(ra)

000005ec <inst_79>:
     5ec:	00300513          	addi	a0,zero,3
     5f0:	00352593          	slti	a1,a0,3
     5f4:	0eb0a023          	sw	a1,224(ra)

000005f8 <inst_80>:
     5f8:	00300513          	addi	a0,zero,3
     5fc:	55552593          	slti	a1,a0,1365
     600:	0eb0a223          	sw	a1,228(ra)

00000604 <inst_81>:
     604:	00300513          	addi	a0,zero,3
     608:	aaa52593          	slti	a1,a0,-1366
     60c:	0eb0a423          	sw	a1,232(ra)

00000610 <inst_82>:
     610:	00300513          	addi	a0,zero,3
     614:	00552593          	slti	a1,a0,5
     618:	0eb0a623          	sw	a1,236(ra)

0000061c <inst_83>:
     61c:	00300513          	addi	a0,zero,3
     620:	33352593          	slti	a1,a0,819
     624:	0eb0a823          	sw	a1,240(ra)

00000628 <inst_84>:
     628:	00300513          	addi	a0,zero,3
     62c:	66652593          	slti	a1,a0,1638
     630:	0eb0aa23          	sw	a1,244(ra)

00000634 <inst_85>:
     634:	00300513          	addi	a0,zero,3
     638:	fd352593          	slti	a1,a0,-45
     63c:	0eb0ac23          	sw	a1,248(ra)

00000640 <inst_86>:
     640:	00300513          	addi	a0,zero,3
     644:	02d52593          	slti	a1,a0,45
     648:	0eb0ae23          	sw	a1,252(ra)

0000064c <inst_87>:
     64c:	00300513          	addi	a0,zero,3
     650:	00252593          	slti	a1,a0,2
     654:	10b0a023          	sw	a1,256(ra)

00000658 <inst_88>:
     658:	00300513          	addi	a0,zero,3
     65c:	55452593          	slti	a1,a0,1364
     660:	10b0a223          	sw	a1,260(ra)

00000664 <inst_89>:
     664:	00300513          	addi	a0,zero,3
     668:	00052593          	slti	a1,a0,0
     66c:	10b0a423          	sw	a1,264(ra)

00000670 <inst_90>:
     670:	00300513          	addi	a0,zero,3
     674:	00452593          	slti	a1,a0,4
     678:	10b0a623          	sw	a1,268(ra)

0000067c <inst_91>:
     67c:	00300513          	addi	a0,zero,3
     680:	33252593          	slti	a1,a0,818
     684:	10b0a823          	sw	a1,272(ra)

00000688 <inst_92>:
     688:	00300513          	addi	a0,zero,3
     68c:	66552593          	slti	a1,a0,1637
     690:	10b0aa23          	sw	a1,276(ra)

00000694 <inst_93>:
     694:	00300513          	addi	a0,zero,3
     698:	02c52593          	slti	a1,a0,44
     69c:	10b0ac23          	sw	a1,280(ra)

000006a0 <inst_94>:
     6a0:	00300513          	addi	a0,zero,3
     6a4:	55652593          	slti	a1,a0,1366
     6a8:	10b0ae23          	sw	a1,284(ra)

000006ac <inst_95>:
     6ac:	00300513          	addi	a0,zero,3
     6b0:	aab52593          	slti	a1,a0,-1365
     6b4:	12b0a023          	sw	a1,288(ra)

000006b8 <inst_96>:
     6b8:	00300513          	addi	a0,zero,3
     6bc:	00652593          	slti	a1,a0,6
     6c0:	12b0a223          	sw	a1,292(ra)

000006c4 <inst_97>:
     6c4:	00300513          	addi	a0,zero,3
     6c8:	33452593          	slti	a1,a0,820
     6cc:	12b0a423          	sw	a1,296(ra)

000006d0 <inst_98>:
     6d0:	00300513          	addi	a0,zero,3
     6d4:	66752593          	slti	a1,a0,1639
     6d8:	12b0a623          	sw	a1,300(ra)

000006dc <inst_99>:
     6dc:	00300513          	addi	a0,zero,3
     6e0:	fd452593          	slti	a1,a0,-44
     6e4:	12b0a823          	sw	a1,304(ra)

000006e8 <inst_100>:
     6e8:	00300513          	addi	a0,zero,3
     6ec:	02e52593          	slti	a1,a0,46
     6f0:	12b0aa23          	sw	a1,308(ra)

000006f4 <inst_101>:
     6f4:	55555537          	lui	a0,0x55555
     6f8:	55550513          	addi	a0,a0,1365 # 55555555 <absimm+0x10263026>
     6fc:	00352593          	slti	a1,a0,3
     700:	12b0ac23          	sw	a1,312(ra)

00000704 <inst_102>:
     704:	55555537          	lui	a0,0x55555
     708:	55550513          	addi	a0,a0,1365 # 55555555 <absimm+0x10263026>
     70c:	55552593          	slti	a1,a0,1365
     710:	12b0ae23          	sw	a1,316(ra)

00000714 <inst_103>:
     714:	55555537          	lui	a0,0x55555
     718:	55550513          	addi	a0,a0,1365 # 55555555 <absimm+0x10263026>
     71c:	aaa52593          	slti	a1,a0,-1366
     720:	14b0a023          	sw	a1,320(ra)

00000724 <inst_104>:
     724:	55555537          	lui	a0,0x55555
     728:	55550513          	addi	a0,a0,1365 # 55555555 <absimm+0x10263026>
     72c:	00552593          	slti	a1,a0,5
     730:	14b0a223          	sw	a1,324(ra)

00000734 <inst_105>:
     734:	55555537          	lui	a0,0x55555
     738:	55550513          	addi	a0,a0,1365 # 55555555 <absimm+0x10263026>
     73c:	33352593          	slti	a1,a0,819
     740:	14b0a423          	sw	a1,328(ra)

00000744 <inst_106>:
     744:	55555537          	lui	a0,0x55555
     748:	55550513          	addi	a0,a0,1365 # 55555555 <absimm+0x10263026>
     74c:	66652593          	slti	a1,a0,1638
     750:	14b0a623          	sw	a1,332(ra)

00000754 <inst_107>:
     754:	55555537          	lui	a0,0x55555
     758:	55550513          	addi	a0,a0,1365 # 55555555 <absimm+0x10263026>
     75c:	fd352593          	slti	a1,a0,-45
     760:	14b0a823          	sw	a1,336(ra)

00000764 <inst_108>:
     764:	55555537          	lui	a0,0x55555
     768:	55550513          	addi	a0,a0,1365 # 55555555 <absimm+0x10263026>
     76c:	02d52593          	slti	a1,a0,45
     770:	14b0aa23          	sw	a1,340(ra)

00000774 <inst_109>:
     774:	55555537          	lui	a0,0x55555
     778:	55550513          	addi	a0,a0,1365 # 55555555 <absimm+0x10263026>
     77c:	00252593          	slti	a1,a0,2
     780:	14b0ac23          	sw	a1,344(ra)

00000784 <inst_110>:
     784:	55555537          	lui	a0,0x55555
     788:	55550513          	addi	a0,a0,1365 # 55555555 <absimm+0x10263026>
     78c:	55452593          	slti	a1,a0,1364
     790:	14b0ae23          	sw	a1,348(ra)

00000794 <inst_111>:
     794:	55555537          	lui	a0,0x55555
     798:	55550513          	addi	a0,a0,1365 # 55555555 <absimm+0x10263026>
     79c:	00452593          	slti	a1,a0,4
     7a0:	16b0a023          	sw	a1,352(ra)

000007a4 <inst_112>:
     7a4:	55555537          	lui	a0,0x55555
     7a8:	55550513          	addi	a0,a0,1365 # 55555555 <absimm+0x10263026>
     7ac:	33252593          	slti	a1,a0,818
     7b0:	16b0a223          	sw	a1,356(ra)

000007b4 <inst_113>:
     7b4:	55555537          	lui	a0,0x55555
     7b8:	55550513          	addi	a0,a0,1365 # 55555555 <absimm+0x10263026>
     7bc:	66552593          	slti	a1,a0,1637
     7c0:	16b0a423          	sw	a1,360(ra)

000007c4 <inst_114>:
     7c4:	55555537          	lui	a0,0x55555
     7c8:	55550513          	addi	a0,a0,1365 # 55555555 <absimm+0x10263026>
     7cc:	02c52593          	slti	a1,a0,44
     7d0:	16b0a623          	sw	a1,364(ra)

000007d4 <inst_115>:
     7d4:	55555537          	lui	a0,0x55555
     7d8:	55550513          	addi	a0,a0,1365 # 55555555 <absimm+0x10263026>
     7dc:	55652593          	slti	a1,a0,1366
     7e0:	16b0a823          	sw	a1,368(ra)

000007e4 <inst_116>:
     7e4:	55555537          	lui	a0,0x55555
     7e8:	55550513          	addi	a0,a0,1365 # 55555555 <absimm+0x10263026>
     7ec:	aab52593          	slti	a1,a0,-1365
     7f0:	16b0aa23          	sw	a1,372(ra)

000007f4 <inst_117>:
     7f4:	55555537          	lui	a0,0x55555
     7f8:	55550513          	addi	a0,a0,1365 # 55555555 <absimm+0x10263026>
     7fc:	00652593          	slti	a1,a0,6
     800:	16b0ac23          	sw	a1,376(ra)

00000804 <inst_118>:
     804:	55555537          	lui	a0,0x55555
     808:	55550513          	addi	a0,a0,1365 # 55555555 <absimm+0x10263026>
     80c:	33452593          	slti	a1,a0,820
     810:	16b0ae23          	sw	a1,380(ra)

00000814 <inst_119>:
     814:	55555537          	lui	a0,0x55555
     818:	55550513          	addi	a0,a0,1365 # 55555555 <absimm+0x10263026>
     81c:	66752593          	slti	a1,a0,1639
     820:	18b0a023          	sw	a1,384(ra)

00000824 <inst_120>:
     824:	55555537          	lui	a0,0x55555
     828:	55550513          	addi	a0,a0,1365 # 55555555 <absimm+0x10263026>
     82c:	fd452593          	slti	a1,a0,-44
     830:	18b0a223          	sw	a1,388(ra)

00000834 <inst_121>:
     834:	55555537          	lui	a0,0x55555
     838:	55550513          	addi	a0,a0,1365 # 55555555 <absimm+0x10263026>
     83c:	02e52593          	slti	a1,a0,46
     840:	18b0a423          	sw	a1,392(ra)

00000844 <inst_122>:
     844:	aaaab537          	lui	a0,0xaaaab
     848:	aaa50513          	addi	a0,a0,-1366 # aaaaaaaa <absimm+0x657b857b>
     84c:	00352593          	slti	a1,a0,3
     850:	18b0a623          	sw	a1,396(ra)

00000854 <inst_123>:
     854:	aaaab537          	lui	a0,0xaaaab
     858:	aaa50513          	addi	a0,a0,-1366 # aaaaaaaa <absimm+0x657b857b>
     85c:	55552593          	slti	a1,a0,1365
     860:	18b0a823          	sw	a1,400(ra)

00000864 <inst_124>:
     864:	aaaab537          	lui	a0,0xaaaab
     868:	aaa50513          	addi	a0,a0,-1366 # aaaaaaaa <absimm+0x657b857b>
     86c:	aaa52593          	slti	a1,a0,-1366
     870:	18b0aa23          	sw	a1,404(ra)

00000874 <inst_125>:
     874:	aaaab537          	lui	a0,0xaaaab
     878:	aaa50513          	addi	a0,a0,-1366 # aaaaaaaa <absimm+0x657b857b>
     87c:	00552593          	slti	a1,a0,5
     880:	18b0ac23          	sw	a1,408(ra)

00000884 <inst_126>:
     884:	aaaab537          	lui	a0,0xaaaab
     888:	aaa50513          	addi	a0,a0,-1366 # aaaaaaaa <absimm+0x657b857b>
     88c:	33352593          	slti	a1,a0,819
     890:	18b0ae23          	sw	a1,412(ra)

00000894 <inst_127>:
     894:	aaaab537          	lui	a0,0xaaaab
     898:	aaa50513          	addi	a0,a0,-1366 # aaaaaaaa <absimm+0x657b857b>
     89c:	66652593          	slti	a1,a0,1638
     8a0:	1ab0a023          	sw	a1,416(ra)

000008a4 <inst_128>:
     8a4:	aaaab537          	lui	a0,0xaaaab
     8a8:	aaa50513          	addi	a0,a0,-1366 # aaaaaaaa <absimm+0x657b857b>
     8ac:	fd352593          	slti	a1,a0,-45
     8b0:	1ab0a223          	sw	a1,420(ra)

000008b4 <inst_129>:
     8b4:	aaaab537          	lui	a0,0xaaaab
     8b8:	aaa50513          	addi	a0,a0,-1366 # aaaaaaaa <absimm+0x657b857b>
     8bc:	02d52593          	slti	a1,a0,45
     8c0:	1ab0a423          	sw	a1,424(ra)

000008c4 <inst_130>:
     8c4:	aaaab537          	lui	a0,0xaaaab
     8c8:	aaa50513          	addi	a0,a0,-1366 # aaaaaaaa <absimm+0x657b857b>
     8cc:	00252593          	slti	a1,a0,2
     8d0:	1ab0a623          	sw	a1,428(ra)

000008d4 <inst_131>:
     8d4:	aaaab537          	lui	a0,0xaaaab
     8d8:	aaa50513          	addi	a0,a0,-1366 # aaaaaaaa <absimm+0x657b857b>
     8dc:	55452593          	slti	a1,a0,1364
     8e0:	1ab0a823          	sw	a1,432(ra)

000008e4 <inst_132>:
     8e4:	aaaab537          	lui	a0,0xaaaab
     8e8:	aaa50513          	addi	a0,a0,-1366 # aaaaaaaa <absimm+0x657b857b>
     8ec:	00052593          	slti	a1,a0,0
     8f0:	1ab0aa23          	sw	a1,436(ra)

000008f4 <inst_133>:
     8f4:	aaaab537          	lui	a0,0xaaaab
     8f8:	aaa50513          	addi	a0,a0,-1366 # aaaaaaaa <absimm+0x657b857b>
     8fc:	00452593          	slti	a1,a0,4
     900:	1ab0ac23          	sw	a1,440(ra)

00000904 <inst_134>:
     904:	aaaab537          	lui	a0,0xaaaab
     908:	aaa50513          	addi	a0,a0,-1366 # aaaaaaaa <absimm+0x657b857b>
     90c:	33252593          	slti	a1,a0,818
     910:	1ab0ae23          	sw	a1,444(ra)

00000914 <inst_135>:
     914:	aaaab537          	lui	a0,0xaaaab
     918:	aaa50513          	addi	a0,a0,-1366 # aaaaaaaa <absimm+0x657b857b>
     91c:	66552593          	slti	a1,a0,1637
     920:	1cb0a023          	sw	a1,448(ra)

00000924 <inst_136>:
     924:	aaaab537          	lui	a0,0xaaaab
     928:	aaa50513          	addi	a0,a0,-1366 # aaaaaaaa <absimm+0x657b857b>
     92c:	02c52593          	slti	a1,a0,44
     930:	1cb0a223          	sw	a1,452(ra)

00000934 <inst_137>:
     934:	aaaab537          	lui	a0,0xaaaab
     938:	aaa50513          	addi	a0,a0,-1366 # aaaaaaaa <absimm+0x657b857b>
     93c:	55652593          	slti	a1,a0,1366
     940:	1cb0a423          	sw	a1,456(ra)

00000944 <inst_138>:
     944:	aaaab537          	lui	a0,0xaaaab
     948:	aaa50513          	addi	a0,a0,-1366 # aaaaaaaa <absimm+0x657b857b>
     94c:	aab52593          	slti	a1,a0,-1365
     950:	1cb0a623          	sw	a1,460(ra)

00000954 <inst_139>:
     954:	aaaab537          	lui	a0,0xaaaab
     958:	aaa50513          	addi	a0,a0,-1366 # aaaaaaaa <absimm+0x657b857b>
     95c:	00652593          	slti	a1,a0,6
     960:	1cb0a823          	sw	a1,464(ra)

00000964 <inst_140>:
     964:	aaaab537          	lui	a0,0xaaaab
     968:	aaa50513          	addi	a0,a0,-1366 # aaaaaaaa <absimm+0x657b857b>
     96c:	33452593          	slti	a1,a0,820
     970:	1cb0aa23          	sw	a1,468(ra)

00000974 <inst_141>:
     974:	aaaab537          	lui	a0,0xaaaab
     978:	aaa50513          	addi	a0,a0,-1366 # aaaaaaaa <absimm+0x657b857b>
     97c:	66752593          	slti	a1,a0,1639
     980:	1cb0ac23          	sw	a1,472(ra)

00000984 <inst_142>:
     984:	aaaab537          	lui	a0,0xaaaab
     988:	aaa50513          	addi	a0,a0,-1366 # aaaaaaaa <absimm+0x657b857b>
     98c:	fd452593          	slti	a1,a0,-44
     990:	1cb0ae23          	sw	a1,476(ra)

00000994 <inst_143>:
     994:	aaaab537          	lui	a0,0xaaaab
     998:	aaa50513          	addi	a0,a0,-1366 # aaaaaaaa <absimm+0x657b857b>
     99c:	02e52593          	slti	a1,a0,46
     9a0:	1eb0a023          	sw	a1,480(ra)

000009a4 <inst_144>:
     9a4:	00500513          	addi	a0,zero,5
     9a8:	00352593          	slti	a1,a0,3
     9ac:	1eb0a223          	sw	a1,484(ra)

000009b0 <inst_145>:
     9b0:	00500513          	addi	a0,zero,5
     9b4:	55552593          	slti	a1,a0,1365
     9b8:	1eb0a423          	sw	a1,488(ra)

000009bc <inst_146>:
     9bc:	00500513          	addi	a0,zero,5
     9c0:	aaa52593          	slti	a1,a0,-1366
     9c4:	1eb0a623          	sw	a1,492(ra)

000009c8 <inst_147>:
     9c8:	00500513          	addi	a0,zero,5
     9cc:	00552593          	slti	a1,a0,5
     9d0:	1eb0a823          	sw	a1,496(ra)

000009d4 <inst_148>:
     9d4:	00500513          	addi	a0,zero,5
     9d8:	33352593          	slti	a1,a0,819
     9dc:	1eb0aa23          	sw	a1,500(ra)

000009e0 <inst_149>:
     9e0:	00500513          	addi	a0,zero,5
     9e4:	66652593          	slti	a1,a0,1638
     9e8:	1eb0ac23          	sw	a1,504(ra)

000009ec <inst_150>:
     9ec:	00500513          	addi	a0,zero,5
     9f0:	fd352593          	slti	a1,a0,-45
     9f4:	1eb0ae23          	sw	a1,508(ra)

000009f8 <inst_151>:
     9f8:	00500513          	addi	a0,zero,5
     9fc:	02d52593          	slti	a1,a0,45
     a00:	20b0a023          	sw	a1,512(ra)

00000a04 <inst_152>:
     a04:	00500513          	addi	a0,zero,5
     a08:	00252593          	slti	a1,a0,2
     a0c:	20b0a223          	sw	a1,516(ra)

00000a10 <inst_153>:
     a10:	00500513          	addi	a0,zero,5
     a14:	55452593          	slti	a1,a0,1364
     a18:	20b0a423          	sw	a1,520(ra)

00000a1c <inst_154>:
     a1c:	00500513          	addi	a0,zero,5
     a20:	00052593          	slti	a1,a0,0
     a24:	20b0a623          	sw	a1,524(ra)

00000a28 <inst_155>:
     a28:	00500513          	addi	a0,zero,5
     a2c:	00452593          	slti	a1,a0,4
     a30:	20b0a823          	sw	a1,528(ra)

00000a34 <inst_156>:
     a34:	00500513          	addi	a0,zero,5
     a38:	33252593          	slti	a1,a0,818
     a3c:	20b0aa23          	sw	a1,532(ra)

00000a40 <inst_157>:
     a40:	00500513          	addi	a0,zero,5
     a44:	66552593          	slti	a1,a0,1637
     a48:	20b0ac23          	sw	a1,536(ra)

00000a4c <inst_158>:
     a4c:	00500513          	addi	a0,zero,5
     a50:	02c52593          	slti	a1,a0,44
     a54:	20b0ae23          	sw	a1,540(ra)

00000a58 <inst_159>:
     a58:	00500513          	addi	a0,zero,5
     a5c:	55652593          	slti	a1,a0,1366
     a60:	22b0a023          	sw	a1,544(ra)

00000a64 <inst_160>:
     a64:	00500513          	addi	a0,zero,5
     a68:	aab52593          	slti	a1,a0,-1365
     a6c:	22b0a223          	sw	a1,548(ra)

00000a70 <inst_161>:
     a70:	00500513          	addi	a0,zero,5
     a74:	00652593          	slti	a1,a0,6
     a78:	22b0a423          	sw	a1,552(ra)

00000a7c <inst_162>:
     a7c:	00500513          	addi	a0,zero,5
     a80:	33452593          	slti	a1,a0,820
     a84:	22b0a623          	sw	a1,556(ra)

00000a88 <inst_163>:
     a88:	00500513          	addi	a0,zero,5
     a8c:	66752593          	slti	a1,a0,1639
     a90:	22b0a823          	sw	a1,560(ra)

00000a94 <inst_164>:
     a94:	00500513          	addi	a0,zero,5
     a98:	fd452593          	slti	a1,a0,-44
     a9c:	22b0aa23          	sw	a1,564(ra)

00000aa0 <inst_165>:
     aa0:	00500513          	addi	a0,zero,5
     aa4:	02e52593          	slti	a1,a0,46
     aa8:	22b0ac23          	sw	a1,568(ra)

00000aac <inst_166>:
     aac:	33333537          	lui	a0,0x33333
     ab0:	33350513          	addi	a0,a0,819 # 33333333 <_end+0x3332982b>
     ab4:	00352593          	slti	a1,a0,3
     ab8:	22b0ae23          	sw	a1,572(ra)

00000abc <inst_167>:
     abc:	33333537          	lui	a0,0x33333
     ac0:	33350513          	addi	a0,a0,819 # 33333333 <_end+0x3332982b>
     ac4:	55552593          	slti	a1,a0,1365
     ac8:	24b0a023          	sw	a1,576(ra)

00000acc <inst_168>:
     acc:	33333537          	lui	a0,0x33333
     ad0:	33350513          	addi	a0,a0,819 # 33333333 <_end+0x3332982b>
     ad4:	aaa52593          	slti	a1,a0,-1366
     ad8:	24b0a223          	sw	a1,580(ra)

00000adc <inst_169>:
     adc:	33333537          	lui	a0,0x33333
     ae0:	33350513          	addi	a0,a0,819 # 33333333 <_end+0x3332982b>
     ae4:	00552593          	slti	a1,a0,5
     ae8:	24b0a423          	sw	a1,584(ra)

00000aec <inst_170>:
     aec:	33333537          	lui	a0,0x33333
     af0:	33350513          	addi	a0,a0,819 # 33333333 <_end+0x3332982b>
     af4:	33352593          	slti	a1,a0,819
     af8:	24b0a623          	sw	a1,588(ra)

00000afc <inst_171>:
     afc:	33333537          	lui	a0,0x33333
     b00:	33350513          	addi	a0,a0,819 # 33333333 <_end+0x3332982b>
     b04:	66652593          	slti	a1,a0,1638
     b08:	24b0a823          	sw	a1,592(ra)

00000b0c <inst_172>:
     b0c:	33333537          	lui	a0,0x33333
     b10:	33350513          	addi	a0,a0,819 # 33333333 <_end+0x3332982b>
     b14:	fd352593          	slti	a1,a0,-45
     b18:	24b0aa23          	sw	a1,596(ra)

00000b1c <inst_173>:
     b1c:	33333537          	lui	a0,0x33333
     b20:	33350513          	addi	a0,a0,819 # 33333333 <_end+0x3332982b>
     b24:	02d52593          	slti	a1,a0,45
     b28:	24b0ac23          	sw	a1,600(ra)

00000b2c <inst_174>:
     b2c:	33333537          	lui	a0,0x33333
     b30:	33350513          	addi	a0,a0,819 # 33333333 <_end+0x3332982b>
     b34:	00252593          	slti	a1,a0,2
     b38:	24b0ae23          	sw	a1,604(ra)

00000b3c <inst_175>:
     b3c:	33333537          	lui	a0,0x33333
     b40:	33350513          	addi	a0,a0,819 # 33333333 <_end+0x3332982b>
     b44:	55452593          	slti	a1,a0,1364
     b48:	26b0a023          	sw	a1,608(ra)

00000b4c <inst_176>:
     b4c:	33333537          	lui	a0,0x33333
     b50:	33350513          	addi	a0,a0,819 # 33333333 <_end+0x3332982b>
     b54:	00052593          	slti	a1,a0,0
     b58:	26b0a223          	sw	a1,612(ra)

00000b5c <inst_177>:
     b5c:	33333537          	lui	a0,0x33333
     b60:	33350513          	addi	a0,a0,819 # 33333333 <_end+0x3332982b>
     b64:	00452593          	slti	a1,a0,4
     b68:	26b0a423          	sw	a1,616(ra)

00000b6c <inst_178>:
     b6c:	33333537          	lui	a0,0x33333
     b70:	33350513          	addi	a0,a0,819 # 33333333 <_end+0x3332982b>
     b74:	33252593          	slti	a1,a0,818
     b78:	26b0a623          	sw	a1,620(ra)

00000b7c <inst_179>:
     b7c:	33333537          	lui	a0,0x33333
     b80:	33350513          	addi	a0,a0,819 # 33333333 <_end+0x3332982b>
     b84:	66552593          	slti	a1,a0,1637
     b88:	26b0a823          	sw	a1,624(ra)

00000b8c <inst_180>:
     b8c:	33333537          	lui	a0,0x33333
     b90:	33350513          	addi	a0,a0,819 # 33333333 <_end+0x3332982b>
     b94:	02c52593          	slti	a1,a0,44
     b98:	26b0aa23          	sw	a1,628(ra)

00000b9c <inst_181>:
     b9c:	33333537          	lui	a0,0x33333
     ba0:	33350513          	addi	a0,a0,819 # 33333333 <_end+0x3332982b>
     ba4:	55652593          	slti	a1,a0,1366
     ba8:	26b0ac23          	sw	a1,632(ra)

00000bac <inst_182>:
     bac:	33333537          	lui	a0,0x33333
     bb0:	33350513          	addi	a0,a0,819 # 33333333 <_end+0x3332982b>
     bb4:	aab52593          	slti	a1,a0,-1365
     bb8:	26b0ae23          	sw	a1,636(ra)

00000bbc <inst_183>:
     bbc:	33333537          	lui	a0,0x33333
     bc0:	33350513          	addi	a0,a0,819 # 33333333 <_end+0x3332982b>
     bc4:	00652593          	slti	a1,a0,6
     bc8:	28b0a023          	sw	a1,640(ra)

00000bcc <inst_184>:
     bcc:	33333537          	lui	a0,0x33333
     bd0:	33350513          	addi	a0,a0,819 # 33333333 <_end+0x3332982b>
     bd4:	33452593          	slti	a1,a0,820
     bd8:	28b0a223          	sw	a1,644(ra)

00000bdc <inst_185>:
     bdc:	33333537          	lui	a0,0x33333
     be0:	33350513          	addi	a0,a0,819 # 33333333 <_end+0x3332982b>
     be4:	66752593          	slti	a1,a0,1639
     be8:	28b0a423          	sw	a1,648(ra)

00000bec <inst_186>:
     bec:	33333537          	lui	a0,0x33333
     bf0:	33350513          	addi	a0,a0,819 # 33333333 <_end+0x3332982b>
     bf4:	fd452593          	slti	a1,a0,-44
     bf8:	28b0a623          	sw	a1,652(ra)

00000bfc <inst_187>:
     bfc:	33333537          	lui	a0,0x33333
     c00:	33350513          	addi	a0,a0,819 # 33333333 <_end+0x3332982b>
     c04:	02e52593          	slti	a1,a0,46
     c08:	28b0a823          	sw	a1,656(ra)

00000c0c <inst_188>:
     c0c:	66666537          	lui	a0,0x66666
     c10:	66650513          	addi	a0,a0,1638 # 66666666 <absimm+0x21374137>
     c14:	00352593          	slti	a1,a0,3
     c18:	28b0aa23          	sw	a1,660(ra)

00000c1c <inst_189>:
     c1c:	66666537          	lui	a0,0x66666
     c20:	66650513          	addi	a0,a0,1638 # 66666666 <absimm+0x21374137>
     c24:	55552593          	slti	a1,a0,1365
     c28:	28b0ac23          	sw	a1,664(ra)

00000c2c <inst_190>:
     c2c:	66666537          	lui	a0,0x66666
     c30:	66650513          	addi	a0,a0,1638 # 66666666 <absimm+0x21374137>
     c34:	aaa52593          	slti	a1,a0,-1366
     c38:	28b0ae23          	sw	a1,668(ra)

00000c3c <inst_191>:
     c3c:	66666537          	lui	a0,0x66666
     c40:	66650513          	addi	a0,a0,1638 # 66666666 <absimm+0x21374137>
     c44:	00552593          	slti	a1,a0,5
     c48:	2ab0a023          	sw	a1,672(ra)

00000c4c <inst_192>:
     c4c:	66666537          	lui	a0,0x66666
     c50:	66650513          	addi	a0,a0,1638 # 66666666 <absimm+0x21374137>
     c54:	33352593          	slti	a1,a0,819
     c58:	2ab0a223          	sw	a1,676(ra)

00000c5c <inst_193>:
     c5c:	66666537          	lui	a0,0x66666
     c60:	66650513          	addi	a0,a0,1638 # 66666666 <absimm+0x21374137>
     c64:	66652593          	slti	a1,a0,1638
     c68:	2ab0a423          	sw	a1,680(ra)

00000c6c <inst_194>:
     c6c:	66666537          	lui	a0,0x66666
     c70:	66650513          	addi	a0,a0,1638 # 66666666 <absimm+0x21374137>
     c74:	fd352593          	slti	a1,a0,-45
     c78:	2ab0a623          	sw	a1,684(ra)

00000c7c <inst_195>:
     c7c:	66666537          	lui	a0,0x66666
     c80:	66650513          	addi	a0,a0,1638 # 66666666 <absimm+0x21374137>
     c84:	02d52593          	slti	a1,a0,45
     c88:	2ab0a823          	sw	a1,688(ra)

00000c8c <inst_196>:
     c8c:	66666537          	lui	a0,0x66666
     c90:	66650513          	addi	a0,a0,1638 # 66666666 <absimm+0x21374137>
     c94:	00252593          	slti	a1,a0,2
     c98:	2ab0aa23          	sw	a1,692(ra)

00000c9c <inst_197>:
     c9c:	66666537          	lui	a0,0x66666
     ca0:	66650513          	addi	a0,a0,1638 # 66666666 <absimm+0x21374137>
     ca4:	55452593          	slti	a1,a0,1364
     ca8:	2ab0ac23          	sw	a1,696(ra)

00000cac <inst_198>:
     cac:	66666537          	lui	a0,0x66666
     cb0:	66650513          	addi	a0,a0,1638 # 66666666 <absimm+0x21374137>
     cb4:	00052593          	slti	a1,a0,0
     cb8:	2ab0ae23          	sw	a1,700(ra)

00000cbc <inst_199>:
     cbc:	66666537          	lui	a0,0x66666
     cc0:	66650513          	addi	a0,a0,1638 # 66666666 <absimm+0x21374137>
     cc4:	00452593          	slti	a1,a0,4
     cc8:	2cb0a023          	sw	a1,704(ra)

00000ccc <inst_200>:
     ccc:	66666537          	lui	a0,0x66666
     cd0:	66650513          	addi	a0,a0,1638 # 66666666 <absimm+0x21374137>
     cd4:	33252593          	slti	a1,a0,818
     cd8:	2cb0a223          	sw	a1,708(ra)

00000cdc <inst_201>:
     cdc:	66666537          	lui	a0,0x66666
     ce0:	66650513          	addi	a0,a0,1638 # 66666666 <absimm+0x21374137>
     ce4:	66552593          	slti	a1,a0,1637
     ce8:	2cb0a423          	sw	a1,712(ra)

00000cec <inst_202>:
     cec:	66666537          	lui	a0,0x66666
     cf0:	66650513          	addi	a0,a0,1638 # 66666666 <absimm+0x21374137>
     cf4:	02c52593          	slti	a1,a0,44
     cf8:	2cb0a623          	sw	a1,716(ra)

00000cfc <inst_203>:
     cfc:	66666537          	lui	a0,0x66666
     d00:	66650513          	addi	a0,a0,1638 # 66666666 <absimm+0x21374137>
     d04:	55652593          	slti	a1,a0,1366
     d08:	2cb0a823          	sw	a1,720(ra)

00000d0c <inst_204>:
     d0c:	66666537          	lui	a0,0x66666
     d10:	66650513          	addi	a0,a0,1638 # 66666666 <absimm+0x21374137>
     d14:	aab52593          	slti	a1,a0,-1365
     d18:	2cb0aa23          	sw	a1,724(ra)

00000d1c <inst_205>:
     d1c:	66666537          	lui	a0,0x66666
     d20:	66650513          	addi	a0,a0,1638 # 66666666 <absimm+0x21374137>
     d24:	00652593          	slti	a1,a0,6
     d28:	2cb0ac23          	sw	a1,728(ra)

00000d2c <inst_206>:
     d2c:	66666537          	lui	a0,0x66666
     d30:	66650513          	addi	a0,a0,1638 # 66666666 <absimm+0x21374137>
     d34:	33452593          	slti	a1,a0,820
     d38:	2cb0ae23          	sw	a1,732(ra)

00000d3c <inst_207>:
     d3c:	66666537          	lui	a0,0x66666
     d40:	66650513          	addi	a0,a0,1638 # 66666666 <absimm+0x21374137>
     d44:	66752593          	slti	a1,a0,1639
     d48:	2eb0a023          	sw	a1,736(ra)

00000d4c <inst_208>:
     d4c:	66666537          	lui	a0,0x66666
     d50:	66650513          	addi	a0,a0,1638 # 66666666 <absimm+0x21374137>
     d54:	fd452593          	slti	a1,a0,-44
     d58:	2eb0a223          	sw	a1,740(ra)

00000d5c <inst_209>:
     d5c:	66666537          	lui	a0,0x66666
     d60:	66650513          	addi	a0,a0,1638 # 66666666 <absimm+0x21374137>
     d64:	02e52593          	slti	a1,a0,46
     d68:	2eb0a423          	sw	a1,744(ra)

00000d6c <inst_210>:
     d6c:	ffff5537          	lui	a0,0xffff5
     d70:	afc50513          	addi	a0,a0,-1284 # ffff4afc <immx+0x452e702c>
     d74:	00352593          	slti	a1,a0,3
     d78:	2eb0a623          	sw	a1,748(ra)

00000d7c <inst_211>:
     d7c:	ffff5537          	lui	a0,0xffff5
     d80:	afc50513          	addi	a0,a0,-1284 # ffff4afc <immx+0x452e702c>
     d84:	55552593          	slti	a1,a0,1365
     d88:	2eb0a823          	sw	a1,752(ra)

00000d8c <inst_212>:
     d8c:	ffff5537          	lui	a0,0xffff5
     d90:	afc50513          	addi	a0,a0,-1284 # ffff4afc <immx+0x452e702c>
     d94:	aaa52593          	slti	a1,a0,-1366
     d98:	2eb0aa23          	sw	a1,756(ra)

00000d9c <inst_213>:
     d9c:	ffff5537          	lui	a0,0xffff5
     da0:	afc50513          	addi	a0,a0,-1284 # ffff4afc <immx+0x452e702c>
     da4:	00552593          	slti	a1,a0,5
     da8:	2eb0ac23          	sw	a1,760(ra)

00000dac <inst_214>:
     dac:	ffff5537          	lui	a0,0xffff5
     db0:	afc50513          	addi	a0,a0,-1284 # ffff4afc <immx+0x452e702c>
     db4:	33352593          	slti	a1,a0,819
     db8:	2eb0ae23          	sw	a1,764(ra)

00000dbc <inst_215>:
     dbc:	ffff5537          	lui	a0,0xffff5
     dc0:	afc50513          	addi	a0,a0,-1284 # ffff4afc <immx+0x452e702c>
     dc4:	66652593          	slti	a1,a0,1638
     dc8:	30b0a023          	sw	a1,768(ra)

00000dcc <inst_216>:
     dcc:	ffff5537          	lui	a0,0xffff5
     dd0:	afc50513          	addi	a0,a0,-1284 # ffff4afc <immx+0x452e702c>
     dd4:	fd352593          	slti	a1,a0,-45
     dd8:	30b0a223          	sw	a1,772(ra)

00000ddc <inst_217>:
     ddc:	ffff5537          	lui	a0,0xffff5
     de0:	afc50513          	addi	a0,a0,-1284 # ffff4afc <immx+0x452e702c>
     de4:	02d52593          	slti	a1,a0,45
     de8:	30b0a423          	sw	a1,776(ra)

00000dec <inst_218>:
     dec:	ffff5537          	lui	a0,0xffff5
     df0:	afc50513          	addi	a0,a0,-1284 # ffff4afc <immx+0x452e702c>
     df4:	00252593          	slti	a1,a0,2
     df8:	30b0a623          	sw	a1,780(ra)

00000dfc <inst_219>:
     dfc:	ffff5537          	lui	a0,0xffff5
     e00:	afc50513          	addi	a0,a0,-1284 # ffff4afc <immx+0x452e702c>
     e04:	55452593          	slti	a1,a0,1364
     e08:	30b0a823          	sw	a1,784(ra)

00000e0c <inst_220>:
     e0c:	ffff5537          	lui	a0,0xffff5
     e10:	afc50513          	addi	a0,a0,-1284 # ffff4afc <immx+0x452e702c>
     e14:	00052593          	slti	a1,a0,0
     e18:	30b0aa23          	sw	a1,788(ra)

00000e1c <inst_221>:
     e1c:	ffff5537          	lui	a0,0xffff5
     e20:	afc50513          	addi	a0,a0,-1284 # ffff4afc <immx+0x452e702c>
     e24:	00452593          	slti	a1,a0,4
     e28:	30b0ac23          	sw	a1,792(ra)

00000e2c <inst_222>:
     e2c:	ffff5537          	lui	a0,0xffff5
     e30:	afc50513          	addi	a0,a0,-1284 # ffff4afc <immx+0x452e702c>
     e34:	33252593          	slti	a1,a0,818
     e38:	30b0ae23          	sw	a1,796(ra)

00000e3c <inst_223>:
     e3c:	ffff5537          	lui	a0,0xffff5
     e40:	afc50513          	addi	a0,a0,-1284 # ffff4afc <immx+0x452e702c>
     e44:	66552593          	slti	a1,a0,1637
     e48:	32b0a023          	sw	a1,800(ra)

00000e4c <inst_224>:
     e4c:	ffff5537          	lui	a0,0xffff5
     e50:	afc50513          	addi	a0,a0,-1284 # ffff4afc <immx+0x452e702c>
     e54:	02c52593          	slti	a1,a0,44
     e58:	32b0a223          	sw	a1,804(ra)

00000e5c <inst_225>:
     e5c:	ffff5537          	lui	a0,0xffff5
     e60:	afc50513          	addi	a0,a0,-1284 # ffff4afc <immx+0x452e702c>
     e64:	55652593          	slti	a1,a0,1366
     e68:	32b0a423          	sw	a1,808(ra)

00000e6c <inst_226>:
     e6c:	ffff5537          	lui	a0,0xffff5
     e70:	afc50513          	addi	a0,a0,-1284 # ffff4afc <immx+0x452e702c>
     e74:	aab52593          	slti	a1,a0,-1365
     e78:	32b0a623          	sw	a1,812(ra)

00000e7c <inst_227>:
     e7c:	ffff5537          	lui	a0,0xffff5
     e80:	afc50513          	addi	a0,a0,-1284 # ffff4afc <immx+0x452e702c>
     e84:	00652593          	slti	a1,a0,6
     e88:	32b0a823          	sw	a1,816(ra)

00000e8c <inst_228>:
     e8c:	ffff5537          	lui	a0,0xffff5
     e90:	afc50513          	addi	a0,a0,-1284 # ffff4afc <immx+0x452e702c>
     e94:	33452593          	slti	a1,a0,820
     e98:	32b0aa23          	sw	a1,820(ra)

00000e9c <inst_229>:
     e9c:	ffff5537          	lui	a0,0xffff5
     ea0:	afc50513          	addi	a0,a0,-1284 # ffff4afc <immx+0x452e702c>
     ea4:	66752593          	slti	a1,a0,1639
     ea8:	32b0ac23          	sw	a1,824(ra)

00000eac <inst_230>:
     eac:	ffff5537          	lui	a0,0xffff5
     eb0:	afc50513          	addi	a0,a0,-1284 # ffff4afc <immx+0x452e702c>
     eb4:	fd452593          	slti	a1,a0,-44
     eb8:	32b0ae23          	sw	a1,828(ra)

00000ebc <inst_231>:
     ebc:	ffff5537          	lui	a0,0xffff5
     ec0:	afc50513          	addi	a0,a0,-1284 # ffff4afc <immx+0x452e702c>
     ec4:	02e52593          	slti	a1,a0,46
     ec8:	34b0a023          	sw	a1,832(ra)

00000ecc <inst_232>:
     ecc:	0000b537          	lui	a0,0xb
     ed0:	50450513          	addi	a0,a0,1284 # b504 <_end+0x19fc>
     ed4:	00352593          	slti	a1,a0,3
     ed8:	34b0a223          	sw	a1,836(ra)

00000edc <inst_233>:
     edc:	0000b537          	lui	a0,0xb
     ee0:	50450513          	addi	a0,a0,1284 # b504 <_end+0x19fc>
     ee4:	55552593          	slti	a1,a0,1365
     ee8:	34b0a423          	sw	a1,840(ra)

00000eec <inst_234>:
     eec:	0000b537          	lui	a0,0xb
     ef0:	50450513          	addi	a0,a0,1284 # b504 <_end+0x19fc>
     ef4:	aaa52593          	slti	a1,a0,-1366
     ef8:	34b0a623          	sw	a1,844(ra)

00000efc <inst_235>:
     efc:	0000b537          	lui	a0,0xb
     f00:	50450513          	addi	a0,a0,1284 # b504 <_end+0x19fc>
     f04:	00552593          	slti	a1,a0,5
     f08:	34b0a823          	sw	a1,848(ra)

00000f0c <inst_236>:
     f0c:	0000b537          	lui	a0,0xb
     f10:	50450513          	addi	a0,a0,1284 # b504 <_end+0x19fc>
     f14:	33352593          	slti	a1,a0,819
     f18:	34b0aa23          	sw	a1,852(ra)

00000f1c <inst_237>:
     f1c:	0000b537          	lui	a0,0xb
     f20:	50450513          	addi	a0,a0,1284 # b504 <_end+0x19fc>
     f24:	66652593          	slti	a1,a0,1638
     f28:	34b0ac23          	sw	a1,856(ra)

00000f2c <inst_238>:
     f2c:	0000b537          	lui	a0,0xb
     f30:	50450513          	addi	a0,a0,1284 # b504 <_end+0x19fc>
     f34:	fd352593          	slti	a1,a0,-45
     f38:	34b0ae23          	sw	a1,860(ra)

00000f3c <inst_239>:
     f3c:	0000b537          	lui	a0,0xb
     f40:	50450513          	addi	a0,a0,1284 # b504 <_end+0x19fc>
     f44:	02d52593          	slti	a1,a0,45
     f48:	36b0a023          	sw	a1,864(ra)

00000f4c <inst_240>:
     f4c:	0000b537          	lui	a0,0xb
     f50:	50450513          	addi	a0,a0,1284 # b504 <_end+0x19fc>
     f54:	00252593          	slti	a1,a0,2
     f58:	36b0a223          	sw	a1,868(ra)

00000f5c <inst_241>:
     f5c:	0000b537          	lui	a0,0xb
     f60:	50450513          	addi	a0,a0,1284 # b504 <_end+0x19fc>
     f64:	55452593          	slti	a1,a0,1364
     f68:	36b0a423          	sw	a1,872(ra)

00000f6c <inst_242>:
     f6c:	0000b537          	lui	a0,0xb
     f70:	50450513          	addi	a0,a0,1284 # b504 <_end+0x19fc>
     f74:	00052593          	slti	a1,a0,0
     f78:	36b0a623          	sw	a1,876(ra)

00000f7c <inst_243>:
     f7c:	0000b537          	lui	a0,0xb
     f80:	50450513          	addi	a0,a0,1284 # b504 <_end+0x19fc>
     f84:	00452593          	slti	a1,a0,4
     f88:	36b0a823          	sw	a1,880(ra)

00000f8c <inst_244>:
     f8c:	0000b537          	lui	a0,0xb
     f90:	50450513          	addi	a0,a0,1284 # b504 <_end+0x19fc>
     f94:	33252593          	slti	a1,a0,818
     f98:	36b0aa23          	sw	a1,884(ra)

00000f9c <inst_245>:
     f9c:	0000b537          	lui	a0,0xb
     fa0:	50450513          	addi	a0,a0,1284 # b504 <_end+0x19fc>
     fa4:	66552593          	slti	a1,a0,1637
     fa8:	36b0ac23          	sw	a1,888(ra)

00000fac <inst_246>:
     fac:	0000b537          	lui	a0,0xb
     fb0:	50450513          	addi	a0,a0,1284 # b504 <_end+0x19fc>
     fb4:	02c52593          	slti	a1,a0,44
     fb8:	36b0ae23          	sw	a1,892(ra)

00000fbc <inst_247>:
     fbc:	0000b537          	lui	a0,0xb
     fc0:	50450513          	addi	a0,a0,1284 # b504 <_end+0x19fc>
     fc4:	55652593          	slti	a1,a0,1366
     fc8:	38b0a023          	sw	a1,896(ra)

00000fcc <inst_248>:
     fcc:	0000b537          	lui	a0,0xb
     fd0:	50450513          	addi	a0,a0,1284 # b504 <_end+0x19fc>
     fd4:	aab52593          	slti	a1,a0,-1365
     fd8:	38b0a223          	sw	a1,900(ra)

00000fdc <inst_249>:
     fdc:	0000b537          	lui	a0,0xb
     fe0:	50450513          	addi	a0,a0,1284 # b504 <_end+0x19fc>
     fe4:	00652593          	slti	a1,a0,6
     fe8:	38b0a423          	sw	a1,904(ra)

00000fec <inst_250>:
     fec:	0000b537          	lui	a0,0xb
     ff0:	50450513          	addi	a0,a0,1284 # b504 <_end+0x19fc>
     ff4:	33452593          	slti	a1,a0,820
     ff8:	38b0a623          	sw	a1,908(ra)

00000ffc <inst_251>:
     ffc:	0000b537          	lui	a0,0xb
    1000:	50450513          	addi	a0,a0,1284 # b504 <_end+0x19fc>
    1004:	66752593          	slti	a1,a0,1639
    1008:	38b0a823          	sw	a1,912(ra)

0000100c <inst_252>:
    100c:	0000b537          	lui	a0,0xb
    1010:	50450513          	addi	a0,a0,1284 # b504 <_end+0x19fc>
    1014:	fd452593          	slti	a1,a0,-44
    1018:	38b0aa23          	sw	a1,916(ra)

0000101c <inst_253>:
    101c:	0000b537          	lui	a0,0xb
    1020:	50450513          	addi	a0,a0,1284 # b504 <_end+0x19fc>
    1024:	02e52593          	slti	a1,a0,46
    1028:	38b0ac23          	sw	a1,920(ra)

0000102c <inst_254>:
    102c:	00200513          	addi	a0,zero,2
    1030:	00352593          	slti	a1,a0,3
    1034:	38b0ae23          	sw	a1,924(ra)

00001038 <inst_255>:
    1038:	00200513          	addi	a0,zero,2
    103c:	55552593          	slti	a1,a0,1365
    1040:	3ab0a023          	sw	a1,928(ra)

00001044 <inst_256>:
    1044:	00200513          	addi	a0,zero,2
    1048:	aaa52593          	slti	a1,a0,-1366
    104c:	3ab0a223          	sw	a1,932(ra)

00001050 <inst_257>:
    1050:	00200513          	addi	a0,zero,2
    1054:	00552593          	slti	a1,a0,5
    1058:	3ab0a423          	sw	a1,936(ra)

0000105c <inst_258>:
    105c:	00200513          	addi	a0,zero,2
    1060:	33352593          	slti	a1,a0,819
    1064:	3ab0a623          	sw	a1,940(ra)

00001068 <inst_259>:
    1068:	00200513          	addi	a0,zero,2
    106c:	66652593          	slti	a1,a0,1638
    1070:	3ab0a823          	sw	a1,944(ra)

00001074 <inst_260>:
    1074:	00200513          	addi	a0,zero,2
    1078:	fd352593          	slti	a1,a0,-45
    107c:	3ab0aa23          	sw	a1,948(ra)

00001080 <inst_261>:
    1080:	00200513          	addi	a0,zero,2
    1084:	02d52593          	slti	a1,a0,45
    1088:	3ab0ac23          	sw	a1,952(ra)

0000108c <inst_262>:
    108c:	00200513          	addi	a0,zero,2
    1090:	00252593          	slti	a1,a0,2
    1094:	3ab0ae23          	sw	a1,956(ra)

00001098 <inst_263>:
    1098:	00200513          	addi	a0,zero,2
    109c:	55452593          	slti	a1,a0,1364
    10a0:	3cb0a023          	sw	a1,960(ra)

000010a4 <inst_264>:
    10a4:	00200513          	addi	a0,zero,2
    10a8:	00052593          	slti	a1,a0,0
    10ac:	3cb0a223          	sw	a1,964(ra)

000010b0 <inst_265>:
    10b0:	00200513          	addi	a0,zero,2
    10b4:	00452593          	slti	a1,a0,4
    10b8:	3cb0a423          	sw	a1,968(ra)

000010bc <inst_266>:
    10bc:	00200513          	addi	a0,zero,2
    10c0:	33252593          	slti	a1,a0,818
    10c4:	3cb0a623          	sw	a1,972(ra)

000010c8 <inst_267>:
    10c8:	00200513          	addi	a0,zero,2
    10cc:	66552593          	slti	a1,a0,1637
    10d0:	3cb0a823          	sw	a1,976(ra)

000010d4 <inst_268>:
    10d4:	00200513          	addi	a0,zero,2
    10d8:	02c52593          	slti	a1,a0,44
    10dc:	3cb0aa23          	sw	a1,980(ra)

000010e0 <inst_269>:
    10e0:	00200513          	addi	a0,zero,2
    10e4:	55652593          	slti	a1,a0,1366
    10e8:	3cb0ac23          	sw	a1,984(ra)

000010ec <inst_270>:
    10ec:	00200513          	addi	a0,zero,2
    10f0:	aab52593          	slti	a1,a0,-1365
    10f4:	3cb0ae23          	sw	a1,988(ra)

000010f8 <inst_271>:
    10f8:	00200513          	addi	a0,zero,2
    10fc:	00652593          	slti	a1,a0,6
    1100:	3eb0a023          	sw	a1,992(ra)

00001104 <inst_272>:
    1104:	00200513          	addi	a0,zero,2
    1108:	33452593          	slti	a1,a0,820
    110c:	3eb0a223          	sw	a1,996(ra)

00001110 <inst_273>:
    1110:	00200513          	addi	a0,zero,2
    1114:	66752593          	slti	a1,a0,1639
    1118:	3eb0a423          	sw	a1,1000(ra)

0000111c <inst_274>:
    111c:	00200513          	addi	a0,zero,2
    1120:	fd452593          	slti	a1,a0,-44
    1124:	3eb0a623          	sw	a1,1004(ra)

00001128 <inst_275>:
    1128:	00200513          	addi	a0,zero,2
    112c:	02e52593          	slti	a1,a0,46
    1130:	3eb0a823          	sw	a1,1008(ra)

00001134 <inst_276>:
    1134:	55555537          	lui	a0,0x55555
    1138:	55450513          	addi	a0,a0,1364 # 55555554 <absimm+0x10263025>
    113c:	00352593          	slti	a1,a0,3
    1140:	3eb0aa23          	sw	a1,1012(ra)

00001144 <inst_277>:
    1144:	55555537          	lui	a0,0x55555
    1148:	55450513          	addi	a0,a0,1364 # 55555554 <absimm+0x10263025>
    114c:	55552593          	slti	a1,a0,1365
    1150:	3eb0ac23          	sw	a1,1016(ra)

00001154 <inst_278>:
    1154:	55555537          	lui	a0,0x55555
    1158:	55450513          	addi	a0,a0,1364 # 55555554 <absimm+0x10263025>
    115c:	aaa52593          	slti	a1,a0,-1366
    1160:	3eb0ae23          	sw	a1,1020(ra)

00001164 <inst_279>:
    1164:	55555537          	lui	a0,0x55555
    1168:	55450513          	addi	a0,a0,1364 # 55555554 <absimm+0x10263025>
    116c:	00552593          	slti	a1,a0,5
    1170:	40b0a023          	sw	a1,1024(ra)

00001174 <inst_280>:
    1174:	55555537          	lui	a0,0x55555
    1178:	55450513          	addi	a0,a0,1364 # 55555554 <absimm+0x10263025>
    117c:	33352593          	slti	a1,a0,819
    1180:	40b0a223          	sw	a1,1028(ra)

00001184 <inst_281>:
    1184:	55555537          	lui	a0,0x55555
    1188:	55450513          	addi	a0,a0,1364 # 55555554 <absimm+0x10263025>
    118c:	66652593          	slti	a1,a0,1638
    1190:	40b0a423          	sw	a1,1032(ra)

00001194 <inst_282>:
    1194:	55555537          	lui	a0,0x55555
    1198:	55450513          	addi	a0,a0,1364 # 55555554 <absimm+0x10263025>
    119c:	fd352593          	slti	a1,a0,-45
    11a0:	40b0a623          	sw	a1,1036(ra)

000011a4 <inst_283>:
    11a4:	55555537          	lui	a0,0x55555
    11a8:	55450513          	addi	a0,a0,1364 # 55555554 <absimm+0x10263025>
    11ac:	02d52593          	slti	a1,a0,45
    11b0:	40b0a823          	sw	a1,1040(ra)

000011b4 <inst_284>:
    11b4:	55555537          	lui	a0,0x55555
    11b8:	55450513          	addi	a0,a0,1364 # 55555554 <absimm+0x10263025>
    11bc:	00252593          	slti	a1,a0,2
    11c0:	40b0aa23          	sw	a1,1044(ra)

000011c4 <inst_285>:
    11c4:	55555537          	lui	a0,0x55555
    11c8:	55450513          	addi	a0,a0,1364 # 55555554 <absimm+0x10263025>
    11cc:	55452593          	slti	a1,a0,1364
    11d0:	40b0ac23          	sw	a1,1048(ra)

000011d4 <inst_286>:
    11d4:	55555537          	lui	a0,0x55555
    11d8:	55450513          	addi	a0,a0,1364 # 55555554 <absimm+0x10263025>
    11dc:	00052593          	slti	a1,a0,0
    11e0:	40b0ae23          	sw	a1,1052(ra)

000011e4 <inst_287>:
    11e4:	55555537          	lui	a0,0x55555
    11e8:	55450513          	addi	a0,a0,1364 # 55555554 <absimm+0x10263025>
    11ec:	00452593          	slti	a1,a0,4
    11f0:	42b0a023          	sw	a1,1056(ra)

000011f4 <inst_288>:
    11f4:	55555537          	lui	a0,0x55555
    11f8:	55450513          	addi	a0,a0,1364 # 55555554 <absimm+0x10263025>
    11fc:	33252593          	slti	a1,a0,818
    1200:	42b0a223          	sw	a1,1060(ra)

00001204 <inst_289>:
    1204:	55555537          	lui	a0,0x55555
    1208:	55450513          	addi	a0,a0,1364 # 55555554 <absimm+0x10263025>
    120c:	66552593          	slti	a1,a0,1637
    1210:	42b0a423          	sw	a1,1064(ra)

00001214 <inst_290>:
    1214:	55555537          	lui	a0,0x55555
    1218:	55450513          	addi	a0,a0,1364 # 55555554 <absimm+0x10263025>
    121c:	02c52593          	slti	a1,a0,44
    1220:	42b0a623          	sw	a1,1068(ra)

00001224 <inst_291>:
    1224:	55555537          	lui	a0,0x55555
    1228:	55450513          	addi	a0,a0,1364 # 55555554 <absimm+0x10263025>
    122c:	55652593          	slti	a1,a0,1366
    1230:	42b0a823          	sw	a1,1072(ra)

00001234 <inst_292>:
    1234:	55555537          	lui	a0,0x55555
    1238:	55450513          	addi	a0,a0,1364 # 55555554 <absimm+0x10263025>
    123c:	aab52593          	slti	a1,a0,-1365
    1240:	42b0aa23          	sw	a1,1076(ra)

00001244 <inst_293>:
    1244:	55555537          	lui	a0,0x55555
    1248:	55450513          	addi	a0,a0,1364 # 55555554 <absimm+0x10263025>
    124c:	00652593          	slti	a1,a0,6
    1250:	42b0ac23          	sw	a1,1080(ra)

00001254 <inst_294>:
    1254:	55555537          	lui	a0,0x55555
    1258:	55450513          	addi	a0,a0,1364 # 55555554 <absimm+0x10263025>
    125c:	33452593          	slti	a1,a0,820
    1260:	42b0ae23          	sw	a1,1084(ra)

00001264 <inst_295>:
    1264:	55555537          	lui	a0,0x55555
    1268:	55450513          	addi	a0,a0,1364 # 55555554 <absimm+0x10263025>
    126c:	66752593          	slti	a1,a0,1639
    1270:	44b0a023          	sw	a1,1088(ra)

00001274 <inst_296>:
    1274:	55555537          	lui	a0,0x55555
    1278:	55450513          	addi	a0,a0,1364 # 55555554 <absimm+0x10263025>
    127c:	fd452593          	slti	a1,a0,-44
    1280:	44b0a223          	sw	a1,1092(ra)

00001284 <inst_297>:
    1284:	55555537          	lui	a0,0x55555
    1288:	55450513          	addi	a0,a0,1364 # 55555554 <absimm+0x10263025>
    128c:	02e52593          	slti	a1,a0,46
    1290:	44b0a423          	sw	a1,1096(ra)

00001294 <inst_298>:
    1294:	00000513          	addi	a0,zero,0
    1298:	00352593          	slti	a1,a0,3
    129c:	44b0a623          	sw	a1,1100(ra)

000012a0 <inst_299>:
    12a0:	00000513          	addi	a0,zero,0
    12a4:	55552593          	slti	a1,a0,1365
    12a8:	44b0a823          	sw	a1,1104(ra)

000012ac <inst_300>:
    12ac:	00000513          	addi	a0,zero,0
    12b0:	aaa52593          	slti	a1,a0,-1366
    12b4:	44b0aa23          	sw	a1,1108(ra)

000012b8 <inst_301>:
    12b8:	00000513          	addi	a0,zero,0
    12bc:	00552593          	slti	a1,a0,5
    12c0:	44b0ac23          	sw	a1,1112(ra)

000012c4 <inst_302>:
    12c4:	00000513          	addi	a0,zero,0
    12c8:	33352593          	slti	a1,a0,819
    12cc:	44b0ae23          	sw	a1,1116(ra)

000012d0 <inst_303>:
    12d0:	00000513          	addi	a0,zero,0
    12d4:	66652593          	slti	a1,a0,1638
    12d8:	46b0a023          	sw	a1,1120(ra)

000012dc <inst_304>:
    12dc:	33333537          	lui	a0,0x33333
    12e0:	33450513          	addi	a0,a0,820 # 33333334 <_end+0x3332982c>
    12e4:	33252593          	slti	a1,a0,818
    12e8:	46b0a223          	sw	a1,1124(ra)

000012ec <inst_305>:
    12ec:	33333537          	lui	a0,0x33333
    12f0:	33450513          	addi	a0,a0,820 # 33333334 <_end+0x3332982c>
    12f4:	66552593          	slti	a1,a0,1637
    12f8:	46b0a423          	sw	a1,1128(ra)

000012fc <inst_306>:
    12fc:	33333537          	lui	a0,0x33333
    1300:	33450513          	addi	a0,a0,820 # 33333334 <_end+0x3332982c>
    1304:	02c52593          	slti	a1,a0,44
    1308:	46b0a623          	sw	a1,1132(ra)

0000130c <inst_307>:
    130c:	33333537          	lui	a0,0x33333
    1310:	33450513          	addi	a0,a0,820 # 33333334 <_end+0x3332982c>
    1314:	55652593          	slti	a1,a0,1366
    1318:	46b0a823          	sw	a1,1136(ra)

0000131c <inst_308>:
    131c:	33333537          	lui	a0,0x33333
    1320:	33450513          	addi	a0,a0,820 # 33333334 <_end+0x3332982c>
    1324:	aab52593          	slti	a1,a0,-1365
    1328:	46b0aa23          	sw	a1,1140(ra)

0000132c <inst_309>:
    132c:	33333537          	lui	a0,0x33333
    1330:	33450513          	addi	a0,a0,820 # 33333334 <_end+0x3332982c>
    1334:	00652593          	slti	a1,a0,6
    1338:	46b0ac23          	sw	a1,1144(ra)

0000133c <inst_310>:
    133c:	33333537          	lui	a0,0x33333
    1340:	33450513          	addi	a0,a0,820 # 33333334 <_end+0x3332982c>
    1344:	33452593          	slti	a1,a0,820
    1348:	46b0ae23          	sw	a1,1148(ra)

0000134c <inst_311>:
    134c:	33333537          	lui	a0,0x33333
    1350:	33450513          	addi	a0,a0,820 # 33333334 <_end+0x3332982c>
    1354:	66752593          	slti	a1,a0,1639
    1358:	48b0a023          	sw	a1,1152(ra)

0000135c <inst_312>:
    135c:	33333537          	lui	a0,0x33333
    1360:	33450513          	addi	a0,a0,820 # 33333334 <_end+0x3332982c>
    1364:	fd452593          	slti	a1,a0,-44
    1368:	48b0a223          	sw	a1,1156(ra)

0000136c <inst_313>:
    136c:	33333537          	lui	a0,0x33333
    1370:	33450513          	addi	a0,a0,820 # 33333334 <_end+0x3332982c>
    1374:	02e52593          	slti	a1,a0,46
    1378:	48b0a423          	sw	a1,1160(ra)

0000137c <inst_314>:
    137c:	66666537          	lui	a0,0x66666
    1380:	66750513          	addi	a0,a0,1639 # 66666667 <absimm+0x21374138>
    1384:	00352593          	slti	a1,a0,3
    1388:	48b0a623          	sw	a1,1164(ra)

0000138c <inst_315>:
    138c:	66666537          	lui	a0,0x66666
    1390:	66750513          	addi	a0,a0,1639 # 66666667 <absimm+0x21374138>
    1394:	55552593          	slti	a1,a0,1365
    1398:	48b0a823          	sw	a1,1168(ra)

0000139c <inst_316>:
    139c:	66666537          	lui	a0,0x66666
    13a0:	66750513          	addi	a0,a0,1639 # 66666667 <absimm+0x21374138>
    13a4:	aaa52593          	slti	a1,a0,-1366
    13a8:	48b0aa23          	sw	a1,1172(ra)

000013ac <inst_317>:
    13ac:	66666537          	lui	a0,0x66666
    13b0:	66750513          	addi	a0,a0,1639 # 66666667 <absimm+0x21374138>
    13b4:	00552593          	slti	a1,a0,5
    13b8:	48b0ac23          	sw	a1,1176(ra)

000013bc <inst_318>:
    13bc:	66666537          	lui	a0,0x66666
    13c0:	66750513          	addi	a0,a0,1639 # 66666667 <absimm+0x21374138>
    13c4:	33352593          	slti	a1,a0,819
    13c8:	48b0ae23          	sw	a1,1180(ra)

000013cc <inst_319>:
    13cc:	66666537          	lui	a0,0x66666
    13d0:	66750513          	addi	a0,a0,1639 # 66666667 <absimm+0x21374138>
    13d4:	66652593          	slti	a1,a0,1638
    13d8:	4ab0a023          	sw	a1,1184(ra)

000013dc <inst_320>:
    13dc:	66666537          	lui	a0,0x66666
    13e0:	66750513          	addi	a0,a0,1639 # 66666667 <absimm+0x21374138>
    13e4:	fd352593          	slti	a1,a0,-45
    13e8:	4ab0a223          	sw	a1,1188(ra)

000013ec <inst_321>:
    13ec:	66666537          	lui	a0,0x66666
    13f0:	66750513          	addi	a0,a0,1639 # 66666667 <absimm+0x21374138>
    13f4:	02d52593          	slti	a1,a0,45
    13f8:	4ab0a423          	sw	a1,1192(ra)

000013fc <inst_322>:
    13fc:	66666537          	lui	a0,0x66666
    1400:	66750513          	addi	a0,a0,1639 # 66666667 <absimm+0x21374138>
    1404:	00252593          	slti	a1,a0,2
    1408:	4ab0a623          	sw	a1,1196(ra)

0000140c <inst_323>:
    140c:	66666537          	lui	a0,0x66666
    1410:	66750513          	addi	a0,a0,1639 # 66666667 <absimm+0x21374138>
    1414:	55452593          	slti	a1,a0,1364
    1418:	4ab0a823          	sw	a1,1200(ra)

0000141c <inst_324>:
    141c:	66666537          	lui	a0,0x66666
    1420:	66750513          	addi	a0,a0,1639 # 66666667 <absimm+0x21374138>
    1424:	00052593          	slti	a1,a0,0
    1428:	4ab0aa23          	sw	a1,1204(ra)

0000142c <inst_325>:
    142c:	66666537          	lui	a0,0x66666
    1430:	66750513          	addi	a0,a0,1639 # 66666667 <absimm+0x21374138>
    1434:	00452593          	slti	a1,a0,4
    1438:	4ab0ac23          	sw	a1,1208(ra)

0000143c <inst_326>:
    143c:	66666537          	lui	a0,0x66666
    1440:	66750513          	addi	a0,a0,1639 # 66666667 <absimm+0x21374138>
    1444:	33252593          	slti	a1,a0,818
    1448:	4ab0ae23          	sw	a1,1212(ra)

0000144c <inst_327>:
    144c:	66666537          	lui	a0,0x66666
    1450:	66750513          	addi	a0,a0,1639 # 66666667 <absimm+0x21374138>
    1454:	66552593          	slti	a1,a0,1637
    1458:	4cb0a023          	sw	a1,1216(ra)

0000145c <inst_328>:
    145c:	66666537          	lui	a0,0x66666
    1460:	66750513          	addi	a0,a0,1639 # 66666667 <absimm+0x21374138>
    1464:	02c52593          	slti	a1,a0,44
    1468:	4cb0a223          	sw	a1,1220(ra)

0000146c <inst_329>:
    146c:	66666537          	lui	a0,0x66666
    1470:	66750513          	addi	a0,a0,1639 # 66666667 <absimm+0x21374138>
    1474:	55652593          	slti	a1,a0,1366
    1478:	4cb0a423          	sw	a1,1224(ra)

0000147c <inst_330>:
    147c:	66666537          	lui	a0,0x66666
    1480:	66750513          	addi	a0,a0,1639 # 66666667 <absimm+0x21374138>
    1484:	aab52593          	slti	a1,a0,-1365
    1488:	4cb0a623          	sw	a1,1228(ra)

0000148c <inst_331>:
    148c:	66666537          	lui	a0,0x66666
    1490:	66750513          	addi	a0,a0,1639 # 66666667 <absimm+0x21374138>
    1494:	00652593          	slti	a1,a0,6
    1498:	4cb0a823          	sw	a1,1232(ra)

0000149c <inst_332>:
    149c:	66666537          	lui	a0,0x66666
    14a0:	66750513          	addi	a0,a0,1639 # 66666667 <absimm+0x21374138>
    14a4:	33452593          	slti	a1,a0,820
    14a8:	4cb0aa23          	sw	a1,1236(ra)

000014ac <inst_333>:
    14ac:	66666537          	lui	a0,0x66666
    14b0:	66750513          	addi	a0,a0,1639 # 66666667 <absimm+0x21374138>
    14b4:	66752593          	slti	a1,a0,1639
    14b8:	4cb0ac23          	sw	a1,1240(ra)

000014bc <inst_334>:
    14bc:	66666537          	lui	a0,0x66666
    14c0:	66750513          	addi	a0,a0,1639 # 66666667 <absimm+0x21374138>
    14c4:	fd452593          	slti	a1,a0,-44
    14c8:	4cb0ae23          	sw	a1,1244(ra)

000014cc <inst_335>:
    14cc:	66666537          	lui	a0,0x66666
    14d0:	66750513          	addi	a0,a0,1639 # 66666667 <absimm+0x21374138>
    14d4:	02e52593          	slti	a1,a0,46
    14d8:	4eb0a023          	sw	a1,1248(ra)

000014dc <inst_336>:
    14dc:	ffff5537          	lui	a0,0xffff5
    14e0:	afd50513          	addi	a0,a0,-1283 # ffff4afd <immx+0x452e702d>
    14e4:	00352593          	slti	a1,a0,3
    14e8:	4eb0a223          	sw	a1,1252(ra)

000014ec <inst_337>:
    14ec:	ffff5537          	lui	a0,0xffff5
    14f0:	afd50513          	addi	a0,a0,-1283 # ffff4afd <immx+0x452e702d>
    14f4:	55552593          	slti	a1,a0,1365
    14f8:	4eb0a423          	sw	a1,1256(ra)

000014fc <inst_338>:
    14fc:	ffff5537          	lui	a0,0xffff5
    1500:	afd50513          	addi	a0,a0,-1283 # ffff4afd <immx+0x452e702d>
    1504:	aaa52593          	slti	a1,a0,-1366
    1508:	4eb0a623          	sw	a1,1260(ra)

0000150c <inst_339>:
    150c:	ffff5537          	lui	a0,0xffff5
    1510:	afd50513          	addi	a0,a0,-1283 # ffff4afd <immx+0x452e702d>
    1514:	00552593          	slti	a1,a0,5
    1518:	4eb0a823          	sw	a1,1264(ra)

0000151c <inst_340>:
    151c:	ffff5537          	lui	a0,0xffff5
    1520:	afd50513          	addi	a0,a0,-1283 # ffff4afd <immx+0x452e702d>
    1524:	33352593          	slti	a1,a0,819
    1528:	4eb0aa23          	sw	a1,1268(ra)

0000152c <inst_341>:
    152c:	ffff5537          	lui	a0,0xffff5
    1530:	afd50513          	addi	a0,a0,-1283 # ffff4afd <immx+0x452e702d>
    1534:	66652593          	slti	a1,a0,1638
    1538:	4eb0ac23          	sw	a1,1272(ra)

0000153c <inst_342>:
    153c:	ffff5537          	lui	a0,0xffff5
    1540:	afd50513          	addi	a0,a0,-1283 # ffff4afd <immx+0x452e702d>
    1544:	fd352593          	slti	a1,a0,-45
    1548:	4eb0ae23          	sw	a1,1276(ra)

0000154c <inst_343>:
    154c:	ffff5537          	lui	a0,0xffff5
    1550:	afd50513          	addi	a0,a0,-1283 # ffff4afd <immx+0x452e702d>
    1554:	02d52593          	slti	a1,a0,45
    1558:	50b0a023          	sw	a1,1280(ra)

0000155c <inst_344>:
    155c:	ffff5537          	lui	a0,0xffff5
    1560:	afd50513          	addi	a0,a0,-1283 # ffff4afd <immx+0x452e702d>
    1564:	00252593          	slti	a1,a0,2
    1568:	50b0a223          	sw	a1,1284(ra)

0000156c <inst_345>:
    156c:	ffff5537          	lui	a0,0xffff5
    1570:	afd50513          	addi	a0,a0,-1283 # ffff4afd <immx+0x452e702d>
    1574:	55452593          	slti	a1,a0,1364
    1578:	50b0a423          	sw	a1,1288(ra)

0000157c <inst_346>:
    157c:	ffff5537          	lui	a0,0xffff5
    1580:	afd50513          	addi	a0,a0,-1283 # ffff4afd <immx+0x452e702d>
    1584:	00052593          	slti	a1,a0,0
    1588:	50b0a623          	sw	a1,1292(ra)

0000158c <inst_347>:
    158c:	ffff5537          	lui	a0,0xffff5
    1590:	afd50513          	addi	a0,a0,-1283 # ffff4afd <immx+0x452e702d>
    1594:	00452593          	slti	a1,a0,4
    1598:	50b0a823          	sw	a1,1296(ra)

0000159c <inst_348>:
    159c:	ffff5537          	lui	a0,0xffff5
    15a0:	afd50513          	addi	a0,a0,-1283 # ffff4afd <immx+0x452e702d>
    15a4:	33252593          	slti	a1,a0,818
    15a8:	50b0aa23          	sw	a1,1300(ra)

000015ac <inst_349>:
    15ac:	ffff5537          	lui	a0,0xffff5
    15b0:	afd50513          	addi	a0,a0,-1283 # ffff4afd <immx+0x452e702d>
    15b4:	66552593          	slti	a1,a0,1637
    15b8:	50b0ac23          	sw	a1,1304(ra)

000015bc <inst_350>:
    15bc:	ffff5537          	lui	a0,0xffff5
    15c0:	afd50513          	addi	a0,a0,-1283 # ffff4afd <immx+0x452e702d>
    15c4:	02c52593          	slti	a1,a0,44
    15c8:	50b0ae23          	sw	a1,1308(ra)

000015cc <inst_351>:
    15cc:	ffff5537          	lui	a0,0xffff5
    15d0:	afd50513          	addi	a0,a0,-1283 # ffff4afd <immx+0x452e702d>
    15d4:	55652593          	slti	a1,a0,1366
    15d8:	52b0a023          	sw	a1,1312(ra)

000015dc <inst_352>:
    15dc:	ffff5537          	lui	a0,0xffff5
    15e0:	afd50513          	addi	a0,a0,-1283 # ffff4afd <immx+0x452e702d>
    15e4:	aab52593          	slti	a1,a0,-1365
    15e8:	52b0a223          	sw	a1,1316(ra)

000015ec <inst_353>:
    15ec:	ffff5537          	lui	a0,0xffff5
    15f0:	afd50513          	addi	a0,a0,-1283 # ffff4afd <immx+0x452e702d>
    15f4:	00652593          	slti	a1,a0,6
    15f8:	52b0a423          	sw	a1,1320(ra)

000015fc <inst_354>:
    15fc:	ffff5537          	lui	a0,0xffff5
    1600:	afd50513          	addi	a0,a0,-1283 # ffff4afd <immx+0x452e702d>
    1604:	33452593          	slti	a1,a0,820
    1608:	52b0a623          	sw	a1,1324(ra)

0000160c <inst_355>:
    160c:	ffff5537          	lui	a0,0xffff5
    1610:	afd50513          	addi	a0,a0,-1283 # ffff4afd <immx+0x452e702d>
    1614:	66752593          	slti	a1,a0,1639
    1618:	52b0a823          	sw	a1,1328(ra)

0000161c <inst_356>:
    161c:	ffff5537          	lui	a0,0xffff5
    1620:	afd50513          	addi	a0,a0,-1283 # ffff4afd <immx+0x452e702d>
    1624:	fd452593          	slti	a1,a0,-44
    1628:	52b0aa23          	sw	a1,1332(ra)

0000162c <inst_357>:
    162c:	ffff5537          	lui	a0,0xffff5
    1630:	afd50513          	addi	a0,a0,-1283 # ffff4afd <immx+0x452e702d>
    1634:	02e52593          	slti	a1,a0,46
    1638:	52b0ac23          	sw	a1,1336(ra)

0000163c <inst_358>:
    163c:	0000b537          	lui	a0,0xb
    1640:	50550513          	addi	a0,a0,1285 # b505 <_end+0x19fd>
    1644:	00352593          	slti	a1,a0,3
    1648:	52b0ae23          	sw	a1,1340(ra)

0000164c <inst_359>:
    164c:	0000b537          	lui	a0,0xb
    1650:	50550513          	addi	a0,a0,1285 # b505 <_end+0x19fd>
    1654:	55552593          	slti	a1,a0,1365
    1658:	54b0a023          	sw	a1,1344(ra)

0000165c <inst_360>:
    165c:	0000b537          	lui	a0,0xb
    1660:	50550513          	addi	a0,a0,1285 # b505 <_end+0x19fd>
    1664:	aaa52593          	slti	a1,a0,-1366
    1668:	54b0a223          	sw	a1,1348(ra)

0000166c <inst_361>:
    166c:	0000b537          	lui	a0,0xb
    1670:	50550513          	addi	a0,a0,1285 # b505 <_end+0x19fd>
    1674:	00552593          	slti	a1,a0,5
    1678:	54b0a423          	sw	a1,1352(ra)

0000167c <inst_362>:
    167c:	0000b537          	lui	a0,0xb
    1680:	50550513          	addi	a0,a0,1285 # b505 <_end+0x19fd>
    1684:	33352593          	slti	a1,a0,819
    1688:	54b0a623          	sw	a1,1356(ra)

0000168c <inst_363>:
    168c:	0000b537          	lui	a0,0xb
    1690:	50550513          	addi	a0,a0,1285 # b505 <_end+0x19fd>
    1694:	66652593          	slti	a1,a0,1638
    1698:	54b0a823          	sw	a1,1360(ra)

0000169c <inst_364>:
    169c:	0000b537          	lui	a0,0xb
    16a0:	50550513          	addi	a0,a0,1285 # b505 <_end+0x19fd>
    16a4:	fd352593          	slti	a1,a0,-45
    16a8:	54b0aa23          	sw	a1,1364(ra)

000016ac <inst_365>:
    16ac:	0000b537          	lui	a0,0xb
    16b0:	50550513          	addi	a0,a0,1285 # b505 <_end+0x19fd>
    16b4:	02d52593          	slti	a1,a0,45
    16b8:	54b0ac23          	sw	a1,1368(ra)

000016bc <inst_366>:
    16bc:	0000b537          	lui	a0,0xb
    16c0:	50550513          	addi	a0,a0,1285 # b505 <_end+0x19fd>
    16c4:	00252593          	slti	a1,a0,2
    16c8:	54b0ae23          	sw	a1,1372(ra)

000016cc <inst_367>:
    16cc:	0000b537          	lui	a0,0xb
    16d0:	50550513          	addi	a0,a0,1285 # b505 <_end+0x19fd>
    16d4:	55452593          	slti	a1,a0,1364
    16d8:	56b0a023          	sw	a1,1376(ra)

000016dc <inst_368>:
    16dc:	0000b537          	lui	a0,0xb
    16e0:	50550513          	addi	a0,a0,1285 # b505 <_end+0x19fd>
    16e4:	00052593          	slti	a1,a0,0
    16e8:	56b0a223          	sw	a1,1380(ra)

000016ec <inst_369>:
    16ec:	0000b537          	lui	a0,0xb
    16f0:	50550513          	addi	a0,a0,1285 # b505 <_end+0x19fd>
    16f4:	00452593          	slti	a1,a0,4
    16f8:	56b0a423          	sw	a1,1384(ra)

000016fc <inst_370>:
    16fc:	0000b537          	lui	a0,0xb
    1700:	50550513          	addi	a0,a0,1285 # b505 <_end+0x19fd>
    1704:	33252593          	slti	a1,a0,818
    1708:	56b0a623          	sw	a1,1388(ra)

0000170c <inst_371>:
    170c:	0000b537          	lui	a0,0xb
    1710:	50550513          	addi	a0,a0,1285 # b505 <_end+0x19fd>
    1714:	66552593          	slti	a1,a0,1637
    1718:	56b0a823          	sw	a1,1392(ra)

0000171c <inst_372>:
    171c:	0000b537          	lui	a0,0xb
    1720:	50550513          	addi	a0,a0,1285 # b505 <_end+0x19fd>
    1724:	02c52593          	slti	a1,a0,44
    1728:	56b0aa23          	sw	a1,1396(ra)

0000172c <inst_373>:
    172c:	0000b537          	lui	a0,0xb
    1730:	50550513          	addi	a0,a0,1285 # b505 <_end+0x19fd>
    1734:	55652593          	slti	a1,a0,1366
    1738:	56b0ac23          	sw	a1,1400(ra)

0000173c <inst_374>:
    173c:	0000b537          	lui	a0,0xb
    1740:	50550513          	addi	a0,a0,1285 # b505 <_end+0x19fd>
    1744:	aab52593          	slti	a1,a0,-1365
    1748:	56b0ae23          	sw	a1,1404(ra)

0000174c <inst_375>:
    174c:	0000b537          	lui	a0,0xb
    1750:	50550513          	addi	a0,a0,1285 # b505 <_end+0x19fd>
    1754:	00652593          	slti	a1,a0,6
    1758:	58b0a023          	sw	a1,1408(ra)

0000175c <inst_376>:
    175c:	0000b537          	lui	a0,0xb
    1760:	50550513          	addi	a0,a0,1285 # b505 <_end+0x19fd>
    1764:	33452593          	slti	a1,a0,820
    1768:	58b0a223          	sw	a1,1412(ra)

0000176c <inst_377>:
    176c:	0000b537          	lui	a0,0xb
    1770:	50550513          	addi	a0,a0,1285 # b505 <_end+0x19fd>
    1774:	66752593          	slti	a1,a0,1639
    1778:	58b0a423          	sw	a1,1416(ra)

0000177c <inst_378>:
    177c:	0000b537          	lui	a0,0xb
    1780:	50550513          	addi	a0,a0,1285 # b505 <_end+0x19fd>
    1784:	fd452593          	slti	a1,a0,-44
    1788:	58b0a623          	sw	a1,1420(ra)

0000178c <inst_379>:
    178c:	0000b537          	lui	a0,0xb
    1790:	50550513          	addi	a0,a0,1285 # b505 <_end+0x19fd>
    1794:	02e52593          	slti	a1,a0,46
    1798:	58b0a823          	sw	a1,1424(ra)

0000179c <inst_380>:
    179c:	00000513          	addi	a0,zero,0
    17a0:	fd352593          	slti	a1,a0,-45
    17a4:	58b0aa23          	sw	a1,1428(ra)

000017a8 <inst_381>:
    17a8:	00000513          	addi	a0,zero,0
    17ac:	02d52593          	slti	a1,a0,45
    17b0:	58b0ac23          	sw	a1,1432(ra)

000017b4 <inst_382>:
    17b4:	00000513          	addi	a0,zero,0
    17b8:	55452593          	slti	a1,a0,1364
    17bc:	58b0ae23          	sw	a1,1436(ra)

000017c0 <inst_383>:
    17c0:	00000513          	addi	a0,zero,0
    17c4:	00052593          	slti	a1,a0,0
    17c8:	5ab0a023          	sw	a1,1440(ra)

000017cc <inst_384>:
    17cc:	00000513          	addi	a0,zero,0
    17d0:	00452593          	slti	a1,a0,4
    17d4:	5ab0a223          	sw	a1,1444(ra)

000017d8 <inst_385>:
    17d8:	00000513          	addi	a0,zero,0
    17dc:	33252593          	slti	a1,a0,818
    17e0:	5ab0a423          	sw	a1,1448(ra)

000017e4 <inst_386>:
    17e4:	00000513          	addi	a0,zero,0
    17e8:	66552593          	slti	a1,a0,1637
    17ec:	5ab0a623          	sw	a1,1452(ra)

000017f0 <inst_387>:
    17f0:	00000513          	addi	a0,zero,0
    17f4:	02c52593          	slti	a1,a0,44
    17f8:	5ab0a823          	sw	a1,1456(ra)

000017fc <inst_388>:
    17fc:	00000513          	addi	a0,zero,0
    1800:	55652593          	slti	a1,a0,1366
    1804:	5ab0aa23          	sw	a1,1460(ra)

00001808 <inst_389>:
    1808:	00000513          	addi	a0,zero,0
    180c:	aab52593          	slti	a1,a0,-1365
    1810:	5ab0ac23          	sw	a1,1464(ra)

00001814 <inst_390>:
    1814:	00000513          	addi	a0,zero,0
    1818:	00652593          	slti	a1,a0,6
    181c:	5ab0ae23          	sw	a1,1468(ra)

00001820 <inst_391>:
    1820:	00000513          	addi	a0,zero,0
    1824:	33452593          	slti	a1,a0,820
    1828:	5cb0a023          	sw	a1,1472(ra)

0000182c <inst_392>:
    182c:	00000513          	addi	a0,zero,0
    1830:	66752593          	slti	a1,a0,1639
    1834:	5cb0a223          	sw	a1,1476(ra)

00001838 <inst_393>:
    1838:	00000513          	addi	a0,zero,0
    183c:	fd452593          	slti	a1,a0,-44
    1840:	5cb0a423          	sw	a1,1480(ra)

00001844 <inst_394>:
    1844:	00000513          	addi	a0,zero,0
    1848:	02e52593          	slti	a1,a0,46
    184c:	5cb0a623          	sw	a1,1484(ra)

00001850 <inst_395>:
    1850:	00400513          	addi	a0,zero,4
    1854:	00352593          	slti	a1,a0,3
    1858:	5cb0a823          	sw	a1,1488(ra)

0000185c <inst_396>:
    185c:	00400513          	addi	a0,zero,4
    1860:	aaa52593          	slti	a1,a0,-1366
    1864:	5cb0aa23          	sw	a1,1492(ra)

00001868 <inst_397>:
    1868:	00400513          	addi	a0,zero,4
    186c:	00552593          	slti	a1,a0,5
    1870:	5cb0ac23          	sw	a1,1496(ra)

00001874 <inst_398>:
    1874:	00400513          	addi	a0,zero,4
    1878:	33352593          	slti	a1,a0,819
    187c:	5cb0ae23          	sw	a1,1500(ra)

00001880 <inst_399>:
    1880:	00400513          	addi	a0,zero,4
    1884:	66652593          	slti	a1,a0,1638
    1888:	5eb0a023          	sw	a1,1504(ra)

0000188c <inst_400>:
    188c:	00400513          	addi	a0,zero,4
    1890:	fd352593          	slti	a1,a0,-45
    1894:	5eb0a223          	sw	a1,1508(ra)

00001898 <inst_401>:
    1898:	00400513          	addi	a0,zero,4
    189c:	02d52593          	slti	a1,a0,45
    18a0:	5eb0a423          	sw	a1,1512(ra)

000018a4 <inst_402>:
    18a4:	00400513          	addi	a0,zero,4
    18a8:	00252593          	slti	a1,a0,2
    18ac:	5eb0a623          	sw	a1,1516(ra)

000018b0 <inst_403>:
    18b0:	00400513          	addi	a0,zero,4
    18b4:	55452593          	slti	a1,a0,1364
    18b8:	5eb0a823          	sw	a1,1520(ra)

000018bc <inst_404>:
    18bc:	00400513          	addi	a0,zero,4
    18c0:	00052593          	slti	a1,a0,0
    18c4:	5eb0aa23          	sw	a1,1524(ra)

000018c8 <inst_405>:
    18c8:	00400513          	addi	a0,zero,4
    18cc:	00452593          	slti	a1,a0,4
    18d0:	5eb0ac23          	sw	a1,1528(ra)

000018d4 <inst_406>:
    18d4:	00400513          	addi	a0,zero,4
    18d8:	33252593          	slti	a1,a0,818
    18dc:	5eb0ae23          	sw	a1,1532(ra)

000018e0 <inst_407>:
    18e0:	00400513          	addi	a0,zero,4
    18e4:	66552593          	slti	a1,a0,1637
    18e8:	60b0a023          	sw	a1,1536(ra)

000018ec <inst_408>:
    18ec:	00400513          	addi	a0,zero,4
    18f0:	02c52593          	slti	a1,a0,44
    18f4:	60b0a223          	sw	a1,1540(ra)

000018f8 <inst_409>:
    18f8:	00400513          	addi	a0,zero,4
    18fc:	55652593          	slti	a1,a0,1366
    1900:	60b0a423          	sw	a1,1544(ra)

00001904 <inst_410>:
    1904:	00400513          	addi	a0,zero,4
    1908:	aab52593          	slti	a1,a0,-1365
    190c:	60b0a623          	sw	a1,1548(ra)

00001910 <inst_411>:
    1910:	00400513          	addi	a0,zero,4
    1914:	00652593          	slti	a1,a0,6
    1918:	60b0a823          	sw	a1,1552(ra)

0000191c <inst_412>:
    191c:	00400513          	addi	a0,zero,4
    1920:	33452593          	slti	a1,a0,820
    1924:	60b0aa23          	sw	a1,1556(ra)

00001928 <inst_413>:
    1928:	00400513          	addi	a0,zero,4
    192c:	66752593          	slti	a1,a0,1639
    1930:	60b0ac23          	sw	a1,1560(ra)

00001934 <inst_414>:
    1934:	00400513          	addi	a0,zero,4
    1938:	fd452593          	slti	a1,a0,-44
    193c:	60b0ae23          	sw	a1,1564(ra)

00001940 <inst_415>:
    1940:	00400513          	addi	a0,zero,4
    1944:	02e52593          	slti	a1,a0,46
    1948:	62b0a023          	sw	a1,1568(ra)

0000194c <inst_416>:
    194c:	33333537          	lui	a0,0x33333
    1950:	33250513          	addi	a0,a0,818 # 33333332 <_end+0x3332982a>
    1954:	00352593          	slti	a1,a0,3
    1958:	62b0a223          	sw	a1,1572(ra)

0000195c <inst_417>:
    195c:	33333537          	lui	a0,0x33333
    1960:	33250513          	addi	a0,a0,818 # 33333332 <_end+0x3332982a>
    1964:	55552593          	slti	a1,a0,1365
    1968:	62b0a423          	sw	a1,1576(ra)

0000196c <inst_418>:
    196c:	33333537          	lui	a0,0x33333
    1970:	33250513          	addi	a0,a0,818 # 33333332 <_end+0x3332982a>
    1974:	aaa52593          	slti	a1,a0,-1366
    1978:	62b0a623          	sw	a1,1580(ra)

0000197c <inst_419>:
    197c:	33333537          	lui	a0,0x33333
    1980:	33250513          	addi	a0,a0,818 # 33333332 <_end+0x3332982a>
    1984:	00552593          	slti	a1,a0,5
    1988:	62b0a823          	sw	a1,1584(ra)

0000198c <inst_420>:
    198c:	33333537          	lui	a0,0x33333
    1990:	33250513          	addi	a0,a0,818 # 33333332 <_end+0x3332982a>
    1994:	33352593          	slti	a1,a0,819
    1998:	62b0aa23          	sw	a1,1588(ra)

0000199c <inst_421>:
    199c:	33333537          	lui	a0,0x33333
    19a0:	33250513          	addi	a0,a0,818 # 33333332 <_end+0x3332982a>
    19a4:	66652593          	slti	a1,a0,1638
    19a8:	62b0ac23          	sw	a1,1592(ra)

000019ac <inst_422>:
    19ac:	33333537          	lui	a0,0x33333
    19b0:	33250513          	addi	a0,a0,818 # 33333332 <_end+0x3332982a>
    19b4:	fd352593          	slti	a1,a0,-45
    19b8:	62b0ae23          	sw	a1,1596(ra)

000019bc <inst_423>:
    19bc:	33333537          	lui	a0,0x33333
    19c0:	33250513          	addi	a0,a0,818 # 33333332 <_end+0x3332982a>
    19c4:	02d52593          	slti	a1,a0,45
    19c8:	64b0a023          	sw	a1,1600(ra)

000019cc <inst_424>:
    19cc:	33333537          	lui	a0,0x33333
    19d0:	33250513          	addi	a0,a0,818 # 33333332 <_end+0x3332982a>
    19d4:	00252593          	slti	a1,a0,2
    19d8:	64b0a223          	sw	a1,1604(ra)

000019dc <inst_425>:
    19dc:	33333537          	lui	a0,0x33333
    19e0:	33250513          	addi	a0,a0,818 # 33333332 <_end+0x3332982a>
    19e4:	55452593          	slti	a1,a0,1364
    19e8:	64b0a423          	sw	a1,1608(ra)

000019ec <inst_426>:
    19ec:	33333537          	lui	a0,0x33333
    19f0:	33250513          	addi	a0,a0,818 # 33333332 <_end+0x3332982a>
    19f4:	00052593          	slti	a1,a0,0
    19f8:	64b0a623          	sw	a1,1612(ra)

000019fc <inst_427>:
    19fc:	33333537          	lui	a0,0x33333
    1a00:	33250513          	addi	a0,a0,818 # 33333332 <_end+0x3332982a>
    1a04:	00452593          	slti	a1,a0,4
    1a08:	64b0a823          	sw	a1,1616(ra)

00001a0c <inst_428>:
    1a0c:	33333537          	lui	a0,0x33333
    1a10:	33250513          	addi	a0,a0,818 # 33333332 <_end+0x3332982a>
    1a14:	33252593          	slti	a1,a0,818
    1a18:	64b0aa23          	sw	a1,1620(ra)

00001a1c <inst_429>:
    1a1c:	33333537          	lui	a0,0x33333
    1a20:	33250513          	addi	a0,a0,818 # 33333332 <_end+0x3332982a>
    1a24:	66552593          	slti	a1,a0,1637
    1a28:	64b0ac23          	sw	a1,1624(ra)

00001a2c <inst_430>:
    1a2c:	33333537          	lui	a0,0x33333
    1a30:	33250513          	addi	a0,a0,818 # 33333332 <_end+0x3332982a>
    1a34:	02c52593          	slti	a1,a0,44
    1a38:	64b0ae23          	sw	a1,1628(ra)

00001a3c <inst_431>:
    1a3c:	33333537          	lui	a0,0x33333
    1a40:	33250513          	addi	a0,a0,818 # 33333332 <_end+0x3332982a>
    1a44:	55652593          	slti	a1,a0,1366
    1a48:	66b0a023          	sw	a1,1632(ra)

00001a4c <inst_432>:
    1a4c:	33333537          	lui	a0,0x33333
    1a50:	33250513          	addi	a0,a0,818 # 33333332 <_end+0x3332982a>
    1a54:	aab52593          	slti	a1,a0,-1365
    1a58:	66b0a223          	sw	a1,1636(ra)

00001a5c <inst_433>:
    1a5c:	33333537          	lui	a0,0x33333
    1a60:	33250513          	addi	a0,a0,818 # 33333332 <_end+0x3332982a>
    1a64:	00652593          	slti	a1,a0,6
    1a68:	66b0a423          	sw	a1,1640(ra)

00001a6c <inst_434>:
    1a6c:	33333537          	lui	a0,0x33333
    1a70:	33250513          	addi	a0,a0,818 # 33333332 <_end+0x3332982a>
    1a74:	33452593          	slti	a1,a0,820
    1a78:	66b0a623          	sw	a1,1644(ra)

00001a7c <inst_435>:
    1a7c:	33333537          	lui	a0,0x33333
    1a80:	33250513          	addi	a0,a0,818 # 33333332 <_end+0x3332982a>
    1a84:	66752593          	slti	a1,a0,1639
    1a88:	66b0a823          	sw	a1,1648(ra)

00001a8c <inst_436>:
    1a8c:	33333537          	lui	a0,0x33333
    1a90:	33250513          	addi	a0,a0,818 # 33333332 <_end+0x3332982a>
    1a94:	fd452593          	slti	a1,a0,-44
    1a98:	66b0aa23          	sw	a1,1652(ra)

00001a9c <inst_437>:
    1a9c:	33333537          	lui	a0,0x33333
    1aa0:	33250513          	addi	a0,a0,818 # 33333332 <_end+0x3332982a>
    1aa4:	02e52593          	slti	a1,a0,46
    1aa8:	66b0ac23          	sw	a1,1656(ra)

00001aac <inst_438>:
    1aac:	66666537          	lui	a0,0x66666
    1ab0:	66550513          	addi	a0,a0,1637 # 66666665 <absimm+0x21374136>
    1ab4:	00352593          	slti	a1,a0,3
    1ab8:	66b0ae23          	sw	a1,1660(ra)

00001abc <inst_439>:
    1abc:	66666537          	lui	a0,0x66666
    1ac0:	66550513          	addi	a0,a0,1637 # 66666665 <absimm+0x21374136>
    1ac4:	55552593          	slti	a1,a0,1365
    1ac8:	68b0a023          	sw	a1,1664(ra)

00001acc <inst_440>:
    1acc:	66666537          	lui	a0,0x66666
    1ad0:	66550513          	addi	a0,a0,1637 # 66666665 <absimm+0x21374136>
    1ad4:	aaa52593          	slti	a1,a0,-1366
    1ad8:	68b0a223          	sw	a1,1668(ra)

00001adc <inst_441>:
    1adc:	66666537          	lui	a0,0x66666
    1ae0:	66550513          	addi	a0,a0,1637 # 66666665 <absimm+0x21374136>
    1ae4:	00552593          	slti	a1,a0,5
    1ae8:	68b0a423          	sw	a1,1672(ra)

00001aec <inst_442>:
    1aec:	66666537          	lui	a0,0x66666
    1af0:	66550513          	addi	a0,a0,1637 # 66666665 <absimm+0x21374136>
    1af4:	33352593          	slti	a1,a0,819
    1af8:	68b0a623          	sw	a1,1676(ra)

00001afc <inst_443>:
    1afc:	66666537          	lui	a0,0x66666
    1b00:	66550513          	addi	a0,a0,1637 # 66666665 <absimm+0x21374136>
    1b04:	66652593          	slti	a1,a0,1638
    1b08:	68b0a823          	sw	a1,1680(ra)

00001b0c <inst_444>:
    1b0c:	66666537          	lui	a0,0x66666
    1b10:	66550513          	addi	a0,a0,1637 # 66666665 <absimm+0x21374136>
    1b14:	fd352593          	slti	a1,a0,-45
    1b18:	68b0aa23          	sw	a1,1684(ra)

00001b1c <inst_445>:
    1b1c:	66666537          	lui	a0,0x66666
    1b20:	66550513          	addi	a0,a0,1637 # 66666665 <absimm+0x21374136>
    1b24:	02d52593          	slti	a1,a0,45
    1b28:	68b0ac23          	sw	a1,1688(ra)

00001b2c <inst_446>:
    1b2c:	66666537          	lui	a0,0x66666
    1b30:	66550513          	addi	a0,a0,1637 # 66666665 <absimm+0x21374136>
    1b34:	00252593          	slti	a1,a0,2
    1b38:	68b0ae23          	sw	a1,1692(ra)

00001b3c <inst_447>:
    1b3c:	66666537          	lui	a0,0x66666
    1b40:	66550513          	addi	a0,a0,1637 # 66666665 <absimm+0x21374136>
    1b44:	55452593          	slti	a1,a0,1364
    1b48:	6ab0a023          	sw	a1,1696(ra)

00001b4c <inst_448>:
    1b4c:	66666537          	lui	a0,0x66666
    1b50:	66550513          	addi	a0,a0,1637 # 66666665 <absimm+0x21374136>
    1b54:	00052593          	slti	a1,a0,0
    1b58:	6ab0a223          	sw	a1,1700(ra)

00001b5c <inst_449>:
    1b5c:	66666537          	lui	a0,0x66666
    1b60:	66550513          	addi	a0,a0,1637 # 66666665 <absimm+0x21374136>
    1b64:	00452593          	slti	a1,a0,4
    1b68:	6ab0a423          	sw	a1,1704(ra)

00001b6c <inst_450>:
    1b6c:	66666537          	lui	a0,0x66666
    1b70:	66550513          	addi	a0,a0,1637 # 66666665 <absimm+0x21374136>
    1b74:	33252593          	slti	a1,a0,818
    1b78:	6ab0a623          	sw	a1,1708(ra)

00001b7c <inst_451>:
    1b7c:	66666537          	lui	a0,0x66666
    1b80:	66550513          	addi	a0,a0,1637 # 66666665 <absimm+0x21374136>
    1b84:	66552593          	slti	a1,a0,1637
    1b88:	6ab0a823          	sw	a1,1712(ra)

00001b8c <inst_452>:
    1b8c:	66666537          	lui	a0,0x66666
    1b90:	66550513          	addi	a0,a0,1637 # 66666665 <absimm+0x21374136>
    1b94:	02c52593          	slti	a1,a0,44
    1b98:	6ab0aa23          	sw	a1,1716(ra)

00001b9c <inst_453>:
    1b9c:	66666537          	lui	a0,0x66666
    1ba0:	66550513          	addi	a0,a0,1637 # 66666665 <absimm+0x21374136>
    1ba4:	55652593          	slti	a1,a0,1366
    1ba8:	6ab0ac23          	sw	a1,1720(ra)

00001bac <inst_454>:
    1bac:	66666537          	lui	a0,0x66666
    1bb0:	66550513          	addi	a0,a0,1637 # 66666665 <absimm+0x21374136>
    1bb4:	aab52593          	slti	a1,a0,-1365
    1bb8:	6ab0ae23          	sw	a1,1724(ra)

00001bbc <inst_455>:
    1bbc:	66666537          	lui	a0,0x66666
    1bc0:	66550513          	addi	a0,a0,1637 # 66666665 <absimm+0x21374136>
    1bc4:	00652593          	slti	a1,a0,6
    1bc8:	6cb0a023          	sw	a1,1728(ra)

00001bcc <inst_456>:
    1bcc:	66666537          	lui	a0,0x66666
    1bd0:	66550513          	addi	a0,a0,1637 # 66666665 <absimm+0x21374136>
    1bd4:	33452593          	slti	a1,a0,820
    1bd8:	6cb0a223          	sw	a1,1732(ra)

00001bdc <inst_457>:
    1bdc:	66666537          	lui	a0,0x66666
    1be0:	66550513          	addi	a0,a0,1637 # 66666665 <absimm+0x21374136>
    1be4:	66752593          	slti	a1,a0,1639
    1be8:	6cb0a423          	sw	a1,1736(ra)

00001bec <inst_458>:
    1bec:	66666537          	lui	a0,0x66666
    1bf0:	66550513          	addi	a0,a0,1637 # 66666665 <absimm+0x21374136>
    1bf4:	fd452593          	slti	a1,a0,-44
    1bf8:	6cb0a623          	sw	a1,1740(ra)

00001bfc <inst_459>:
    1bfc:	66666537          	lui	a0,0x66666
    1c00:	66550513          	addi	a0,a0,1637 # 66666665 <absimm+0x21374136>
    1c04:	02e52593          	slti	a1,a0,46
    1c08:	6cb0a823          	sw	a1,1744(ra)

00001c0c <inst_460>:
    1c0c:	0000b537          	lui	a0,0xb
    1c10:	50350513          	addi	a0,a0,1283 # b503 <_end+0x19fb>
    1c14:	00352593          	slti	a1,a0,3
    1c18:	6cb0aa23          	sw	a1,1748(ra)

00001c1c <inst_461>:
    1c1c:	0000b537          	lui	a0,0xb
    1c20:	50350513          	addi	a0,a0,1283 # b503 <_end+0x19fb>
    1c24:	55552593          	slti	a1,a0,1365
    1c28:	6cb0ac23          	sw	a1,1752(ra)

00001c2c <inst_462>:
    1c2c:	0000b537          	lui	a0,0xb
    1c30:	50350513          	addi	a0,a0,1283 # b503 <_end+0x19fb>
    1c34:	aaa52593          	slti	a1,a0,-1366
    1c38:	6cb0ae23          	sw	a1,1756(ra)

00001c3c <inst_463>:
    1c3c:	0000b537          	lui	a0,0xb
    1c40:	50350513          	addi	a0,a0,1283 # b503 <_end+0x19fb>
    1c44:	00552593          	slti	a1,a0,5
    1c48:	6eb0a023          	sw	a1,1760(ra)

00001c4c <inst_464>:
    1c4c:	0000b537          	lui	a0,0xb
    1c50:	50350513          	addi	a0,a0,1283 # b503 <_end+0x19fb>
    1c54:	33352593          	slti	a1,a0,819
    1c58:	6eb0a223          	sw	a1,1764(ra)

00001c5c <inst_465>:
    1c5c:	0000b537          	lui	a0,0xb
    1c60:	50350513          	addi	a0,a0,1283 # b503 <_end+0x19fb>
    1c64:	66652593          	slti	a1,a0,1638
    1c68:	6eb0a423          	sw	a1,1768(ra)

00001c6c <inst_466>:
    1c6c:	0000b537          	lui	a0,0xb
    1c70:	50350513          	addi	a0,a0,1283 # b503 <_end+0x19fb>
    1c74:	fd352593          	slti	a1,a0,-45
    1c78:	6eb0a623          	sw	a1,1772(ra)

00001c7c <inst_467>:
    1c7c:	0000b537          	lui	a0,0xb
    1c80:	50350513          	addi	a0,a0,1283 # b503 <_end+0x19fb>
    1c84:	02d52593          	slti	a1,a0,45
    1c88:	6eb0a823          	sw	a1,1776(ra)

00001c8c <inst_468>:
    1c8c:	0000b537          	lui	a0,0xb
    1c90:	50350513          	addi	a0,a0,1283 # b503 <_end+0x19fb>
    1c94:	00252593          	slti	a1,a0,2
    1c98:	6eb0aa23          	sw	a1,1780(ra)

00001c9c <inst_469>:
    1c9c:	0000b537          	lui	a0,0xb
    1ca0:	50350513          	addi	a0,a0,1283 # b503 <_end+0x19fb>
    1ca4:	55452593          	slti	a1,a0,1364
    1ca8:	6eb0ac23          	sw	a1,1784(ra)

00001cac <inst_470>:
    1cac:	0000b537          	lui	a0,0xb
    1cb0:	50350513          	addi	a0,a0,1283 # b503 <_end+0x19fb>
    1cb4:	00052593          	slti	a1,a0,0
    1cb8:	6eb0ae23          	sw	a1,1788(ra)

00001cbc <inst_471>:
    1cbc:	0000b537          	lui	a0,0xb
    1cc0:	50350513          	addi	a0,a0,1283 # b503 <_end+0x19fb>
    1cc4:	00452593          	slti	a1,a0,4
    1cc8:	70b0a023          	sw	a1,1792(ra)

00001ccc <inst_472>:
    1ccc:	0000b537          	lui	a0,0xb
    1cd0:	50350513          	addi	a0,a0,1283 # b503 <_end+0x19fb>
    1cd4:	33252593          	slti	a1,a0,818
    1cd8:	70b0a223          	sw	a1,1796(ra)

00001cdc <inst_473>:
    1cdc:	0000b537          	lui	a0,0xb
    1ce0:	50350513          	addi	a0,a0,1283 # b503 <_end+0x19fb>
    1ce4:	66552593          	slti	a1,a0,1637
    1ce8:	70b0a423          	sw	a1,1800(ra)

00001cec <inst_474>:
    1cec:	0000b537          	lui	a0,0xb
    1cf0:	50350513          	addi	a0,a0,1283 # b503 <_end+0x19fb>
    1cf4:	02c52593          	slti	a1,a0,44
    1cf8:	70b0a623          	sw	a1,1804(ra)

00001cfc <inst_475>:
    1cfc:	0000b537          	lui	a0,0xb
    1d00:	50350513          	addi	a0,a0,1283 # b503 <_end+0x19fb>
    1d04:	55652593          	slti	a1,a0,1366
    1d08:	70b0a823          	sw	a1,1808(ra)

00001d0c <inst_476>:
    1d0c:	0000b537          	lui	a0,0xb
    1d10:	50350513          	addi	a0,a0,1283 # b503 <_end+0x19fb>
    1d14:	aab52593          	slti	a1,a0,-1365
    1d18:	70b0aa23          	sw	a1,1812(ra)

00001d1c <inst_477>:
    1d1c:	0000b537          	lui	a0,0xb
    1d20:	50350513          	addi	a0,a0,1283 # b503 <_end+0x19fb>
    1d24:	00652593          	slti	a1,a0,6
    1d28:	70b0ac23          	sw	a1,1816(ra)

00001d2c <inst_478>:
    1d2c:	0000b537          	lui	a0,0xb
    1d30:	50350513          	addi	a0,a0,1283 # b503 <_end+0x19fb>
    1d34:	33452593          	slti	a1,a0,820
    1d38:	70b0ae23          	sw	a1,1820(ra)

00001d3c <inst_479>:
    1d3c:	0000b537          	lui	a0,0xb
    1d40:	50350513          	addi	a0,a0,1283 # b503 <_end+0x19fb>
    1d44:	66752593          	slti	a1,a0,1639
    1d48:	72b0a023          	sw	a1,1824(ra)

00001d4c <inst_480>:
    1d4c:	0000b537          	lui	a0,0xb
    1d50:	50350513          	addi	a0,a0,1283 # b503 <_end+0x19fb>
    1d54:	fd452593          	slti	a1,a0,-44
    1d58:	72b0a223          	sw	a1,1828(ra)

00001d5c <inst_481>:
    1d5c:	0000b537          	lui	a0,0xb
    1d60:	50350513          	addi	a0,a0,1283 # b503 <_end+0x19fb>
    1d64:	02e52593          	slti	a1,a0,46
    1d68:	72b0a423          	sw	a1,1832(ra)

00001d6c <inst_482>:
    1d6c:	55555537          	lui	a0,0x55555
    1d70:	55650513          	addi	a0,a0,1366 # 55555556 <absimm+0x10263027>
    1d74:	00352593          	slti	a1,a0,3
    1d78:	72b0a623          	sw	a1,1836(ra)

00001d7c <inst_483>:
    1d7c:	55555537          	lui	a0,0x55555
    1d80:	55650513          	addi	a0,a0,1366 # 55555556 <absimm+0x10263027>
    1d84:	55552593          	slti	a1,a0,1365
    1d88:	72b0a823          	sw	a1,1840(ra)

00001d8c <inst_484>:
    1d8c:	55555537          	lui	a0,0x55555
    1d90:	55650513          	addi	a0,a0,1366 # 55555556 <absimm+0x10263027>
    1d94:	aaa52593          	slti	a1,a0,-1366
    1d98:	72b0aa23          	sw	a1,1844(ra)

00001d9c <inst_485>:
    1d9c:	55555537          	lui	a0,0x55555
    1da0:	55650513          	addi	a0,a0,1366 # 55555556 <absimm+0x10263027>
    1da4:	00552593          	slti	a1,a0,5
    1da8:	72b0ac23          	sw	a1,1848(ra)

00001dac <inst_486>:
    1dac:	55555537          	lui	a0,0x55555
    1db0:	55650513          	addi	a0,a0,1366 # 55555556 <absimm+0x10263027>
    1db4:	33352593          	slti	a1,a0,819
    1db8:	72b0ae23          	sw	a1,1852(ra)

00001dbc <inst_487>:
    1dbc:	55555537          	lui	a0,0x55555
    1dc0:	55650513          	addi	a0,a0,1366 # 55555556 <absimm+0x10263027>
    1dc4:	66652593          	slti	a1,a0,1638
    1dc8:	74b0a023          	sw	a1,1856(ra)

00001dcc <inst_488>:
    1dcc:	55555537          	lui	a0,0x55555
    1dd0:	55650513          	addi	a0,a0,1366 # 55555556 <absimm+0x10263027>
    1dd4:	fd352593          	slti	a1,a0,-45
    1dd8:	74b0a223          	sw	a1,1860(ra)

00001ddc <inst_489>:
    1ddc:	55555537          	lui	a0,0x55555
    1de0:	55650513          	addi	a0,a0,1366 # 55555556 <absimm+0x10263027>
    1de4:	02d52593          	slti	a1,a0,45
    1de8:	74b0a423          	sw	a1,1864(ra)

00001dec <inst_490>:
    1dec:	55555537          	lui	a0,0x55555
    1df0:	55650513          	addi	a0,a0,1366 # 55555556 <absimm+0x10263027>
    1df4:	00252593          	slti	a1,a0,2
    1df8:	74b0a623          	sw	a1,1868(ra)

00001dfc <inst_491>:
    1dfc:	55555537          	lui	a0,0x55555
    1e00:	55650513          	addi	a0,a0,1366 # 55555556 <absimm+0x10263027>
    1e04:	55452593          	slti	a1,a0,1364
    1e08:	74b0a823          	sw	a1,1872(ra)

00001e0c <inst_492>:
    1e0c:	55555537          	lui	a0,0x55555
    1e10:	55650513          	addi	a0,a0,1366 # 55555556 <absimm+0x10263027>
    1e14:	00052593          	slti	a1,a0,0
    1e18:	74b0aa23          	sw	a1,1876(ra)

00001e1c <inst_493>:
    1e1c:	55555537          	lui	a0,0x55555
    1e20:	55650513          	addi	a0,a0,1366 # 55555556 <absimm+0x10263027>
    1e24:	00452593          	slti	a1,a0,4
    1e28:	74b0ac23          	sw	a1,1880(ra)

00001e2c <inst_494>:
    1e2c:	55555537          	lui	a0,0x55555
    1e30:	55650513          	addi	a0,a0,1366 # 55555556 <absimm+0x10263027>
    1e34:	33252593          	slti	a1,a0,818
    1e38:	74b0ae23          	sw	a1,1884(ra)

00001e3c <inst_495>:
    1e3c:	55555537          	lui	a0,0x55555
    1e40:	55650513          	addi	a0,a0,1366 # 55555556 <absimm+0x10263027>
    1e44:	66552593          	slti	a1,a0,1637
    1e48:	76b0a023          	sw	a1,1888(ra)

00001e4c <inst_496>:
    1e4c:	55555537          	lui	a0,0x55555
    1e50:	55650513          	addi	a0,a0,1366 # 55555556 <absimm+0x10263027>
    1e54:	02c52593          	slti	a1,a0,44
    1e58:	76b0a223          	sw	a1,1892(ra)

00001e5c <inst_497>:
    1e5c:	55555537          	lui	a0,0x55555
    1e60:	55650513          	addi	a0,a0,1366 # 55555556 <absimm+0x10263027>
    1e64:	55652593          	slti	a1,a0,1366
    1e68:	76b0a423          	sw	a1,1896(ra)

00001e6c <inst_498>:
    1e6c:	55555537          	lui	a0,0x55555
    1e70:	55650513          	addi	a0,a0,1366 # 55555556 <absimm+0x10263027>
    1e74:	aab52593          	slti	a1,a0,-1365
    1e78:	76b0a623          	sw	a1,1900(ra)

00001e7c <inst_499>:
    1e7c:	55555537          	lui	a0,0x55555
    1e80:	55650513          	addi	a0,a0,1366 # 55555556 <absimm+0x10263027>
    1e84:	00652593          	slti	a1,a0,6
    1e88:	76b0a823          	sw	a1,1904(ra)

00001e8c <inst_500>:
    1e8c:	55555537          	lui	a0,0x55555
    1e90:	55650513          	addi	a0,a0,1366 # 55555556 <absimm+0x10263027>
    1e94:	33452593          	slti	a1,a0,820
    1e98:	76b0aa23          	sw	a1,1908(ra)

00001e9c <inst_501>:
    1e9c:	55555537          	lui	a0,0x55555
    1ea0:	55650513          	addi	a0,a0,1366 # 55555556 <absimm+0x10263027>
    1ea4:	66752593          	slti	a1,a0,1639
    1ea8:	76b0ac23          	sw	a1,1912(ra)

00001eac <inst_502>:
    1eac:	55555537          	lui	a0,0x55555
    1eb0:	55650513          	addi	a0,a0,1366 # 55555556 <absimm+0x10263027>
    1eb4:	fd452593          	slti	a1,a0,-44
    1eb8:	76b0ae23          	sw	a1,1916(ra)

00001ebc <inst_503>:
    1ebc:	55555537          	lui	a0,0x55555
    1ec0:	55650513          	addi	a0,a0,1366 # 55555556 <absimm+0x10263027>
    1ec4:	02e52593          	slti	a1,a0,46
    1ec8:	78b0a023          	sw	a1,1920(ra)

00001ecc <inst_504>:
    1ecc:	aaaab537          	lui	a0,0xaaaab
    1ed0:	aab50513          	addi	a0,a0,-1365 # aaaaaaab <absimm+0x657b857c>
    1ed4:	00352593          	slti	a1,a0,3
    1ed8:	78b0a223          	sw	a1,1924(ra)

00001edc <inst_505>:
    1edc:	aaaab537          	lui	a0,0xaaaab
    1ee0:	aab50513          	addi	a0,a0,-1365 # aaaaaaab <absimm+0x657b857c>
    1ee4:	55552593          	slti	a1,a0,1365
    1ee8:	78b0a423          	sw	a1,1928(ra)

00001eec <inst_506>:
    1eec:	aaaab537          	lui	a0,0xaaaab
    1ef0:	aab50513          	addi	a0,a0,-1365 # aaaaaaab <absimm+0x657b857c>
    1ef4:	aaa52593          	slti	a1,a0,-1366
    1ef8:	78b0a623          	sw	a1,1932(ra)

00001efc <inst_507>:
    1efc:	aaaab537          	lui	a0,0xaaaab
    1f00:	aab50513          	addi	a0,a0,-1365 # aaaaaaab <absimm+0x657b857c>
    1f04:	00552593          	slti	a1,a0,5
    1f08:	78b0a823          	sw	a1,1936(ra)

00001f0c <inst_508>:
    1f0c:	aaaab537          	lui	a0,0xaaaab
    1f10:	aab50513          	addi	a0,a0,-1365 # aaaaaaab <absimm+0x657b857c>
    1f14:	33352593          	slti	a1,a0,819
    1f18:	78b0aa23          	sw	a1,1940(ra)

00001f1c <inst_509>:
    1f1c:	aaaab537          	lui	a0,0xaaaab
    1f20:	aab50513          	addi	a0,a0,-1365 # aaaaaaab <absimm+0x657b857c>
    1f24:	66652593          	slti	a1,a0,1638
    1f28:	78b0ac23          	sw	a1,1944(ra)

00001f2c <inst_510>:
    1f2c:	aaaab537          	lui	a0,0xaaaab
    1f30:	aab50513          	addi	a0,a0,-1365 # aaaaaaab <absimm+0x657b857c>
    1f34:	fd352593          	slti	a1,a0,-45
    1f38:	78b0ae23          	sw	a1,1948(ra)

00001f3c <inst_511>:
    1f3c:	aaaab537          	lui	a0,0xaaaab
    1f40:	aab50513          	addi	a0,a0,-1365 # aaaaaaab <absimm+0x657b857c>
    1f44:	02d52593          	slti	a1,a0,45
    1f48:	7ab0a023          	sw	a1,1952(ra)

00001f4c <inst_512>:
    1f4c:	aaaab537          	lui	a0,0xaaaab
    1f50:	aab50513          	addi	a0,a0,-1365 # aaaaaaab <absimm+0x657b857c>
    1f54:	00252593          	slti	a1,a0,2
    1f58:	7ab0a223          	sw	a1,1956(ra)

00001f5c <inst_513>:
    1f5c:	aaaab537          	lui	a0,0xaaaab
    1f60:	aab50513          	addi	a0,a0,-1365 # aaaaaaab <absimm+0x657b857c>
    1f64:	55452593          	slti	a1,a0,1364
    1f68:	7ab0a423          	sw	a1,1960(ra)

00001f6c <inst_514>:
    1f6c:	aaaab537          	lui	a0,0xaaaab
    1f70:	aab50513          	addi	a0,a0,-1365 # aaaaaaab <absimm+0x657b857c>
    1f74:	00052593          	slti	a1,a0,0
    1f78:	7ab0a623          	sw	a1,1964(ra)

00001f7c <inst_515>:
    1f7c:	aaaab537          	lui	a0,0xaaaab
    1f80:	aab50513          	addi	a0,a0,-1365 # aaaaaaab <absimm+0x657b857c>
    1f84:	00452593          	slti	a1,a0,4
    1f88:	7ab0a823          	sw	a1,1968(ra)

00001f8c <inst_516>:
    1f8c:	aaaab537          	lui	a0,0xaaaab
    1f90:	aab50513          	addi	a0,a0,-1365 # aaaaaaab <absimm+0x657b857c>
    1f94:	33252593          	slti	a1,a0,818
    1f98:	7ab0aa23          	sw	a1,1972(ra)

00001f9c <inst_517>:
    1f9c:	aaaab537          	lui	a0,0xaaaab
    1fa0:	aab50513          	addi	a0,a0,-1365 # aaaaaaab <absimm+0x657b857c>
    1fa4:	66552593          	slti	a1,a0,1637
    1fa8:	7ab0ac23          	sw	a1,1976(ra)

00001fac <inst_518>:
    1fac:	aaaab537          	lui	a0,0xaaaab
    1fb0:	aab50513          	addi	a0,a0,-1365 # aaaaaaab <absimm+0x657b857c>
    1fb4:	02c52593          	slti	a1,a0,44
    1fb8:	7ab0ae23          	sw	a1,1980(ra)

00001fbc <inst_519>:
    1fbc:	aaaab537          	lui	a0,0xaaaab
    1fc0:	aab50513          	addi	a0,a0,-1365 # aaaaaaab <absimm+0x657b857c>
    1fc4:	55652593          	slti	a1,a0,1366
    1fc8:	7cb0a023          	sw	a1,1984(ra)

00001fcc <inst_520>:
    1fcc:	aaaab537          	lui	a0,0xaaaab
    1fd0:	aab50513          	addi	a0,a0,-1365 # aaaaaaab <absimm+0x657b857c>
    1fd4:	aab52593          	slti	a1,a0,-1365
    1fd8:	7cb0a223          	sw	a1,1988(ra)

00001fdc <inst_521>:
    1fdc:	aaaab537          	lui	a0,0xaaaab
    1fe0:	aab50513          	addi	a0,a0,-1365 # aaaaaaab <absimm+0x657b857c>
    1fe4:	00652593          	slti	a1,a0,6
    1fe8:	7cb0a423          	sw	a1,1992(ra)

00001fec <inst_522>:
    1fec:	aaaab537          	lui	a0,0xaaaab
    1ff0:	aab50513          	addi	a0,a0,-1365 # aaaaaaab <absimm+0x657b857c>
    1ff4:	33452593          	slti	a1,a0,820
    1ff8:	7cb0a623          	sw	a1,1996(ra)

00001ffc <inst_523>:
    1ffc:	aaaab537          	lui	a0,0xaaaab
    2000:	aab50513          	addi	a0,a0,-1365 # aaaaaaab <absimm+0x657b857c>
    2004:	66752593          	slti	a1,a0,1639
    2008:	7cb0a823          	sw	a1,2000(ra)

0000200c <inst_524>:
    200c:	aaaab537          	lui	a0,0xaaaab
    2010:	aab50513          	addi	a0,a0,-1365 # aaaaaaab <absimm+0x657b857c>
    2014:	fd452593          	slti	a1,a0,-44
    2018:	7cb0aa23          	sw	a1,2004(ra)

0000201c <inst_525>:
    201c:	aaaab537          	lui	a0,0xaaaab
    2020:	aab50513          	addi	a0,a0,-1365 # aaaaaaab <absimm+0x657b857c>
    2024:	02e52593          	slti	a1,a0,46
    2028:	7cb0ac23          	sw	a1,2008(ra)

0000202c <inst_526>:
    202c:	00600513          	addi	a0,zero,6
    2030:	00352593          	slti	a1,a0,3
    2034:	7cb0ae23          	sw	a1,2012(ra)

00002038 <inst_527>:
    2038:	00600513          	addi	a0,zero,6
    203c:	55552593          	slti	a1,a0,1365
    2040:	7eb0a023          	sw	a1,2016(ra)

00002044 <inst_528>:
    2044:	00600513          	addi	a0,zero,6
    2048:	aaa52593          	slti	a1,a0,-1366
    204c:	7eb0a223          	sw	a1,2020(ra)

00002050 <inst_529>:
    2050:	00600513          	addi	a0,zero,6
    2054:	00552593          	slti	a1,a0,5
    2058:	7eb0a423          	sw	a1,2024(ra)

0000205c <inst_530>:
    205c:	00600513          	addi	a0,zero,6
    2060:	33352593          	slti	a1,a0,819
    2064:	7eb0a623          	sw	a1,2028(ra)

00002068 <inst_531>:
    2068:	00600513          	addi	a0,zero,6
    206c:	66652593          	slti	a1,a0,1638
    2070:	7eb0a823          	sw	a1,2032(ra)

00002074 <inst_532>:
    2074:	00600513          	addi	a0,zero,6
    2078:	fd352593          	slti	a1,a0,-45
    207c:	7eb0aa23          	sw	a1,2036(ra)

00002080 <inst_533>:
    2080:	00600513          	addi	a0,zero,6
    2084:	02d52593          	slti	a1,a0,45
    2088:	7eb0ac23          	sw	a1,2040(ra)

0000208c <inst_534>:
    208c:	00600513          	addi	a0,zero,6
    2090:	00252593          	slti	a1,a0,2
    2094:	7eb0ae23          	sw	a1,2044(ra)
    2098:	00000013          	addi	zero,zero,0
    209c:	00000013          	addi	zero,zero,0
    20a0:	00008097          	auipc	ra,0x8
    20a4:	8d008093          	addi	ra,ra,-1840 # 9970 <signature_x1_1>
    20a8:	00000013          	addi	zero,zero,0
    20ac:	00000013          	addi	zero,zero,0
    20b0:	00000013          	addi	zero,zero,0
    20b4:	00000013          	addi	zero,zero,0
    20b8:	00000013          	addi	zero,zero,0
    20bc:	00000013          	addi	zero,zero,0

000020c0 <inst_535>:
    20c0:	00600513          	addi	a0,zero,6
    20c4:	55452593          	slti	a1,a0,1364
    20c8:	00b0a023          	sw	a1,0(ra)

000020cc <inst_536>:
    20cc:	00600513          	addi	a0,zero,6
    20d0:	00052593          	slti	a1,a0,0
    20d4:	00b0a223          	sw	a1,4(ra)

000020d8 <inst_537>:
    20d8:	00600513          	addi	a0,zero,6
    20dc:	00452593          	slti	a1,a0,4
    20e0:	00b0a423          	sw	a1,8(ra)

000020e4 <inst_538>:
    20e4:	00600513          	addi	a0,zero,6
    20e8:	33252593          	slti	a1,a0,818
    20ec:	00b0a623          	sw	a1,12(ra)

000020f0 <inst_539>:
    20f0:	00600513          	addi	a0,zero,6
    20f4:	66552593          	slti	a1,a0,1637
    20f8:	00b0a823          	sw	a1,16(ra)

000020fc <inst_540>:
    20fc:	00600513          	addi	a0,zero,6
    2100:	02c52593          	slti	a1,a0,44
    2104:	00b0aa23          	sw	a1,20(ra)

00002108 <inst_541>:
    2108:	00600513          	addi	a0,zero,6
    210c:	55652593          	slti	a1,a0,1366
    2110:	00b0ac23          	sw	a1,24(ra)

00002114 <inst_542>:
    2114:	00600513          	addi	a0,zero,6
    2118:	aab52593          	slti	a1,a0,-1365
    211c:	00b0ae23          	sw	a1,28(ra)

00002120 <inst_543>:
    2120:	00600513          	addi	a0,zero,6
    2124:	00652593          	slti	a1,a0,6
    2128:	02b0a023          	sw	a1,32(ra)

0000212c <inst_544>:
    212c:	00600513          	addi	a0,zero,6
    2130:	33452593          	slti	a1,a0,820
    2134:	02b0a223          	sw	a1,36(ra)

00002138 <inst_545>:
    2138:	00600513          	addi	a0,zero,6
    213c:	66752593          	slti	a1,a0,1639
    2140:	02b0a423          	sw	a1,40(ra)

00002144 <inst_546>:
    2144:	00600513          	addi	a0,zero,6
    2148:	fd452593          	slti	a1,a0,-44
    214c:	02b0a623          	sw	a1,44(ra)

00002150 <inst_547>:
    2150:	00600513          	addi	a0,zero,6
    2154:	02e52593          	slti	a1,a0,46
    2158:	02b0a823          	sw	a1,48(ra)

0000215c <inst_548>:
    215c:	33333537          	lui	a0,0x33333
    2160:	33450513          	addi	a0,a0,820 # 33333334 <_end+0x3332982c>
    2164:	00352593          	slti	a1,a0,3
    2168:	02b0aa23          	sw	a1,52(ra)

0000216c <inst_549>:
    216c:	33333537          	lui	a0,0x33333
    2170:	33450513          	addi	a0,a0,820 # 33333334 <_end+0x3332982c>
    2174:	55552593          	slti	a1,a0,1365
    2178:	02b0ac23          	sw	a1,56(ra)

0000217c <inst_550>:
    217c:	33333537          	lui	a0,0x33333
    2180:	33450513          	addi	a0,a0,820 # 33333334 <_end+0x3332982c>
    2184:	aaa52593          	slti	a1,a0,-1366
    2188:	02b0ae23          	sw	a1,60(ra)

0000218c <inst_551>:
    218c:	33333537          	lui	a0,0x33333
    2190:	33450513          	addi	a0,a0,820 # 33333334 <_end+0x3332982c>
    2194:	00552593          	slti	a1,a0,5
    2198:	04b0a023          	sw	a1,64(ra)

0000219c <inst_552>:
    219c:	33333537          	lui	a0,0x33333
    21a0:	33450513          	addi	a0,a0,820 # 33333334 <_end+0x3332982c>
    21a4:	33352593          	slti	a1,a0,819
    21a8:	04b0a223          	sw	a1,68(ra)

000021ac <inst_553>:
    21ac:	33333537          	lui	a0,0x33333
    21b0:	33450513          	addi	a0,a0,820 # 33333334 <_end+0x3332982c>
    21b4:	66652593          	slti	a1,a0,1638
    21b8:	04b0a423          	sw	a1,72(ra)

000021bc <inst_554>:
    21bc:	33333537          	lui	a0,0x33333
    21c0:	33450513          	addi	a0,a0,820 # 33333334 <_end+0x3332982c>
    21c4:	fd352593          	slti	a1,a0,-45
    21c8:	04b0a623          	sw	a1,76(ra)

000021cc <inst_555>:
    21cc:	33333537          	lui	a0,0x33333
    21d0:	33450513          	addi	a0,a0,820 # 33333334 <_end+0x3332982c>
    21d4:	02d52593          	slti	a1,a0,45
    21d8:	04b0a823          	sw	a1,80(ra)

000021dc <inst_556>:
    21dc:	33333537          	lui	a0,0x33333
    21e0:	33450513          	addi	a0,a0,820 # 33333334 <_end+0x3332982c>
    21e4:	00252593          	slti	a1,a0,2
    21e8:	04b0aa23          	sw	a1,84(ra)

000021ec <inst_557>:
    21ec:	33333537          	lui	a0,0x33333
    21f0:	33450513          	addi	a0,a0,820 # 33333334 <_end+0x3332982c>
    21f4:	55452593          	slti	a1,a0,1364
    21f8:	04b0ac23          	sw	a1,88(ra)

000021fc <inst_558>:
    21fc:	33333537          	lui	a0,0x33333
    2200:	33450513          	addi	a0,a0,820 # 33333334 <_end+0x3332982c>
    2204:	00052593          	slti	a1,a0,0
    2208:	04b0ae23          	sw	a1,92(ra)

0000220c <inst_559>:
    220c:	fff00537          	lui	a0,0xfff00
    2210:	fff50513          	addi	a0,a0,-1 # ffefffff <immx+0x451f252f>
    2214:	ffb52593          	slti	a1,a0,-5
    2218:	06b0a023          	sw	a1,96(ra)

0000221c <cleanup_epilogs>:
    221c:	0200006f          	jal	zero,223c <exit_cleanup>

00002220 <abort_tests>:
    2220:	17812483          	lw	s1,376(sp)
    2224:	18012303          	lw	t1,384(sp)
    2228:	00930333          	add	t1,t1,s1
    222c:	bad0e337          	lui	t1,0xbad0e
    2230:	ad030313          	addi	t1,t1,-1328 # bad0dad0 <immx>
    2234:	fe64ae23          	sw	t1,-4(s1)
    2238:	0040006f          	jal	zero,223c <exit_cleanup>

0000223c <exit_cleanup>:
    223c:	00007517          	auipc	a0,0x7
    2240:	ed450513          	addi	a0,a0,-300 # 9110 <begin_signature>
    2244:	00007597          	auipc	a1,0x7
    2248:	79c58593          	addi	a1,a1,1948 # 99e0 <end_signature>
    224c:	00008637          	lui	a2,0x8
    2250:	00460613          	addi	a2,a2,4 # 8004 <rvtest_data_begin+0x4>

00002254 <sig_dump_loop>:
    2254:	00052283          	lw	t0,0(a0)
    2258:	00562023          	sw	t0,0(a2)
    225c:	00450513          	addi	a0,a0,4
    2260:	00b55463          	bge	a0,a1,2268 <end_sim>
    2264:	ff1ff06f          	jal	zero,2254 <sig_dump_loop>

00002268 <end_sim>:
    2268:	00008537          	lui	a0,0x8
    226c:	00850513          	addi	a0,a0,8 # 8008 <rvtest_data_begin+0x8>
    2270:	cafed5b7          	lui	a1,0xcafed
    2274:	afe58593          	addi	a1,a1,-1282 # cafecafe <immx+0x102df02e>
    2278:	00b52023          	sw	a1,0(a0)
    227c:	fedff06f          	jal	zero,2268 <end_sim>
	...
